 lib_protocol_d

 Timestamp is 5d4ccc56 (Fri Aug 09 09:28:54 2019)

 Preferred load address is 0000000180000000

 Start         Length     Name                   Class
 0001:00000000 00013876H .text$mn                CODE
 0001:00013880 000000edH .text$x                 CODE
 0002:00000000 00000520H .idata$5                DATA
 0002:00000520 00000008H .CRT$XCA                DATA
 0002:00000528 00000008H .CRT$XCZ                DATA
 0002:00000530 00000008H .CRT$XIA                DATA
 0002:00000538 00000008H .CRT$XIAA               DATA
 0002:00000540 00000008H .CRT$XIC                DATA
 0002:00000548 00000008H .CRT$XIZ                DATA
 0002:00000550 00001c70H .rdata                  DATA
 0002:000021c0 00000058H .rdata$debug            DATA
 0002:00002218 00000008H .rtc$IAA                DATA
 0002:00002220 000000c0H .rtc$IMZ                DATA
 0002:000022e0 00000008H .rtc$IZZ                DATA
 0002:000022e8 00000008H .rtc$TAA                DATA
 0002:000022f0 000000c0H .rtc$TMZ                DATA
 0002:000023b0 00000008H .rtc$TZZ                DATA
 0002:000023b8 00000d48H .xdata                  DATA
 0002:00003100 000012c1H .edata                  DATA
 0002:000043c4 00000050H .idata$2                DATA
 0002:00004414 00000014H .idata$3                DATA
 0002:00004428 00000520H .idata$4                DATA
 0002:00004948 00000b78H .idata$6                DATA
 0003:00000000 00004b30H .data                   DATA
 0003:00004b30 00000628H .bss                    DATA
 0004:00000000 00000f18H .pdata                  DATA
 0005:00000000 000000a0H .rsrc$01                DATA
 0005:000000a0 00000450H .rsrc$02                DATA

  Address         Publics by Value              Rva+Base               Lib:Object

 0000:00000000       __guard_fids_table         0000000000000000     <absolute>
 0000:00000000       ___safe_se_handler_table   0000000000000000     <absolute>
 0000:00000000       __guard_flags              0000000000000000     <absolute>
 0000:00000000       __guard_fids_count         0000000000000000     <absolute>
 0000:00000000       ___safe_se_handler_count   0000000000000000     <absolute>
 0000:00000000       __ImageBase                0000000180000000     <linker-defined>
 0001:00000000       http_hdr_req_get_async     0000000180001000 f   http_chat_async.obj
 0001:00000070       http_hdr_res_get_async     0000000180001070 f   http_chat_async.obj
 0001:000000e0       http_req_body_get_async    00000001800010e0 f   http_chat_async.obj
 0001:00000240       http_res_body_get_async    0000000180001240 f   http_chat_async.obj
 0001:000012f0       http_hdr_req_get_sync      00000001800022f0 f   http_chat_sync.obj
 0001:00001360       http_hdr_res_get_sync      0000000180002360 f   http_chat_sync.obj
 0001:000013d0       http_req_body_get_sync     00000001800023d0 f   http_chat_sync.obj
 0001:00001510       http_res_body_get_sync     0000000180002510 f   http_chat_sync.obj
 0001:00001650       http_chat_sync_reqctl      0000000180002650 f   http_chat_sync.obj
 0001:00001770       http_chat_sync_resctl      0000000180002770 f   http_chat_sync.obj
 0001:00002320       http_hdr_new               0000000180003320 f   http_hdr.obj
 0001:000023e0       http_hdr_clone             00000001800033e0 f   http_hdr.obj
 0001:000024d0       http_hdr_free              00000001800034d0 f   http_hdr.obj
 0001:00002580       http_hdr_reset             0000000180003580 f   http_hdr.obj
 0001:000025e0       http_hdr_append_entry      00000001800035e0 f   http_hdr.obj
 0001:00002660       http_hdr_parse_version     0000000180003660 f   http_hdr.obj
 0001:000027c0       http_hdr_parse             00000001800037c0 f   http_hdr.obj
 0001:000029f0       http_hdr_entry_build       00000001800039f0 f   http_hdr.obj
 0001:00002b10       http_hdr_entry_new         0000000180003b10 f   http_hdr.obj
 0001:00002e10       http_hdr_entry_head        0000000180003e10 f   http_hdr.obj
 0001:00002f80       http_hdr_entry_new2        0000000180003f80 f   http_hdr.obj
 0001:000030f0       http_hdr_entry             00000001800040f0 f   http_hdr.obj
 0001:00003130       http_hdr_entry_value       0000000180004130 f   http_hdr.obj
 0001:00003190       http_hdr_entry_replace     0000000180004190 f   http_hdr.obj
 0001:000032c0       http_hdr_entry_replace2    00000001800042c0 f   http_hdr.obj
 0001:000035b0       http_hdr_entry_off         00000001800045b0 f   http_hdr.obj
 0001:00003650       http_hdr_print             0000000180004650 f   http_hdr.obj
 0001:000037e0       http_hdr_fprint            00000001800047e0 f   http_hdr.obj
 0001:000039a0       http_hdr_sprint            00000001800049a0 f   http_hdr.obj
 0001:00003d00       http_hdr_put_str           0000000180004d00 f   http_hdr_build.obj
 0001:00003d60       http_hdr_put_int           0000000180004d60 f   http_hdr_build.obj
 0001:00003e20       http_hdr_put_fmt           0000000180004e20 f   http_hdr_build.obj
 0001:00003f80       http_hdr_put_time          0000000180004f80 f   http_hdr_build.obj
 0001:00004080       http_hdr_set_keepalive     0000000180005080 f   http_hdr_build.obj
 0001:00004140       http_hdr_res_init          0000000180005140 f   http_hdr_build.obj
 0001:000041b0       http_hdr_res_static        00000001800051b0 f   http_hdr_build.obj
 0001:00004210       http_hdr_res_error         0000000180005210 f   http_hdr_build.obj
 0001:000042d0       http_hdr_build             00000001800052d0 f   http_hdr_build.obj
 0001:000043e0       http_hdr_build_request     00000001800053e0 f   http_hdr_build.obj
 0001:00004500       http_uri_correct           0000000180005500 f   http_hdr_req.obj
 0001:00004520       http_hdr_req_new           0000000180005520 f   http_hdr_req.obj
 0001:00004650       http_hdr_req_create        0000000180005650 f   http_hdr_req.obj
 0001:00004d40       http_hdr_req_clone         0000000180005d40 f   http_hdr_req.obj
 0001:00004fd0       http_hdr_req_rewrite       0000000180005fd0 f   http_hdr_req.obj
 0001:00005040       http_hdr_req_rewrite2      0000000180006040 f   http_hdr_req.obj
 0001:000056a0       http_hdr_req_free          00000001800066a0 f   http_hdr_req.obj
 0001:00005760       http_hdr_req_reset         0000000180006760 f   http_hdr_req.obj
 0001:000057c0       http_hdr_req_cookies_parse 00000001800067c0 f   http_hdr_req.obj
 0001:00005980       http_hdr_req_line_parse    0000000180006980 f   http_hdr_req.obj
 0001:00005d10       http_hdr_req_parse         0000000180006d10 f   http_hdr_req.obj
 0001:00005d50       http_hdr_req_parse3        0000000180006d50 f   http_hdr_req.obj
 0001:00005e00       http_hdr_req_cookie_get    0000000180006e00 f   http_hdr_req.obj
 0001:00005ec0       http_hdr_req_method        0000000180006ec0 f   http_hdr_req.obj
 0001:00005ee0       http_hdr_req_param         0000000180006ee0 f   http_hdr_req.obj
 0001:00005f80       http_hdr_req_url_part      0000000180006f80 f   http_hdr_req.obj
 0001:00006020       http_hdr_req_url_path      0000000180007020 f   http_hdr_req.obj
 0001:00006070       http_hdr_req_host          0000000180007070 f   http_hdr_req.obj
 0001:000060b0       http_hdr_req_url           00000001800070b0 f   http_hdr_req.obj
 0001:00006160       http_hdr_req_range         0000000180007160 f   http_hdr_req.obj
 0001:00008180       http_hdr_res_status_parse  0000000180009180 f   http_hdr_res.obj
 0001:000083b0       http_hdr_res_new           00000001800093b0 f   http_hdr_res.obj
 0001:000084d0       http_hdr_res_clone         00000001800094d0 f   http_hdr_res.obj
 0001:00008530       http_hdr_res_free          0000000180009530 f   http_hdr_res.obj
 0001:000085f0       http_hdr_res_reset         00000001800095f0 f   http_hdr_res.obj
 0001:00008650       http_hdr_res_parse         0000000180009650 f   http_hdr_res.obj
 0001:00008840       http_hdr_res_range         0000000180009840 f   http_hdr_res.obj
 0001:00008d10       http_init                  0000000180009d10 f   http_init.obj
 0001:00008d70       http_hdr_cache             0000000180009d70 f   http_init.obj
 0001:00008d90       http_buf_size_set          0000000180009d90 f   http_init.obj
 0001:00008dc0       http_buf_size_get          0000000180009dc0 f   http_init.obj
 0001:00008dd0       http_req_new               0000000180009dd0 f   http_req.obj
 0001:00008ed0       http_req_free              0000000180009ed0 f   http_req.obj
 0001:00008f70       http_res_new               0000000180009f70 f   http_res.obj
 0001:00009070       http_res_free              000000018000a070 f   http_res.obj
 0001:00009150       http_mkrfc1123             000000018000a150 f   http_rfc1123.obj
 0001:00009230       http_status_line           000000018000a230 f   http_status.obj
 0001:00009320       http_tmpl_load             000000018000a320 f   http_tmpl.obj
 0001:00009630       http_tmpl_get              000000018000a630 f   http_tmpl.obj
 0001:00009720       http_tmpl_title            000000018000a720 f   http_tmpl.obj
 0001:00009810       http_tmpl_size             000000018000a810 f   http_tmpl.obj
 0001:00009bf0       http_util_req_new          000000018000abf0 f   http_util.obj
 0001:00009ec0       http_util_res_new          000000018000aec0 f   http_util.obj
 0001:00009f30       http_util_free             000000018000af30 f   http_util.obj
 0001:0000a050       http_util_set_req_entry    000000018000b050 f   http_util.obj
 0001:0000a0d0       http_util_off_req_entry    000000018000b0d0 f   http_util.obj
 0001:0000a130       http_util_get_req_value    000000018000b130 f   http_util.obj
 0001:0000a190       http_util_get_req_entry    000000018000b190 f   http_util.obj
 0001:0000a1f0       http_util_set_req_content_length 000000018000b1f0 f   http_util.obj
 0001:0000a2a0       http_util_set_req_keep_alive 000000018000b2a0 f   http_util.obj
 0001:0000a370       http_util_set_req_connection 000000018000b370 f   http_util.obj
 0001:0000a3e0       http_util_set_req_refer    000000018000b3e0 f   http_util.obj
 0001:0000a450       http_util_set_req_cookie   000000018000b450 f   http_util.obj
 0001:0000a570       http_util_set_req_proxy    000000018000b570 f   http_util.obj
 0001:0000a630       http_util_set_dump_stream  000000018000b630 f   http_util.obj
 0001:0000a6d0       http_util_set_dump_file    000000018000b6d0 f   http_util.obj
 0001:0000a800       http_util_req_open         000000018000b800 f   http_util.obj
 0001:0000a960       http_util_put_req_data     000000018000b960 f   http_util.obj
 0001:0000aa30       http_util_get_res_hdr      000000018000ba30 f   http_util.obj
 0001:0000ab00       http_util_get_res_value    000000018000bb00 f   http_util.obj
 0001:0000ab60       http_util_get_res_entry    000000018000bb60 f   http_util.obj
 0001:0000abc0       http_util_set_res_entry    000000018000bbc0 f   http_util.obj
 0001:0000ac40       http_util_off_res_entry    000000018000bc40 f   http_util.obj
 0001:0000aca0       http_util_has_res_body     000000018000bca0 f   http_util.obj
 0001:0000ad70       http_util_get_res_body     000000018000bd70 f   http_util.obj
 0001:0000af90       http_util_dump_url         000000018000bf90 f   http_util.obj
 0001:0000b1a0       http_util_dump_url_to_stream 000000018000c1a0 f   http_util.obj
 0001:0000b360       icmp_chat_create           000000018000c360 f   icmp_chat.obj
 0001:0000b480       icmp_chat_free             000000018000c480 f   icmp_chat.obj
 0001:0000b4d0       icmp_chat                  000000018000c4d0 f   icmp_chat.obj
 0001:0000b530       icmp_chat_size             000000018000c530 f   icmp_chat.obj
 0001:0000b570       icmp_chat_count            000000018000c570 f   icmp_chat.obj
 0001:0000b590       icmp_chat_finish           000000018000c590 f   icmp_chat.obj
 0001:0000b5e0       icmp_chat_seqno            000000018000c5e0 f   icmp_chat.obj
 0001:0000b6a0       icmp_chat_aio_add          000000018000c6a0 f   icmp_chat_aio.obj
 0001:0000b820       icmp_chat_aio_free         000000018000c820 f   icmp_chat_aio.obj
 0001:0000b8a0       icmp_chat_aio              000000018000c8a0 f   icmp_chat_aio.obj
 0001:0000c2b0       icmp_chat_sio_free         000000018000d2b0 f   icmp_chat_sio.obj
 0001:0000c320       icmp_chat_sio              000000018000d320 f   icmp_chat_sio.obj
 0001:0000c820       icmp_host_new              000000018000d820 f   icmp_host.obj
 0001:0000c8b0       icmp_host_free             000000018000d8b0 f   icmp_host.obj
 0001:0000c950       icmp_host_set              000000018000d950 f   icmp_host.obj
 0001:0000c9d0       icmp_host_alloc            000000018000d9d0 f   icmp_host.obj
 0001:0000cc10       icmp_host_init             000000018000dc10 f   icmp_host.obj
 0001:0000cd60       icmp_ping_one              000000018000dd60 f   icmp_ping.obj
 0001:0000ce00       icmp_pkt_client            000000018000de00 f   icmp_pkt.obj
 0001:0000cec0       icmp_pkt_alloc             000000018000dec0 f   icmp_pkt.obj
 0001:0000cf30       icmp_pkt_free              000000018000df30 f   icmp_pkt.obj
 0001:0000cf90       icmp_pkt_pack              000000018000df90 f   icmp_pkt.obj
 0001:0000d060       icmp_pkt_build             000000018000e060 f   icmp_pkt.obj
 0001:0000d100       icmp_pkt_save_status       000000018000e100 f   icmp_pkt.obj
 0001:0000d1b0       icmp_pkt_unpack            000000018000e1b0 f   icmp_pkt.obj
 0001:0000d3f0       icmp_pkt_check             000000018000e3f0 f   icmp_pkt.obj
 0001:0000d4a0       icmp_pkt_type              000000018000e4a0 f   icmp_pkt.obj
 0001:0000d4c0       icmp_pkt_code              000000018000e4c0 f   icmp_pkt.obj
 0001:0000d4e0       icmp_pkt_cksum             000000018000e4e0 f   icmp_pkt.obj
 0001:0000d500       icmp_pkt_id                000000018000e500 f   icmp_pkt.obj
 0001:0000d520       icmp_pkt_seq               000000018000e520 f   icmp_pkt.obj
 0001:0000d540       icmp_pkt_gid               000000018000e540 f   icmp_pkt.obj
 0001:0000d560       icmp_pkt_peer              000000018000e560 f   icmp_pkt.obj
 0001:0000d580       icmp_pkt_status            000000018000e580 f   icmp_pkt.obj
 0001:0000d5a0       icmp_pkt_len               000000018000e5a0 f   icmp_pkt.obj
 0001:0000d5c0       icmp_pkt_wlen              000000018000e5c0 f   icmp_pkt.obj
 0001:0000d5e0       icmp_pkt_payload           000000018000e5e0 f   icmp_pkt.obj
 0001:0000d6b0       icmp_pkt_set_extra         000000018000e6b0 f   icmp_pkt.obj
 0001:0000d770       icmp_pkt_set_type          000000018000e770 f   icmp_pkt.obj
 0001:0000d790       icmp_pkt_set_code          000000018000e790 f   icmp_pkt.obj
 0001:0000d7b0       icmp_pkt_set_cksum         000000018000e7b0 f   icmp_pkt.obj
 0001:0000d7e0       icmp_pkt_set_id            000000018000e7e0 f   icmp_pkt.obj
 0001:0000d810       icmp_pkt_set_seq           000000018000e810 f   icmp_pkt.obj
 0001:0000d840       icmp_pkt_set_data          000000018000e840 f   icmp_pkt.obj
 0001:0000d9d0       stamp_sub                  000000018000e9d0 f   icmp_stat.obj
 0001:0000daa0       icmp_stat_timeout          000000018000eaa0 f   icmp_stat.obj
 0001:0000db50       icmp_stat_unreach          000000018000eb50 f   icmp_stat.obj
 0001:0000dc00       icmp_stat_report           000000018000ec00 f   icmp_stat.obj
 0001:0000dd00       icmp_stat_finish           000000018000ed00 f   icmp_stat.obj
 0001:0000dd40       icmp_stat                  000000018000ed40 f   icmp_stat.obj
 0001:0000de20       icmp_stat_host             000000018000ee20 f   icmp_stat.obj
 0001:0000e250       icmp_stream_open           000000018000f250 f   icmp_stream.obj
 0001:0000e390       icmp_stream_close          000000018000f390 f   icmp_stream.obj
 0001:0000e420       icmp_vstream               000000018000f420 f   icmp_stream.obj
 0001:0000e440       icmp_stream_from           000000018000f440 f   icmp_stream.obj
 0001:0000e490       icmp_stream_dest           000000018000f490 f   icmp_stream.obj
 0001:0000e4e0       icmp_stream_set_dest       000000018000f4e0 f   icmp_stream.obj
 0001:0000e510       icmp_stream_reopen         000000018000f510 f   icmp_stream.obj
 0001:0000e780       icmp_timer_new             000000018000f780 f   icmp_timer.obj
 0001:0000e820       icmp_timer_free            000000018000f820 f   icmp_timer.obj
 0001:0000ed70       proto_secure_snprintf      000000018000fd70 f   proto_snprintf.obj
 0001:0000ee00       proto_securevsnprintf      000000018000fe00 f   proto_snprintf.obj
 0001:0000ee70       smtp_open                  000000018000fe70 f   smtp_client.obj
 0001:0000ef70       smtp_close                 000000018000ff70 f   smtp_client.obj
 0001:0000f020       smtp_get_banner            0000000180010020 f   smtp_client.obj
 0001:0000f1a0       smtp_greet                 00000001800101a0 f   smtp_client.obj
 0001:0000f200       smtp_helo                  0000000180010200 f   smtp_client.obj
 0001:0000f3e0       smtp_ehlo                  00000001800103e0 f   smtp_client.obj
 0001:0000f650       smtp_auth                  0000000180010650 f   smtp_client.obj
 0001:00010010       smtp_mail                  0000000180011010 f   smtp_client.obj
 0001:000101b0       smtp_rcpt                  00000001800111b0 f   smtp_client.obj
 0001:00010350       smtp_data                  0000000180011350 f   smtp_client.obj
 0001:000104f0       smtp_send                  00000001800114f0 f   smtp_client.obj
 0001:00010570       smtp_printf                0000000180011570 f   smtp_client.obj
 0001:00010610       smtp_data_end              0000000180011610 f   smtp_client.obj
 0001:000107b0       smtp_send_file             00000001800117b0 f   smtp_client.obj
 0001:00010860       smtp_send_stream           0000000180011860 f   smtp_client.obj
 0001:00010960       smtp_quit                  0000000180011960 f   smtp_client.obj
 0001:00010af0       smtp_noop                  0000000180011af0 f   smtp_client.obj
 0001:00010cd0       smtp_rset                  0000000180011cd0 f   smtp_client.obj
 0001:00011086       inet_addr                  0000000180012086 f   ws2_32:WS2_32.dll
 0001:0001108c       inet_ntoa                  000000018001208c f   ws2_32:WS2_32.dll
 0001:00011092       recvfrom                   0000000180012092 f   ws2_32:WS2_32.dll
 0001:00011098       sendto                     0000000180012098 f   ws2_32:WS2_32.dll
 0001:0001109e       socket                     000000018001209e f   ws2_32:WS2_32.dll
 0001:000110a4       acl_msg_warn               00000001800120a4 f   lib_acl_d:lib_acl_d.dll
 0001:000110aa       acl_msg_error              00000001800120aa f   lib_acl_d:lib_acl_d.dll
 0001:000110b0       acl_msg_fatal              00000001800120b0 f   lib_acl_d:lib_acl_d.dll
 0001:000110b6       acl_last_serror            00000001800120b6 f   lib_acl_d:lib_acl_d.dll
 0001:000110bc       acl_calloc_glue            00000001800120bc f   lib_acl_d:lib_acl_d.dll
 0001:000110c2       acl_free_glue              00000001800120c2 f   lib_acl_d:lib_acl_d.dll
 0001:000110c8       acl_aio_ctl                00000001800120c8 f   lib_acl_d:lib_acl_d.dll
 0001:000110ce       acl_aio_vstream            00000001800120ce f   lib_acl_d:lib_acl_d.dll
 0001:000110d4       acl_aio_gets_peek          00000001800120d4 f   lib_acl_d:lib_acl_d.dll
 0001:000110da       acl_aio_gets_nonl_peek     00000001800120da f   lib_acl_d:lib_acl_d.dll
 0001:000110e0       acl_aio_read_peek          00000001800120e0 f   lib_acl_d:lib_acl_d.dll
 0001:000110e6       acl_aio_readn_peek         00000001800120e6 f   lib_acl_d:lib_acl_d.dll
 0001:000110ec       acl_aio_enable_read        00000001800120ec f   lib_acl_d:lib_acl_d.dll
 0001:000110f2       acl_aio_can_read           00000001800120f2 f   lib_acl_d:lib_acl_d.dll
 0001:000110f8       acl_aio_disable_read       00000001800120f8 f   lib_acl_d:lib_acl_d.dll
 0001:000110fe       acl_vstream_gets           00000001800120fe f   lib_acl_d:lib_acl_d.dll
 0001:00011104       acl_vstream_gets_nonl      0000000180012104 f   lib_acl_d:lib_acl_d.dll
 0001:0001110a       acl_vstream_read           000000018001210a f   lib_acl_d:lib_acl_d.dll
 0001:00011110       acl_msg_panic              0000000180012110 f   lib_acl_d:lib_acl_d.dll
 0001:00011116       acl_last_strerror          0000000180012116 f   lib_acl_d:lib_acl_d.dll
 0001:0001111c       acl_array_create           000000018001211c f   lib_acl_d:lib_acl_d.dll
 0001:00011122       acl_array_clean            0000000180012122 f   lib_acl_d:lib_acl_d.dll
 0001:00011128       acl_array_free             0000000180012128 f   lib_acl_d:lib_acl_d.dll
 0001:0001112e       acl_array_append           000000018001212e f   lib_acl_d:lib_acl_d.dll
 0001:00011134       acl_array_delete_obj       0000000180012134 f   lib_acl_d:lib_acl_d.dll
 0001:0001113a       acl_array_index            000000018001213a f   lib_acl_d:lib_acl_d.dll
 0001:00011140       acl_array_size             0000000180012140 f   lib_acl_d:lib_acl_d.dll
 0001:00011146       acl_vstring_alloc          0000000180012146 f   lib_acl_d:lib_acl_d.dll
 0001:0001114c       acl_vstring_free           000000018001214c f   lib_acl_d:lib_acl_d.dll
 0001:00011152       acl_vstring_strcat         0000000180012152 f   lib_acl_d:lib_acl_d.dll
 0001:00011158       acl_vstring_strncat        0000000180012158 f   lib_acl_d:lib_acl_d.dll
 0001:0001115e       acl_vstring_sprintf        000000018001215e f   lib_acl_d:lib_acl_d.dll
 0001:00011164       acl_vstring_sprintf_append 0000000180012164 f   lib_acl_d:lib_acl_d.dll
 0001:0001116a       acl_vstream_fprintf        000000018001216a f   lib_acl_d:lib_acl_d.dll
 0001:00011170       acl_msg_info               0000000180012170 f   lib_acl_d:lib_acl_d.dll
 0001:00011176       acl_malloc_glue            0000000180012176 f   lib_acl_d:lib_acl_d.dll
 0001:0001117c       acl_strdup_glue            000000018001217c f   lib_acl_d:lib_acl_d.dll
 0001:00011182       acl_free_fn_glue           0000000180012182 f   lib_acl_d:lib_acl_d.dll
 0001:00011188       acl_strcasestr             0000000180012188 f   lib_acl_d:lib_acl_d.dll
 0001:0001118e       acl_strcasecmp             000000018001218e f   lib_acl_d:lib_acl_d.dll
 0001:00011194       acl_strncasecmp            0000000180012194 f   lib_acl_d:lib_acl_d.dll
 0001:0001119a       acl_atoui64                000000018001219a f   lib_acl_d:lib_acl_d.dll
 0001:000111a0       acl_vstring_vsprintf_append 00000001800121a0 f   lib_acl_d:lib_acl_d.dll
 0001:000111a6       acl_main_thread_self       00000001800121a6 f   lib_acl_d:lib_acl_d.dll
 0001:000111ac       acl_pthread_once           00000001800121ac f   lib_acl_d:lib_acl_d.dll
 0001:000111b2       acl_pthread_key_create     00000001800121b2 f   lib_acl_d:lib_acl_d.dll
 0001:000111b8       acl_pthread_getspecific    00000001800121b8 f   lib_acl_d:lib_acl_d.dll
 0001:000111be       acl_pthread_setspecific    00000001800121be f   lib_acl_d:lib_acl_d.dll
 0001:000111c4       acl_pthread_self           00000001800121c4 f   lib_acl_d:lib_acl_d.dll
 0001:000111ca       acl_pthread_tls_get        00000001800121ca f   lib_acl_d:lib_acl_d.dll
 0001:000111d0       acl_pthread_tls_set        00000001800121d0 f   lib_acl_d:lib_acl_d.dll
 0001:000111d6       acl_htable_create          00000001800121d6 f   lib_acl_d:lib_acl_d.dll
 0001:000111dc       acl_htable_enter           00000001800121dc f   lib_acl_d:lib_acl_d.dll
 0001:000111e2       acl_htable_find            00000001800121e2 f   lib_acl_d:lib_acl_d.dll
 0001:000111e8       acl_htable_free            00000001800121e8 f   lib_acl_d:lib_acl_d.dll
 0001:000111ee       acl_htable_reset           00000001800121ee f   lib_acl_d:lib_acl_d.dll
 0001:000111f4       acl_htable_walk            00000001800121f4 f   lib_acl_d:lib_acl_d.dll
 0001:000111fa       acl_vbuf_put               00000001800121fa f   lib_acl_d:lib_acl_d.dll
 0001:00011200       acl_vstring_strcpy         0000000180012200 f   lib_acl_d:lib_acl_d.dll
 0001:00011206       acl_vstring_strncpy        0000000180012206 f   lib_acl_d:lib_acl_d.dll
 0001:0001120c       acl_vstring_export         000000018001220c f   lib_acl_d:lib_acl_d.dll
 0001:00011212       acl_argv_free              0000000180012212 f   lib_acl_d:lib_acl_d.dll
 0001:00011218       acl_argv_index             0000000180012218 f   lib_acl_d:lib_acl_d.dll
 0001:0001121e       acl_argv_split             000000018001221e f   lib_acl_d:lib_acl_d.dll
 0001:00011224       acl_atoi64                 0000000180012224 f   lib_acl_d:lib_acl_d.dll
 0001:0001122a       acl_vstream_fopen          000000018001222a f   lib_acl_d:lib_acl_d.dll
 0001:00011230       acl_vstream_close          0000000180012230 f   lib_acl_d:lib_acl_d.dll
 0001:00011236       acl_vstream_writen         0000000180012236 f   lib_acl_d:lib_acl_d.dll
 0001:0001123c       acl_concatenate            000000018001223c f   lib_acl_d:lib_acl_d.dll
 0001:00011242       acl_vstream_connect        0000000180012242 f   lib_acl_d:lib_acl_d.dll
 0001:00011248       acl_ring_init              0000000180012248 f   lib_acl_d:lib_acl_d.dll
 0001:0001124e       acl_ring_size              000000018001224e f   lib_acl_d:lib_acl_d.dll
 0001:00011254       acl_atomic_new             0000000180012254 f   lib_acl_d:lib_acl_d.dll
 0001:0001125a       acl_atomic_free            000000018001225a f   lib_acl_d:lib_acl_d.dll
 0001:00011260       acl_atomic_set             0000000180012260 f   lib_acl_d:lib_acl_d.dll
 0001:00011266       acl_atomic_int64_fetch_add 0000000180012266 f   lib_acl_d:lib_acl_d.dll
 0001:0001126c       acl_ring_pop_head          000000018001226c f   lib_acl_d:lib_acl_d.dll
 0001:00011272       acl_aio_set_delay_sec      0000000180012272 f   lib_acl_d:lib_acl_d.dll
 0001:00011278       acl_aio_set_delay_usec     0000000180012278 f   lib_acl_d:lib_acl_d.dll
 0001:0001127e       acl_aio_read               000000018001227e f   lib_acl_d:lib_acl_d.dll
 0001:00011284       acl_aio_request_timer      0000000180012284 f   lib_acl_d:lib_acl_d.dll
 0001:0001128a       gettimeofday               000000018001228a f   lib_acl_d:lib_acl_d.dll
 0001:00011290       acl_read_select_wait       0000000180012290 f   lib_acl_d:lib_acl_d.dll
 0001:00011296       acl_doze                   0000000180012296 f   lib_acl_d:lib_acl_d.dll
 0001:0001129c       acl_ring_prepend           000000018001229c f   lib_acl_d:lib_acl_d.dll
 0001:000112a2       acl_vstream_fdopen         00000001800122a2 f   lib_acl_d:lib_acl_d.dll
 0001:000112a8       acl_vstream_ctl            00000001800122a8 f   lib_acl_d:lib_acl_d.dll
 0001:000112ae       acl_aio_open               00000001800122ae f   lib_acl_d:lib_acl_d.dll
 0001:000112b4       acl_aio_iocp_close         00000001800122b4 f   lib_acl_d:lib_acl_d.dll
 0001:000112ba       acl_ring_detach            00000001800122ba f   lib_acl_d:lib_acl_d.dll
 0001:000112c0       acl_vstream_vfprintf       00000001800122c0 f   lib_acl_d:lib_acl_d.dll
 0001:000112c6       acl_base64_encode          00000001800122c6 f   lib_acl_d:lib_acl_d.dll
 0001:000112cc       strcmp                     00000001800122cc f   MSVCRTD:MSVCR120D.dll
 0001:000112d2       strchr                     00000001800122d2 f   MSVCRTD:MSVCR120D.dll
 0001:000112d8       strtoul                    00000001800122d8 f   MSVCRTD:MSVCR120D.dll
 0001:000112e0       _RTC_AllocaHelper          00000001800122e0 f   MSVCRTD:stack.obj
 0001:00011320       _RTC_CheckStackVars        0000000180012320 f   MSVCRTD:stack.obj
 0001:000113b0       _RTC_CheckStackVars2       00000001800123b0 f   MSVCRTD:stack.obj
 0001:000114c0       _RTC_InitBase              00000001800124c0 f   MSVCRTD:init.obj
 0001:00011500       _RTC_Shutdown              0000000180012500 f   MSVCRTD:init.obj
 0001:00011524       sscanf_s                   0000000180012524 f   MSVCRTD:MSVCR120D.dll
 0001:00011530       __GSHandlerCheck           0000000180012530 f   MSVCRTD:gshandler.obj
 0001:00011570       __GSHandlerCheckCommon     0000000180012570 f   MSVCRTD:gshandler.obj
 0001:00011680       __chkstk                   0000000180012680 f   MSVCRTD:chkstk.obj
 0001:00011680       _alloca_probe              0000000180012680 f   MSVCRTD:chkstk.obj
 0001:000116e0       __security_check_cookie    00000001800126e0 f   MSVCRTD:amdsecgs.obj
 0001:00011700       printf                     0000000180012700 f   MSVCRTD:MSVCR120D.dll
 0001:00011706       memcpy                     0000000180012706 f   MSVCRTD:MSVCR120D.dll
 0001:0001170c       strlen                     000000018001270c f   MSVCRTD:MSVCR120D.dll
 0001:00011712       strstr                     0000000180012712 f   MSVCRTD:MSVCR120D.dll
 0001:00011720       __raise_securityfailure    0000000180012720 f   MSVCRTD:gs_report.obj
 0001:00011770       __report_gsfailure         0000000180012770 f   MSVCRTD:gs_report.obj
 0001:00011850       __report_rangecheckfailure 0000000180012850 f   MSVCRTD:gs_report.obj
 0001:00011870       __report_securityfailure   0000000180012870 f   MSVCRTD:gs_report.obj
 0001:00011910       __report_securityfailureEx 0000000180012910 f   MSVCRTD:gs_report.obj
 0001:00011a1e       _time64                    0000000180012a1e f   MSVCRTD:MSVCR120D.dll
 0001:00011a30       __atonexitinit             0000000180012a30 f   MSVCRTD:atonexit.obj
 0001:00011b20       _onexit                    0000000180012b20 f   MSVCRTD:atonexit.obj
 0001:00011bf0       atexit                     0000000180012bf0 f   MSVCRTD:atonexit.obj
 0001:00011c24       atoi                       0000000180012c24 f   MSVCRTD:MSVCR120D.dll
 0001:00011c2a       strftime                   0000000180012c2a f   MSVCRTD:MSVCR120D.dll
 0001:00011c30       _gmtime64_s                0000000180012c30 f   MSVCRTD:MSVCR120D.dll
 0001:00011c36       _getpid                    0000000180012c36 f   MSVCRTD:MSVCR120D.dll
 0001:00011c3c       abort                      0000000180012c3c f   MSVCRTD:MSVCR120D.dll
 0001:00011c42       memset                     0000000180012c42 f   MSVCRTD:MSVCR120D.dll
 0001:00011c48       _vsnprintf_s               0000000180012c48 f   MSVCRTD:MSVCR120D.dll
 0001:00011c4e       strncmp                    0000000180012c4e f   MSVCRTD:MSVCR120D.dll
 0001:00011cf0       NtCurrentTeb               0000000180012cf0 f i MSVCRTD:crtdll.obj
 0001:00011d00       _CRT_INIT                  0000000180012d00 f   MSVCRTD:crtdll.obj
 0001:000120b0       _DllMainCRTStartup         00000001800130b0 f   MSVCRTD:crtdll.obj
 0001:00012310       ?_RTC_AllocaFailure@@YAXPEAXPEAU_RTC_ALLOCA_NODE@@H@Z 0000000180013310 f   MSVCRTD:error.obj
 0001:000124d0       ?_RTC_Failure@@YAXPEAXH@Z  00000001800134d0 f   MSVCRTD:error.obj
 0001:00012520       ?_RTC_StackFailure@@YAXPEAXPEBD@Z 0000000180013520 f   MSVCRTD:error.obj
 0001:00012980       _RTC_UninitUse             0000000180013980 f   MSVCRTD:error.obj
 0001:00012aa0       ?_RTC_GetErrorFunc@@YAP6AHHPEBDH00ZZPEBX@Z 0000000180013aa0 f   MSVCRTD:userapi.obj
 0001:00012ab0       ?_RTC_GetErrorFuncW@@YAP6AHHPEB_WH00ZZPEBX@Z 0000000180013ab0 f   MSVCRTD:userapi.obj
 0001:00012ac0       _RTC_GetErrDesc            0000000180013ac0 f   MSVCRTD:userapi.obj
 0001:00012ae0       _RTC_NumErrors             0000000180013ae0 f   MSVCRTD:userapi.obj
 0001:00012af0       _RTC_SetErrorFunc          0000000180013af0 f   MSVCRTD:userapi.obj
 0001:00012b10       _RTC_SetErrorFuncW         0000000180013b10 f   MSVCRTD:userapi.obj
 0001:00012b30       _RTC_SetErrorType          0000000180013b30 f   MSVCRTD:userapi.obj
 0001:00012b4e       _CRT_RTC_INITW             0000000180013b4e f   MSVCRTD:MSVCR120D.dll
 0001:00012b54       __crt_debugger_hook        0000000180013b54 f   MSVCRTD:MSVCR120D.dll
 0001:00012b5a       __crtUnhandledException    0000000180013b5a f   MSVCRTD:MSVCR120D.dll
 0001:00012b60       __crtTerminateProcess      0000000180013b60 f   MSVCRTD:MSVCR120D.dll
 0001:00012b66       __crtCaptureCurrentContext 0000000180013b66 f   MSVCRTD:MSVCR120D.dll
 0001:00012b6c       __crtCapturePreviousContext 0000000180013b6c f   MSVCRTD:MSVCR120D.dll
 0001:00012b72       _lock                      0000000180013b72 f   MSVCRTD:MSVCR120D.dll
 0001:00012b78       _unlock                    0000000180013b78 f   MSVCRTD:MSVCR120D.dll
 0001:00012b7e       _CrtDbgReportW             0000000180013b7e f   MSVCRTD:MSVCR120D.dll
 0001:00012b84       _calloc_dbg                0000000180013b84 f   MSVCRTD:MSVCR120D.dll
 0001:00012b8a       __dllonexit                0000000180013b8a f   MSVCRTD:MSVCR120D.dll
 0001:00012b90       __C_specific_handler       0000000180013b90 f   MSVCRTD:MSVCR120D.dll
 0001:00012b96       __CppXcptFilter            0000000180013b96 f   MSVCRTD:MSVCR120D.dll
 0001:00012b9c       _amsg_exit                 0000000180013b9c f   MSVCRTD:MSVCR120D.dll
 0001:00012ba2       _malloc_dbg                0000000180013ba2 f   MSVCRTD:MSVCR120D.dll
 0001:00012ba8       _free_dbg                  0000000180013ba8 f   MSVCRTD:MSVCR120D.dll
 0001:00012bae       _CrtSetCheckCount          0000000180013bae f   MSVCRTD:MSVCR120D.dll
 0001:00012bc0       _FindPESection             0000000180013bc0 f   MSVCRTD:pesect.obj
 0001:00012c70       _IsNonwritableInCurrentImage 0000000180013c70 f   MSVCRTD:pesect.obj
 0001:00012d00       _ValidateImageBase         0000000180013d00 f   MSVCRTD:pesect.obj
 0001:00012d80       __security_init_cookie     0000000180013d80 f   MSVCRTD:gs_support.obj
 0001:00012ea0       DllMain                    0000000180013ea0 f   MSVCRTD:dllmain.obj
 0001:00012ee0       _RTC_Initialize            0000000180013ee0 f   MSVCRTD:initsect.obj
 0001:00012f20       _RTC_Terminate             0000000180013f20 f   MSVCRTD:initsect.obj
 0001:00012f5e       _initterm                  0000000180013f5e f   MSVCRTD:MSVCR120D.dll
 0001:00012f64       _initterm_e                0000000180013f64 f   MSVCRTD:MSVCR120D.dll
 0001:00012f70       __clean_type_info_names    0000000180013f70 f   MSVCRTD:tncleanup.obj
 0001:00013450       ?_RTC_GetSrcLine@@YAHPEAEPEA_WKPEAH1K@Z 0000000180014450 f   MSVCRTD:pdblkup.obj
 0001:000137da       __clean_type_info_names_internal 00000001800147da f   MSVCRTD:MSVCR120D.dll
 0001:000137e0       wcscpy_s                   00000001800147e0 f   MSVCRTD:MSVCR120D.dll
 0001:000137e6       _wmakepath_s               00000001800147e6 f   MSVCRTD:MSVCR120D.dll
 0001:000137ec       _wsplitpath_s              00000001800147ec f   MSVCRTD:MSVCR120D.dll
 0001:000137f2       IsDebuggerPresent          00000001800147f2 f   kernel32:KERNEL32.dll
 0001:000137f8       IsProcessorFeaturePresent  00000001800147f8 f   kernel32:KERNEL32.dll
 0001:000137fe       EncodePointer              00000001800147fe f   kernel32:KERNEL32.dll
 0001:00013804       DecodePointer              0000000180014804 f   kernel32:KERNEL32.dll
 0001:0001380a       RaiseException             000000018001480a f   kernel32:KERNEL32.dll
 0001:00013810       GetLastError               0000000180014810 f   kernel32:KERNEL32.dll
 0001:00013816       GetProcAddress             0000000180014816 f   kernel32:KERNEL32.dll
 0001:0001381c       LoadLibraryExW             000000018001481c f   kernel32:KERNEL32.dll
 0001:00013822       MultiByteToWideChar        0000000180014822 f   kernel32:KERNEL32.dll
 0001:00013828       WideCharToMultiByte        0000000180014828 f   kernel32:KERNEL32.dll
 0001:0001382e       QueryPerformanceCounter    000000018001482e f   kernel32:KERNEL32.dll
 0001:00013834       GetCurrentProcessId        0000000180014834 f   kernel32:KERNEL32.dll
 0001:0001383a       GetCurrentThreadId         000000018001483a f   kernel32:KERNEL32.dll
 0001:00013840       GetSystemTimeAsFileTime    0000000180014840 f   kernel32:KERNEL32.dll
 0001:00013846       DisableThreadLibraryCalls  0000000180014846 f   kernel32:KERNEL32.dll
 0001:0001384c       HeapAlloc                  000000018001484c f   kernel32:KERNEL32.dll
 0001:00013852       HeapFree                   0000000180014852 f   kernel32:KERNEL32.dll
 0001:00013858       GetProcessHeap             0000000180014858 f   kernel32:KERNEL32.dll
 0001:0001385e       VirtualQuery               000000018001485e f   kernel32:KERNEL32.dll
 0001:00013864       FreeLibrary                0000000180014864 f   kernel32:KERNEL32.dll
 0001:0001386a       GetModuleFileNameW         000000018001486a f   kernel32:KERNEL32.dll
 0001:00013870       GetModuleHandleW           0000000180014870 f   kernel32:KERNEL32.dll
 0002:00000000       __imp_IsProcessorFeaturePresent 0000000180015000     kernel32:KERNEL32.dll
 0002:00000008       __imp_EncodePointer        0000000180015008     kernel32:KERNEL32.dll
 0002:00000010       __imp_DecodePointer        0000000180015010     kernel32:KERNEL32.dll
 0002:00000018       __imp_RaiseException       0000000180015018     kernel32:KERNEL32.dll
 0002:00000020       __imp_GetLastError         0000000180015020     kernel32:KERNEL32.dll
 0002:00000028       __imp_GetModuleHandleW     0000000180015028     kernel32:KERNEL32.dll
 0002:00000030       __imp_GetModuleFileNameW   0000000180015030     kernel32:KERNEL32.dll
 0002:00000038       __imp_FreeLibrary          0000000180015038     kernel32:KERNEL32.dll
 0002:00000040       __imp_VirtualQuery         0000000180015040     kernel32:KERNEL32.dll
 0002:00000048       __imp_GetProcessHeap       0000000180015048     kernel32:KERNEL32.dll
 0002:00000050       __imp_HeapFree             0000000180015050     kernel32:KERNEL32.dll
 0002:00000058       __imp_HeapAlloc            0000000180015058     kernel32:KERNEL32.dll
 0002:00000060       __imp_DisableThreadLibraryCalls 0000000180015060     kernel32:KERNEL32.dll
 0002:00000068       __imp_GetSystemTimeAsFileTime 0000000180015068     kernel32:KERNEL32.dll
 0002:00000070       __imp_GetCurrentThreadId   0000000180015070     kernel32:KERNEL32.dll
 0002:00000078       __imp_GetCurrentProcessId  0000000180015078     kernel32:KERNEL32.dll
 0002:00000080       __imp_QueryPerformanceCounter 0000000180015080     kernel32:KERNEL32.dll
 0002:00000088       __imp_WideCharToMultiByte  0000000180015088     kernel32:KERNEL32.dll
 0002:00000090       __imp_MultiByteToWideChar  0000000180015090     kernel32:KERNEL32.dll
 0002:00000098       __imp_LoadLibraryExW       0000000180015098     kernel32:KERNEL32.dll
 0002:000000a0       __imp_GetProcAddress       00000001800150a0     kernel32:KERNEL32.dll
 0002:000000a8       __imp_IsDebuggerPresent    00000001800150a8     kernel32:KERNEL32.dll
 0002:000000b0       \177KERNEL32_NULL_THUNK_DATA 00000001800150b0     kernel32:KERNEL32.dll
 0002:000000b8       __imp_sscanf_s             00000001800150b8     MSVCRTD:MSVCR120D.dll
 0002:000000c0       __imp_strtoul              00000001800150c0     MSVCRTD:MSVCR120D.dll
 0002:000000c8       __imp_strchr               00000001800150c8     MSVCRTD:MSVCR120D.dll
 0002:000000d0       __imp_printf               00000001800150d0     MSVCRTD:MSVCR120D.dll
 0002:000000d8       __imp_memcpy               00000001800150d8     MSVCRTD:MSVCR120D.dll
 0002:000000e0       __imp__wsplitpath_s        00000001800150e0     MSVCRTD:MSVCR120D.dll
 0002:000000e8       __imp__wmakepath_s         00000001800150e8     MSVCRTD:MSVCR120D.dll
 0002:000000f0       __imp_wcscpy_s             00000001800150f0     MSVCRTD:MSVCR120D.dll
 0002:000000f8       __imp___clean_type_info_names_internal 00000001800150f8     MSVCRTD:MSVCR120D.dll
 0002:00000100       __imp__initterm_e          0000000180015100     MSVCRTD:MSVCR120D.dll
 0002:00000108       __imp__initterm            0000000180015108     MSVCRTD:MSVCR120D.dll
 0002:00000110       __imp__CrtSetCheckCount    0000000180015110     MSVCRTD:MSVCR120D.dll
 0002:00000118       __imp__free_dbg            0000000180015118     MSVCRTD:MSVCR120D.dll
 0002:00000120       __imp__malloc_dbg          0000000180015120     MSVCRTD:MSVCR120D.dll
 0002:00000128       __imp__amsg_exit           0000000180015128     MSVCRTD:MSVCR120D.dll
 0002:00000130       __imp___CppXcptFilter      0000000180015130     MSVCRTD:MSVCR120D.dll
 0002:00000138       __imp__onexit              0000000180015138     MSVCRTD:MSVCR120D.dll
 0002:00000140       __imp___C_specific_handler 0000000180015140     MSVCRTD:MSVCR120D.dll
 0002:00000148       __imp___dllonexit          0000000180015148     MSVCRTD:MSVCR120D.dll
 0002:00000150       __imp__calloc_dbg          0000000180015150     MSVCRTD:MSVCR120D.dll
 0002:00000158       __imp__CrtDbgReportW       0000000180015158     MSVCRTD:MSVCR120D.dll
 0002:00000160       __imp__unlock              0000000180015160     MSVCRTD:MSVCR120D.dll
 0002:00000168       __imp__lock                0000000180015168     MSVCRTD:MSVCR120D.dll
 0002:00000170       __imp___crtCapturePreviousContext 0000000180015170     MSVCRTD:MSVCR120D.dll
 0002:00000178       __imp___crtCaptureCurrentContext 0000000180015178     MSVCRTD:MSVCR120D.dll
 0002:00000180       __imp___crtTerminateProcess 0000000180015180     MSVCRTD:MSVCR120D.dll
 0002:00000188       __imp___crtUnhandledException 0000000180015188     MSVCRTD:MSVCR120D.dll
 0002:00000190       __imp___crt_debugger_hook  0000000180015190     MSVCRTD:MSVCR120D.dll
 0002:00000198       __imp__CRT_RTC_INITW       0000000180015198     MSVCRTD:MSVCR120D.dll
 0002:000001a0       __imp_strncmp              00000001800151a0     MSVCRTD:MSVCR120D.dll
 0002:000001a8       __imp__vsnprintf_s         00000001800151a8     MSVCRTD:MSVCR120D.dll
 0002:000001b0       __imp_memset               00000001800151b0     MSVCRTD:MSVCR120D.dll
 0002:000001b8       __imp_abort                00000001800151b8     MSVCRTD:MSVCR120D.dll
 0002:000001c0       __imp__getpid              00000001800151c0     MSVCRTD:MSVCR120D.dll
 0002:000001c8       __imp__gmtime64_s          00000001800151c8     MSVCRTD:MSVCR120D.dll
 0002:000001d0       __imp_strftime             00000001800151d0     MSVCRTD:MSVCR120D.dll
 0002:000001d8       __imp_atoi                 00000001800151d8     MSVCRTD:MSVCR120D.dll
 0002:000001e0       __imp__time64              00000001800151e0     MSVCRTD:MSVCR120D.dll
 0002:000001e8       __imp_strstr               00000001800151e8     MSVCRTD:MSVCR120D.dll
 0002:000001f0       __imp_strlen               00000001800151f0     MSVCRTD:MSVCR120D.dll
 0002:000001f8       __imp_strcmp               00000001800151f8     MSVCRTD:MSVCR120D.dll
 0002:00000200       \177MSVCR120D_NULL_THUNK_DATA 0000000180015200     MSVCRTD:MSVCR120D.dll
 0002:00000208       __imp_sendto               0000000180015208     ws2_32:WS2_32.dll
 0002:00000210       __imp_recvfrom             0000000180015210     ws2_32:WS2_32.dll
 0002:00000218       __imp_inet_ntoa            0000000180015218     ws2_32:WS2_32.dll
 0002:00000220       __imp_socket               0000000180015220     ws2_32:WS2_32.dll
 0002:00000228       __imp_inet_addr            0000000180015228     ws2_32:WS2_32.dll
 0002:00000230       \177WS2_32_NULL_THUNK_DATA 0000000180015230     ws2_32:WS2_32.dll
 0002:00000238       __imp_acl_vstream_fopen    0000000180015238     lib_acl_d:lib_acl_d.dll
 0002:00000240       __imp_acl_vstream_close    0000000180015240     lib_acl_d:lib_acl_d.dll
 0002:00000248       __imp_acl_vstream_writen   0000000180015248     lib_acl_d:lib_acl_d.dll
 0002:00000250       __imp_acl_concatenate      0000000180015250     lib_acl_d:lib_acl_d.dll
 0002:00000258       __imp_acl_vstream_connect  0000000180015258     lib_acl_d:lib_acl_d.dll
 0002:00000260       __imp_acl_ring_init        0000000180015260     lib_acl_d:lib_acl_d.dll
 0002:00000268       __imp_acl_ring_size        0000000180015268     lib_acl_d:lib_acl_d.dll
 0002:00000270       __imp_acl_atomic_new       0000000180015270     lib_acl_d:lib_acl_d.dll
 0002:00000278       __imp_acl_atomic_free      0000000180015278     lib_acl_d:lib_acl_d.dll
 0002:00000280       __imp_acl_atomic_set       0000000180015280     lib_acl_d:lib_acl_d.dll
 0002:00000288       __imp_acl_atomic_int64_fetch_add 0000000180015288     lib_acl_d:lib_acl_d.dll
 0002:00000290       __imp_acl_atoi64           0000000180015290     lib_acl_d:lib_acl_d.dll
 0002:00000298       __imp_acl_aio_set_delay_sec 0000000180015298     lib_acl_d:lib_acl_d.dll
 0002:000002a0       __imp_acl_aio_set_delay_usec 00000001800152a0     lib_acl_d:lib_acl_d.dll
 0002:000002a8       __imp_acl_aio_read         00000001800152a8     lib_acl_d:lib_acl_d.dll
 0002:000002b0       __imp_acl_aio_request_timer 00000001800152b0     lib_acl_d:lib_acl_d.dll
 0002:000002b8       __imp_gettimeofday         00000001800152b8     lib_acl_d:lib_acl_d.dll
 0002:000002c0       __imp_acl_read_select_wait 00000001800152c0     lib_acl_d:lib_acl_d.dll
 0002:000002c8       __imp_acl_doze             00000001800152c8     lib_acl_d:lib_acl_d.dll
 0002:000002d0       __imp_acl_ring_prepend     00000001800152d0     lib_acl_d:lib_acl_d.dll
 0002:000002d8       __imp_acl_vstream_fdopen   00000001800152d8     lib_acl_d:lib_acl_d.dll
 0002:000002e0       __imp_acl_vstream_ctl      00000001800152e0     lib_acl_d:lib_acl_d.dll
 0002:000002e8       __imp_acl_aio_open         00000001800152e8     lib_acl_d:lib_acl_d.dll
 0002:000002f0       __imp_acl_aio_iocp_close   00000001800152f0     lib_acl_d:lib_acl_d.dll
 0002:000002f8       __imp_acl_ring_detach      00000001800152f8     lib_acl_d:lib_acl_d.dll
 0002:00000300       __imp_acl_vstream_vfprintf 0000000180015300     lib_acl_d:lib_acl_d.dll
 0002:00000308       __imp_acl_base64_encode    0000000180015308     lib_acl_d:lib_acl_d.dll
 0002:00000310       __imp_acl_argv_split       0000000180015310     lib_acl_d:lib_acl_d.dll
 0002:00000318       __imp_acl_argv_index       0000000180015318     lib_acl_d:lib_acl_d.dll
 0002:00000320       __imp_acl_argv_free        0000000180015320     lib_acl_d:lib_acl_d.dll
 0002:00000328       __imp_acl_vstring_export   0000000180015328     lib_acl_d:lib_acl_d.dll
 0002:00000330       __imp_acl_vstring_strncpy  0000000180015330     lib_acl_d:lib_acl_d.dll
 0002:00000338       __imp_acl_vstring_strcpy   0000000180015338     lib_acl_d:lib_acl_d.dll
 0002:00000340       __imp_acl_vbuf_put         0000000180015340     lib_acl_d:lib_acl_d.dll
 0002:00000348       __imp_acl_htable_walk      0000000180015348     lib_acl_d:lib_acl_d.dll
 0002:00000350       __imp_acl_htable_reset     0000000180015350     lib_acl_d:lib_acl_d.dll
 0002:00000358       __imp_acl_htable_free      0000000180015358     lib_acl_d:lib_acl_d.dll
 0002:00000360       __imp_acl_htable_find      0000000180015360     lib_acl_d:lib_acl_d.dll
 0002:00000368       __imp_acl_htable_enter     0000000180015368     lib_acl_d:lib_acl_d.dll
 0002:00000370       __imp_acl_htable_create    0000000180015370     lib_acl_d:lib_acl_d.dll
 0002:00000378       __imp_acl_pthread_tls_set  0000000180015378     lib_acl_d:lib_acl_d.dll
 0002:00000380       __imp_acl_pthread_tls_get  0000000180015380     lib_acl_d:lib_acl_d.dll
 0002:00000388       __imp_acl_pthread_self     0000000180015388     lib_acl_d:lib_acl_d.dll
 0002:00000390       __imp_acl_pthread_setspecific 0000000180015390     lib_acl_d:lib_acl_d.dll
 0002:00000398       __imp_acl_pthread_getspecific 0000000180015398     lib_acl_d:lib_acl_d.dll
 0002:000003a0       __imp_acl_pthread_key_create 00000001800153a0     lib_acl_d:lib_acl_d.dll
 0002:000003a8       __imp_acl_pthread_once     00000001800153a8     lib_acl_d:lib_acl_d.dll
 0002:000003b0       __imp_acl_main_thread_self 00000001800153b0     lib_acl_d:lib_acl_d.dll
 0002:000003b8       __imp_acl_vstring_vsprintf_append 00000001800153b8     lib_acl_d:lib_acl_d.dll
 0002:000003c0       __imp_acl_atoui64          00000001800153c0     lib_acl_d:lib_acl_d.dll
 0002:000003c8       __imp_acl_strncasecmp      00000001800153c8     lib_acl_d:lib_acl_d.dll
 0002:000003d0       __imp_acl_strcasecmp       00000001800153d0     lib_acl_d:lib_acl_d.dll
 0002:000003d8       __imp_acl_strcasestr       00000001800153d8     lib_acl_d:lib_acl_d.dll
 0002:000003e0       __imp_acl_free_fn_glue     00000001800153e0     lib_acl_d:lib_acl_d.dll
 0002:000003e8       __imp_acl_strdup_glue      00000001800153e8     lib_acl_d:lib_acl_d.dll
 0002:000003f0       __imp_acl_malloc_glue      00000001800153f0     lib_acl_d:lib_acl_d.dll
 0002:000003f8       __imp_acl_msg_info         00000001800153f8     lib_acl_d:lib_acl_d.dll
 0002:00000400       __imp_acl_vstream_fprintf  0000000180015400     lib_acl_d:lib_acl_d.dll
 0002:00000408       __imp_acl_vstring_sprintf_append 0000000180015408     lib_acl_d:lib_acl_d.dll
 0002:00000410       __imp_acl_vstring_sprintf  0000000180015410     lib_acl_d:lib_acl_d.dll
 0002:00000418       __imp_acl_vstring_strncat  0000000180015418     lib_acl_d:lib_acl_d.dll
 0002:00000420       __imp_acl_vstring_strcat   0000000180015420     lib_acl_d:lib_acl_d.dll
 0002:00000428       __imp_acl_vstring_free     0000000180015428     lib_acl_d:lib_acl_d.dll
 0002:00000430       __imp_acl_vstring_alloc    0000000180015430     lib_acl_d:lib_acl_d.dll
 0002:00000438       __imp_acl_array_size       0000000180015438     lib_acl_d:lib_acl_d.dll
 0002:00000440       __imp_acl_array_index      0000000180015440     lib_acl_d:lib_acl_d.dll
 0002:00000448       __imp_acl_array_delete_obj 0000000180015448     lib_acl_d:lib_acl_d.dll
 0002:00000450       __imp_acl_array_append     0000000180015450     lib_acl_d:lib_acl_d.dll
 0002:00000458       __imp_acl_array_free       0000000180015458     lib_acl_d:lib_acl_d.dll
 0002:00000460       __imp_acl_array_clean      0000000180015460     lib_acl_d:lib_acl_d.dll
 0002:00000468       __imp_acl_array_create     0000000180015468     lib_acl_d:lib_acl_d.dll
 0002:00000470       __imp_acl_last_strerror    0000000180015470     lib_acl_d:lib_acl_d.dll
 0002:00000478       __imp_acl_msg_panic        0000000180015478     lib_acl_d:lib_acl_d.dll
 0002:00000480       __imp_acl_vstream_read     0000000180015480     lib_acl_d:lib_acl_d.dll
 0002:00000488       __imp_acl_vstream_gets_nonl 0000000180015488     lib_acl_d:lib_acl_d.dll
 0002:00000490       __imp_acl_vstream_gets     0000000180015490     lib_acl_d:lib_acl_d.dll
 0002:00000498       __imp_acl_aio_disable_read 0000000180015498     lib_acl_d:lib_acl_d.dll
 0002:000004a0       __imp_acl_aio_can_read     00000001800154a0     lib_acl_d:lib_acl_d.dll
 0002:000004a8       __imp_acl_aio_enable_read  00000001800154a8     lib_acl_d:lib_acl_d.dll
 0002:000004b0       __imp_acl_aio_readn_peek   00000001800154b0     lib_acl_d:lib_acl_d.dll
 0002:000004b8       __imp_acl_aio_read_peek    00000001800154b8     lib_acl_d:lib_acl_d.dll
 0002:000004c0       __imp_acl_aio_gets_nonl_peek 00000001800154c0     lib_acl_d:lib_acl_d.dll
 0002:000004c8       __imp_acl_aio_gets_peek    00000001800154c8     lib_acl_d:lib_acl_d.dll
 0002:000004d0       __imp_acl_aio_vstream      00000001800154d0     lib_acl_d:lib_acl_d.dll
 0002:000004d8       __imp_acl_aio_ctl          00000001800154d8     lib_acl_d:lib_acl_d.dll
 0002:000004e0       __imp_acl_free_glue        00000001800154e0     lib_acl_d:lib_acl_d.dll
 0002:000004e8       __imp_acl_calloc_glue      00000001800154e8     lib_acl_d:lib_acl_d.dll
 0002:000004f0       __imp_acl_last_serror      00000001800154f0     lib_acl_d:lib_acl_d.dll
 0002:000004f8       __imp_acl_msg_fatal        00000001800154f8     lib_acl_d:lib_acl_d.dll
 0002:00000500       __imp_acl_msg_error        0000000180015500     lib_acl_d:lib_acl_d.dll
 0002:00000508       __imp_acl_msg_warn         0000000180015508     lib_acl_d:lib_acl_d.dll
 0002:00000510       __imp_acl_ring_pop_head    0000000180015510     lib_acl_d:lib_acl_d.dll
 0002:00000518       \177lib_acl_d_NULL_THUNK_DATA 0000000180015518     lib_acl_d:lib_acl_d.dll
 0002:00000520       __xc_a                     0000000180015520     MSVCRTD:cinitexe.obj
 0002:00000528       __xc_z                     0000000180015528     MSVCRTD:cinitexe.obj
 0002:00000530       __xi_a                     0000000180015530     MSVCRTD:cinitexe.obj
 0002:00000548       __xi_z                     0000000180015548     MSVCRTD:cinitexe.obj
 0002:00001420       __real@40efffe000000000    0000000180016420     icmp_pkt.obj
 0002:000014e0       __real@4059000000000000    00000001800164e0     icmp_stat.obj
 0002:000014e8       __real@408f400000000000    00000001800164e8     icmp_stat.obj
 0002:000014f0       __real@43f0000000000000    00000001800164f0     icmp_stat.obj
 0002:000016e0       ??_C@_1MC@KPMPFEII@?$AA?$CI?$AA_?$AA_?$AAo?$AAn?$AAe?$AAx?$AAi?$AAt?$AAb?$AAe?$AAg?$AAi?$AAn?$AA?5?$AA?$CB?$AA?$DN?$AA?5?$AAN?$AAU?$AAL?$AAL?$AA?5?$AA?$CG?$AA?$CG?$AA?5?$AA_?$AA_?$AAo?$AAn?$AAe?$AAx@ 00000001800166e0     MSVCRTD:atonexit.obj
 0002:000017a4       ??_C@_15GANGMFKL@?$AA?$CF?$AAs?$AA?$AA@ 00000001800167a4     MSVCRTD:atonexit.obj
 0002:000017b0       ??_C@_1FK@IGIDCAPD@?$AAf?$AA?3?$AA?2?$AAd?$AAd?$AA?2?$AAv?$AAc?$AAt?$AAo?$AAo?$AAl?$AAs?$AA?2?$AAc?$AAr?$AAt?$AA?2?$AAc?$AAr?$AAt?$AAw?$AA3?$AA2?$AA?2?$AAd?$AAl?$AAl?$AAs?$AAt?$AAu?$AAf@ 00000001800167b0     MSVCRTD:atonexit.obj
 0002:00001810       ??_C@_0CN@LMJJPMEG@f?3?2dd?2vctools?2crt?2crtw32?2dllstuf@ 0000000180016810     MSVCRTD:atonexit.obj
 0002:00001840       _pRawDllMain               0000000180016840     MSVCRTD:crtdll.obj
 0002:00001840       _pDefaultRawDllMain        0000000180016840     MSVCRTD:crtdll.obj
 0002:00001848       ??_C@_0CL@CCAGLLEM@f?3?2dd?2vctools?2crt?2crtw32?2dllstuf@ 0000000180016848     MSVCRTD:crtdll.obj
 0002:00001940       ??_C@_0NN@NGPKDKPD@The?5value?5of?5ESP?5was?5not?5properl@ 0000000180016940     MSVCRTD:error.obj
 0002:00001a20       ??_C@_0BBN@GPMLNJCF@A?5cast?5to?5a?5smaller?5data?5type?5ha@ 0000000180016a20     MSVCRTD:error.obj
 0002:00001b40       ??_C@_0BN@FFOINMNJ@Stack?5memory?5was?5corrupted?6?$AN?$AA@ 0000000180016b40     MSVCRTD:error.obj
 0002:00001b60       ??_C@_0DG@HKJMLLLP@A?5local?5variable?5was?5used?5before@ 0000000180016b60     MSVCRTD:error.obj
 0002:00001b98       ??_C@_0CM@NGINOKPC@Stack?5memory?5around?5_alloca?5was?5@ 0000000180016b98     MSVCRTD:error.obj
 0002:00001bc8       ??_C@_0BO@GNIAFIKK@Unknown?5Runtime?5Check?5Error?6?$AN?$AA@ 0000000180016bc8     MSVCRTD:error.obj
 0002:00001bf0       ??_C@_1GM@OLMCBDMB@?$AAR?$AAu?$AAn?$AAt?$AAi?$AAm?$AAe?$AA?5?$AAC?$AAh?$AAe?$AAc?$AAk?$AA?5?$AAE?$AAr?$AAr?$AAo?$AAr?$AA?4?$AA?6?$AA?$AN?$AA?5?$AAU?$AAn?$AAa?$AAb?$AAl?$AAe?$AA?5?$AAt?$AAo@ 0000000180016bf0     MSVCRTD:error.obj
 0002:00001c60       ??_C@_1EA@NFKNIFJP@?$AAR?$AAu?$AAn?$AA?9?$AAT?$AAi?$AAm?$AAe?$AA?5?$AAC?$AAh?$AAe?$AAc?$AAk?$AA?5?$AAF?$AAa?$AAi?$AAl?$AAu?$AAr?$AAe?$AA?5?$AA?$CD?$AA?$CF?$AAd?$AA?5?$AA?9?$AA?5?$AA?$CF?$AAs?$AA?$AA@ 0000000180016c60     MSVCRTD:error.obj
 0002:00001ca0       ??_C@_0BB@PFFGGCJP@Unknown?5Filename?$AA@ 0000000180016ca0     MSVCRTD:error.obj
 0002:00001cb8       ??_C@_0BE@GNBOBNCK@Unknown?5Module?5Name?$AA@ 0000000180016cb8     MSVCRTD:error.obj
 0002:00001cd0       ??_C@_0CA@IODNCDPG@Run?9Time?5Check?5Failure?5?$CD?$CFd?5?9?5?$CFs?$AA@ 0000000180016cd0     MSVCRTD:error.obj
 0002:00001cf0       ??_C@_0CG@IAFNJNEE@Stack?5corrupted?5near?5unknown?5var@ 0000000180016cf0     MSVCRTD:error.obj
 0002:00001d18       ??_C@_05MKKEDADM@?$CF?42X?5?$AA@ 0000000180016d18     MSVCRTD:error.obj
 0002:00001d20       ??_C@_1BG@OILDLIOJ@?$AAu?$AAs?$AAe?$AAr?$AA3?$AA2?$AA?4?$AAd?$AAl?$AAl?$AA?$AA@ 0000000180016d20     MSVCRTD:error.obj
 0002:00001d38       ??_C@_09FOPFMPEJ@wsprintfA?$AA@ 0000000180016d38     MSVCRTD:error.obj
 0002:00001d50       ??_C@_0EJ@LJKNEOLN@Stack?5area?5around?5_alloca?5memory@ 0000000180016d50     MSVCRTD:error.obj
 0002:00001da0       ??_C@_08OMAHNMHJ@?6Data?3?5?$DM?$AA@ 0000000180016da0     MSVCRTD:error.obj
 0002:00001db0       ??_C@_0CK@DKGBICFE@?6Allocation?5number?5within?5this?5f@ 0000000180016db0     MSVCRTD:error.obj
 0002:00001de0       ??_C@_07DFDJCKFN@?6Size?3?5?$AA@ 0000000180016de0     MSVCRTD:error.obj
 0002:00001de8       ??_C@_0N@MHFFIMFG@?6Address?3?50x?$AA@ 0000000180016de8     MSVCRTD:error.obj
 0002:00001e00       ??_C@_0EI@CLEPFNGI@Stack?5area?5around?5_alloca?5memory@ 0000000180016e00     MSVCRTD:error.obj
 0002:00001e48       ??_C@_0BE@EJFBLEMJ@?$CFs?$CFs?$CFp?$CFs?$CFI64d?$CFs?$CFd?$CFs?$AA@ 0000000180016e48     MSVCRTD:error.obj
 0002:00001e5c       ??_C@_01EEMJAFIK@?6?$AA@   0000000180016e5c     MSVCRTD:error.obj
 0002:00001e60       ??_C@_02LLMPMKNF@?$DO?5?$AA@ 0000000180016e60     MSVCRTD:error.obj
 0002:00001e68       ??_C@_08KJEDNCKC@?$CFs?$CFs?$CFs?$CFs?$AA@ 0000000180016e68     MSVCRTD:error.obj
 0002:00001e78       ??_C@_0DE@OHJBPMBP@A?5variable?5is?5being?5used?5without@ 0000000180016e78     MSVCRTD:error.obj
 0002:00001ed8       ??_C@_0BJ@HEGAHDFO@Stack?5pointer?5corruption?$AA@ 0000000180016ed8     MSVCRTD:userapi.obj
 0002:00001ef8       ??_C@_0CK@FEGOIOPB@Cast?5to?5smaller?5type?5causing?5los@ 0000000180016ef8     MSVCRTD:userapi.obj
 0002:00001f28       ??_C@_0BI@CIGMDCBH@Stack?5memory?5corruption?$AA@ 0000000180016f28     MSVCRTD:userapi.obj
 0002:00001f40       ??_C@_0CK@CNLNOEPB@Local?5variable?5used?5before?5initi@ 0000000180016f40     MSVCRTD:userapi.obj
 0002:00001f70       ??_C@_0BP@OGBCLIBO@Stack?5around?5_alloca?5corrupted?$AA@ 0000000180016f70     MSVCRTD:userapi.obj
 0002:00001f90       ?ProcessDetach@NativeDll@<CrtImplementationDetails>@@0IB 0000000180016f90     MSVCRTD:initsect.obj
 0002:00001f94       ?ProcessAttach@NativeDll@<CrtImplementationDetails>@@0IB 0000000180016f94     MSVCRTD:initsect.obj
 0002:00001f98       ?ThreadAttach@NativeDll@<CrtImplementationDetails>@@0IB 0000000180016f98     MSVCRTD:initsect.obj
 0002:00001f9c       ?ThreadDetach@NativeDll@<CrtImplementationDetails>@@0IB 0000000180016f9c     MSVCRTD:initsect.obj
 0002:00001fa0       ?ProcessVerifier@NativeDll@<CrtImplementationDetails>@@0IB 0000000180016fa0     MSVCRTD:initsect.obj
 0002:00001fa4       ?value@?$integral_constant@_N$0A@@std@@2_NB 0000000180016fa4     MSVCRTD:tncleanup.obj
 0002:00001fa5       ?value@?$integral_constant@_N$00@std@@2_NB 0000000180016fa5     MSVCRTD:tncleanup.obj
 0002:00001fa8       ?LocalIdBitWidth@CrossScopeId@CodeViewInfo@@2IB 0000000180016fa8     MSVCRTD:pdblkup.obj
 0002:00001fac       ?IdScopeBitWidth@CrossScopeId@CodeViewInfo@@2IB 0000000180016fac     MSVCRTD:pdblkup.obj
 0002:00001fb0       ?StartCrossScopeId@CrossScopeId@CodeViewInfo@@2IB 0000000180016fb0     MSVCRTD:pdblkup.obj
 0002:00001fb4       ?LocalIdMask@CrossScopeId@CodeViewInfo@@2IB 0000000180016fb4     MSVCRTD:pdblkup.obj
 0002:00001fb8       ?ScopeIdMask@CrossScopeId@CodeViewInfo@@2IB 0000000180016fb8     MSVCRTD:pdblkup.obj
 0002:00001fbc       ?MaxLocalId@CrossScopeId@CodeViewInfo@@2IB 0000000180016fbc     MSVCRTD:pdblkup.obj
 0002:00001fc0       ?MaxScopeId@CrossScopeId@CodeViewInfo@@2IB 0000000180016fc0     MSVCRTD:pdblkup.obj
 0002:00002018       ??_C@_1BK@GAEMIDIL@?$AAA?$AAD?$AAV?$AAA?$AAP?$AAI?$AA3?$AA2?$AA?4?$AAD?$AAL?$AAL?$AA?$AA@ 0000000180017018     MSVCRTD:pdblkup.obj
 0002:00002038       ??_C@_0O@COHOBMLB@RegOpenKeyExW?$AA@ 0000000180017038     MSVCRTD:pdblkup.obj
 0002:00002048       ??_C@_0BB@GLNAEDBD@RegQueryValueExW?$AA@ 0000000180017048     MSVCRTD:pdblkup.obj
 0002:00002060       ??_C@_0M@HLOHPNFA@RegCloseKey?$AA@ 0000000180017060     MSVCRTD:pdblkup.obj
 0002:00002070       ??_C@_1HE@HOJOLGOA@?$AAS?$AAO?$AAF?$AAT?$AAW?$AAA?$AAR?$AAE?$AA?2?$AAW?$AAo?$AAw?$AA6?$AA4?$AA3?$AA2?$AAN?$AAo?$AAd?$AAe?$AA?2?$AAM?$AAi?$AAc?$AAr?$AAo?$AAs?$AAo?$AAf?$AAt?$AA?2?$AAV@ 0000000180017070     MSVCRTD:pdblkup.obj
 0002:000020e8       ??_C@_1BG@EABPBLLF@?$AAP?$AAr?$AAo?$AAd?$AAu?$AAc?$AAt?$AAD?$AAi?$AAr?$AA?$AA@ 00000001800170e8     MSVCRTD:pdblkup.obj
 0002:00002120       ??_C@_1BC@EOIMGOME@?$AAM?$AAS?$AAP?$AAD?$AAB?$AA1?$AA2?$AA0?$AA?$AA@ 0000000180017120     MSVCRTD:pdblkup.obj
 0002:00002138       ??_C@_0BB@KCIACLNC@PDBOpenValidate5?$AA@ 0000000180017138     MSVCRTD:pdblkup.obj
 0002:0000214c       ??_C@_01KDCPPGHE@r?$AA@    000000018001714c     MSVCRTD:pdblkup.obj
 0002:00002150       _load_config_used          0000000180017150     MSVCRTD:loadcfg.obj
 0002:00002218       __rtc_iaa                  0000000180017218     MSVCRTD:initsect.obj
 0002:000022e0       __rtc_izz                  00000001800172e0     MSVCRTD:initsect.obj
 0002:000022e8       __rtc_taa                  00000001800172e8     MSVCRTD:initsect.obj
 0002:000023b0       __rtc_tzz                  00000001800173b0     MSVCRTD:initsect.obj
 0002:000043c4       __IMPORT_DESCRIPTOR_WS2_32 00000001800193c4     ws2_32:WS2_32.dll
 0002:000043d8       __IMPORT_DESCRIPTOR_lib_acl_d 00000001800193d8     lib_acl_d:lib_acl_d.dll
 0002:000043ec       __IMPORT_DESCRIPTOR_MSVCR120D 00000001800193ec     MSVCRTD:MSVCR120D.dll
 0002:00004400       __IMPORT_DESCRIPTOR_KERNEL32 0000000180019400     kernel32:KERNEL32.dll
 0002:00004414       __NULL_IMPORT_DESCRIPTOR   0000000180019414     ws2_32:WS2_32.dll
 0003:00001948       var_http_buf_size          000000018001c948     http_init.obj
 0003:00001950       var_http_tls_cache         000000018001c950     http_init.obj
 0003:00004b00       __security_cookie          000000018001fb00     MSVCRTD:gs_cookie.obj
 0003:00004b08       __security_cookie_complement 000000018001fb08     MSVCRTD:gs_cookie.obj
 0003:00004b10       _fltused                   000000018001fb10     MSVCRTD:dllsupp.obj
 0003:00004b18       ?_RTC_ErrorLevels@@3PAHA   000000018001fb18     MSVCRTD:error.obj
 0003:00004b2c       __native_dllmain_reason    000000018001fb2c     MSVCRTD:natstart.obj
 0003:000050f8       ?wsprintffp@@3P6AHPEADPEBDZZEA 00000001800200f8     MSVCRTD:error.obj
 0003:00005110       ?__type_info_root_node@@3U__type_info_node@@A 0000000180020110     MSVCRTD:tncleanup.obj
 0003:0000512c       __@@_PchSym_@00@UglloUzxoUoryPkilglxloUwvyftwooUhgwzucOlyq@A4F228BF08499FCE 000000018002012c     <common>
 0003:00005130       __native_startup_lock      0000000180020130     <common>
 0003:00005138       __native_startup_state     0000000180020138     <common>
 0003:00005140       __dyn_tls_init_callback    0000000180020140     <common>
 0003:00005148       __onexitend                0000000180020148     <common>
 0003:00005150       __onexitbegin              0000000180020150     <common>

 entry point at        0001:000120b0

 Static symbols

 0000:fffdc000       .debug$S                   0000000180000000     MSVCRTD:MSVCR120D.dll
 0000:fffdc000       .debug$S                   0000000180000000     MSVCRTD:MSVCR120D.dll
 0000:fffdc000       .debug$S                   0000000180000000     MSVCRTD:MSVCR120D.dll
 0000:fffdc000       .debug$S                   0000000180000000     MSVCRTD:MSVCR120D.dll
 0000:fffdc000       .debug$S                   0000000180000000     MSVCRTD:MSVCR120D.dll
 0000:fffdc000       .debug$S                   0000000180000000     MSVCRTD:MSVCR120D.dll
 0000:fffdc000       .debug$S                   0000000180000000     MSVCRTD:MSVCR120D.dll
 0000:fffdc000       .debug$S                   0000000180000000     MSVCRTD:MSVCR120D.dll
 0000:fffdc000       .debug$S                   0000000180000000     MSVCRTD:MSVCR120D.dll
 0000:fffdc000       .debug$S                   0000000180000000     MSVCRTD:MSVCR120D.dll
 0000:fffdc000       .debug$S                   0000000180000000     MSVCRTD:MSVCR120D.dll
 0000:fffdc000       .debug$S                   0000000180000000     MSVCRTD:MSVCR120D.dll
 0000:fffdc000       .debug$S                   0000000180000000     MSVCRTD:MSVCR120D.dll
 0000:fffdc000       .debug$S                   0000000180000000     MSVCRTD:MSVCR120D.dll
 0000:fffdc000       .debug$S                   0000000180000000     MSVCRTD:MSVCR120D.dll
 0000:fffdc000       .debug$S                   0000000180000000     MSVCRTD:MSVCR120D.dll
 0000:fffdc000       .debug$S                   0000000180000000     MSVCRTD:MSVCR120D.dll
 0000:fffdc000       .debug$S                   0000000180000000     MSVCRTD:MSVCR120D.dll
 0000:fffdc000       .debug$S                   0000000180000000     MSVCRTD:MSVCR120D.dll
 0000:fffdc000       .debug$S                   0000000180000000     MSVCRTD:MSVCR120D.dll
 0000:fffdc000       .debug$S                   0000000180000000     MSVCRTD:MSVCR120D.dll
 0000:fffdc000       .debug$S                   0000000180000000     MSVCRTD:MSVCR120D.dll
 0000:fffdc000       .debug$S                   0000000180000000     MSVCRTD:MSVCR120D.dll
 0000:fffdc000       .debug$S                   0000000180000000     MSVCRTD:MSVCR120D.dll
 0000:fffdc000       .debug$S                   0000000180000000     MSVCRTD:MSVCR120D.dll
 0000:fffdc000       .debug$S                   0000000180000000     MSVCRTD:MSVCR120D.dll
 0000:fffdc000       .debug$S                   0000000180000000     MSVCRTD:MSVCR120D.dll
 0000:fffdc000       .debug$S                   0000000180000000     MSVCRTD:MSVCR120D.dll
 0000:fffdc000       .debug$S                   0000000180000000     MSVCRTD:MSVCR120D.dll
 0000:fffdc000       .debug$S                   0000000180000000     MSVCRTD:MSVCR120D.dll
 0000:fffdc000       .debug$S                   0000000180000000     MSVCRTD:MSVCR120D.dll
 0000:fffdc000       .debug$S                   0000000180000000     MSVCRTD:MSVCR120D.dll
 0000:fffdc000       .debug$S                   0000000180000000     MSVCRTD:MSVCR120D.dll
 0000:fffdc000       .debug$S                   0000000180000000     MSVCRTD:MSVCR120D.dll
 0000:fffdc000       .debug$S                   0000000180000000     MSVCRTD:MSVCR120D.dll
 0000:fffdc000       .debug$S                   0000000180000000     MSVCRTD:MSVCR120D.dll
 0000:fffdc000       .debug$S                   0000000180000000     MSVCRTD:MSVCR120D.dll
 0000:fffdc000       .debug$S                   0000000180000000     MSVCRTD:MSVCR120D.dll
 0000:fffdc000       .debug$S                   0000000180000000     MSVCRTD:MSVCR120D.dll
 0000:fffdc000       .debug$S                   0000000180000000     MSVCRTD:MSVCR120D.dll
 0000:fffdc000       .debug$S                   0000000180000000     MSVCRTD:MSVCR120D.dll
 0000:fffdc000       .debug$S                   0000000180000000     ws2_32:WS2_32.dll
 0000:fffdc000       .debug$S                   0000000180000000     ws2_32:WS2_32.dll
 0000:fffdc000       .debug$S                   0000000180000000     ws2_32:WS2_32.dll
 0000:fffdc000       .debug$S                   0000000180000000     ws2_32:WS2_32.dll
 0000:fffdc000       .debug$S                   0000000180000000     ws2_32:WS2_32.dll
 0000:fffdc000       .debug$S                   0000000180000000     lib_acl_d:lib_acl_d.dll
 0000:fffdc000       .debug$S                   0000000180000000     lib_acl_d:lib_acl_d.dll
 0000:fffdc000       .debug$S                   0000000180000000     lib_acl_d:lib_acl_d.dll
 0000:fffdc000       .debug$S                   0000000180000000     lib_acl_d:lib_acl_d.dll
 0000:fffdc000       .debug$S                   0000000180000000     lib_acl_d:lib_acl_d.dll
 0000:fffdc000       .debug$S                   0000000180000000     lib_acl_d:lib_acl_d.dll
 0000:fffdc000       .debug$S                   0000000180000000     lib_acl_d:lib_acl_d.dll
 0000:fffdc000       .debug$S                   0000000180000000     lib_acl_d:lib_acl_d.dll
 0000:fffdc000       .debug$S                   0000000180000000     lib_acl_d:lib_acl_d.dll
 0000:fffdc000       .debug$S                   0000000180000000     lib_acl_d:lib_acl_d.dll
 0000:fffdc000       .debug$S                   0000000180000000     lib_acl_d:lib_acl_d.dll
 0000:fffdc000       .debug$S                   0000000180000000     lib_acl_d:lib_acl_d.dll
 0000:fffdc000       .debug$S                   0000000180000000     lib_acl_d:lib_acl_d.dll
 0000:fffdc000       .debug$S                   0000000180000000     lib_acl_d:lib_acl_d.dll
 0000:fffdc000       .debug$S                   0000000180000000     lib_acl_d:lib_acl_d.dll
 0000:fffdc000       .debug$S                   0000000180000000     kernel32:KERNEL32.dll
 0000:fffdc000       .debug$S                   0000000180000000     kernel32:KERNEL32.dll
 0000:fffdc000       .debug$S                   0000000180000000     kernel32:KERNEL32.dll
 0000:fffdc000       .debug$S                   0000000180000000     kernel32:KERNEL32.dll
 0000:fffdc000       .debug$S                   0000000180000000     kernel32:KERNEL32.dll
 0000:fffdc000       .debug$S                   0000000180000000     kernel32:KERNEL32.dll
 0000:fffdc000       .debug$S                   0000000180000000     kernel32:KERNEL32.dll
 0000:fffdc000       .debug$S                   0000000180000000     kernel32:KERNEL32.dll
 0000:fffdc000       .debug$S                   0000000180000000     kernel32:KERNEL32.dll
 0000:fffdc000       .debug$S                   0000000180000000     kernel32:KERNEL32.dll
 0000:fffdc000       .debug$S                   0000000180000000     kernel32:KERNEL32.dll
 0000:fffdc000       .debug$S                   0000000180000000     kernel32:KERNEL32.dll
 0000:fffdc000       .debug$S                   0000000180000000     kernel32:KERNEL32.dll
 0000:fffdc000       .debug$S                   0000000180000000     kernel32:KERNEL32.dll
 0000:fffdc000       .debug$S                   0000000180000000     kernel32:KERNEL32.dll
 0000:fffdc000       .debug$S                   0000000180000000     kernel32:KERNEL32.dll
 0000:fffdc000       .debug$S                   0000000180000000     kernel32:KERNEL32.dll
 0000:fffdc000       .debug$S                   0000000180000000     kernel32:KERNEL32.dll
 0000:fffdc000       .debug$S                   0000000180000000     kernel32:KERNEL32.dll
 0000:fffdc000       .debug$S                   0000000180000000     kernel32:KERNEL32.dll
 0000:fffdc000       .debug$S                   0000000180000000     kernel32:KERNEL32.dll
 0000:fffdc000       .debug$S                   0000000180000000     kernel32:KERNEL32.dll
 0000:fffdc000       .debug$S                   0000000180000000     lib_acl_d:lib_acl_d.dll
 0000:fffdc000       .debug$S                   0000000180000000     lib_acl_d:lib_acl_d.dll
 0000:fffdc000       .debug$S                   0000000180000000     lib_acl_d:lib_acl_d.dll
 0000:fffdc000       .debug$S                   0000000180000000     lib_acl_d:lib_acl_d.dll
 0000:fffdc000       .debug$S                   0000000180000000     lib_acl_d:lib_acl_d.dll
 0000:fffdc000       .debug$S                   0000000180000000     lib_acl_d:lib_acl_d.dll
 0000:fffdc000       .debug$S                   0000000180000000     lib_acl_d:lib_acl_d.dll
 0000:fffdc000       .debug$S                   0000000180000000     lib_acl_d:lib_acl_d.dll
 0000:fffdc000       .debug$S                   0000000180000000     lib_acl_d:lib_acl_d.dll
 0000:fffdc000       .debug$S                   0000000180000000     lib_acl_d:lib_acl_d.dll
 0000:fffdc000       .debug$S                   0000000180000000     lib_acl_d:lib_acl_d.dll
 0000:fffdc000       .debug$S                   0000000180000000     lib_acl_d:lib_acl_d.dll
 0000:fffdc000       .debug$S                   0000000180000000     lib_acl_d:lib_acl_d.dll
 0000:fffdc000       .debug$S                   0000000180000000     lib_acl_d:lib_acl_d.dll
 0000:fffdc000       .debug$S                   0000000180000000     lib_acl_d:lib_acl_d.dll
 0000:fffdc000       .debug$S                   0000000180000000     lib_acl_d:lib_acl_d.dll
 0000:fffdc000       .debug$S                   0000000180000000     lib_acl_d:lib_acl_d.dll
 0000:fffdc000       .debug$S                   0000000180000000     lib_acl_d:lib_acl_d.dll
 0000:fffdc000       .debug$S                   0000000180000000     lib_acl_d:lib_acl_d.dll
 0000:fffdc000       .debug$S                   0000000180000000     lib_acl_d:lib_acl_d.dll
 0000:fffdc000       .debug$S                   0000000180000000     lib_acl_d:lib_acl_d.dll
 0000:fffdc000       .debug$S                   0000000180000000     lib_acl_d:lib_acl_d.dll
 0000:fffdc000       .debug$S                   0000000180000000     lib_acl_d:lib_acl_d.dll
 0000:fffdc000       .debug$S                   0000000180000000     lib_acl_d:lib_acl_d.dll
 0000:fffdc000       .debug$S                   0000000180000000     lib_acl_d:lib_acl_d.dll
 0000:fffdc000       .debug$S                   0000000180000000     lib_acl_d:lib_acl_d.dll
 0000:fffdc000       .debug$S                   0000000180000000     lib_acl_d:lib_acl_d.dll
 0000:fffdc000       .debug$S                   0000000180000000     lib_acl_d:lib_acl_d.dll
 0000:fffdc000       .debug$S                   0000000180000000     lib_acl_d:lib_acl_d.dll
 0000:fffdc000       .debug$S                   0000000180000000     lib_acl_d:lib_acl_d.dll
 0000:fffdc000       .debug$S                   0000000180000000     lib_acl_d:lib_acl_d.dll
 0000:fffdc000       .debug$S                   0000000180000000     lib_acl_d:lib_acl_d.dll
 0000:fffdc000       .debug$S                   0000000180000000     lib_acl_d:lib_acl_d.dll
 0000:fffdc000       .debug$S                   0000000180000000     lib_acl_d:lib_acl_d.dll
 0000:fffdc000       .debug$S                   0000000180000000     lib_acl_d:lib_acl_d.dll
 0000:fffdc000       .debug$S                   0000000180000000     lib_acl_d:lib_acl_d.dll
 0000:fffdc000       .debug$S                   0000000180000000     lib_acl_d:lib_acl_d.dll
 0000:fffdc000       .debug$S                   0000000180000000     lib_acl_d:lib_acl_d.dll
 0000:fffdc000       .debug$S                   0000000180000000     lib_acl_d:lib_acl_d.dll
 0000:fffdc000       .debug$S                   0000000180000000     lib_acl_d:lib_acl_d.dll
 0000:fffdc000       .debug$S                   0000000180000000     lib_acl_d:lib_acl_d.dll
 0000:fffdc000       .debug$S                   0000000180000000     lib_acl_d:lib_acl_d.dll
 0000:fffdc000       .debug$S                   0000000180000000     lib_acl_d:lib_acl_d.dll
 0000:fffdc000       .debug$S                   0000000180000000     lib_acl_d:lib_acl_d.dll
 0000:fffdc000       .debug$S                   0000000180000000     lib_acl_d:lib_acl_d.dll
 0000:fffdc000       .debug$S                   0000000180000000     lib_acl_d:lib_acl_d.dll
 0000:fffdc000       .debug$S                   0000000180000000     lib_acl_d:lib_acl_d.dll
 0000:fffdc000       .debug$S                   0000000180000000     lib_acl_d:lib_acl_d.dll
 0000:fffdc000       .debug$S                   0000000180000000     lib_acl_d:lib_acl_d.dll
 0000:fffdc000       .debug$S                   0000000180000000     lib_acl_d:lib_acl_d.dll
 0000:fffdc000       .debug$S                   0000000180000000     lib_acl_d:lib_acl_d.dll
 0000:fffdc000       .debug$S                   0000000180000000     lib_acl_d:lib_acl_d.dll
 0000:fffdc000       .debug$S                   0000000180000000     lib_acl_d:lib_acl_d.dll
 0000:fffdc000       .debug$S                   0000000180000000     lib_acl_d:lib_acl_d.dll
 0000:fffdc000       .debug$S                   0000000180000000     lib_acl_d:lib_acl_d.dll
 0000:fffdc000       .debug$S                   0000000180000000     lib_acl_d:lib_acl_d.dll
 0000:fffdc000       .debug$S                   0000000180000000     lib_acl_d:lib_acl_d.dll
 0000:fffdc000       .debug$S                   0000000180000000     lib_acl_d:lib_acl_d.dll
 0000:fffdc000       .debug$S                   0000000180000000     lib_acl_d:lib_acl_d.dll
 0000:fffdc000       .debug$S                   0000000180000000     lib_acl_d:lib_acl_d.dll
 0000:fffdc000       .debug$S                   0000000180000000     lib_acl_d:lib_acl_d.dll
 0000:fffdc000       .debug$S                   0000000180000000     lib_acl_d:lib_acl_d.dll
 0000:fffdc000       .debug$S                   0000000180000000     lib_acl_d:lib_acl_d.dll
 0000:fffdc000       .debug$S                   0000000180000000     lib_acl_d:lib_acl_d.dll
 0000:fffdc000       .debug$S                   0000000180000000     lib_acl_d:lib_acl_d.dll
 0000:fffdc000       .debug$S                   0000000180000000     lib_acl_d:lib_acl_d.dll
 0000:fffdc000       .debug$S                   0000000180000000     lib_acl_d:lib_acl_d.dll
 0000:fffdc000       .debug$S                   0000000180000000     lib_acl_d:lib_acl_d.dll
 0000:fffdc000       .debug$S                   0000000180000000     lib_acl_d:lib_acl_d.dll
 0000:fffdc000       .debug$S                   0000000180000000     lib_acl_d:lib_acl_d.dll
 0000:fffdc000       .debug$S                   0000000180000000     lib_acl_d:lib_acl_d.dll
 0000:fffdc000       .debug$S                   0000000180000000     lib_acl_d:lib_acl_d.dll
 0000:fffdc000       .debug$S                   0000000180000000     lib_acl_d:lib_acl_d.dll
 0000:fffdc000       .debug$S                   0000000180000000     lib_acl_d:lib_acl_d.dll
 0000:fffdc000       .debug$S                   0000000180000000     lib_acl_d:lib_acl_d.dll
 0000:fffdc000       .debug$S                   0000000180000000     lib_acl_d:lib_acl_d.dll
 0000:fffdc000       .debug$S                   0000000180000000     lib_acl_d:lib_acl_d.dll
 0001:000003f0       new_ctx                    00000001800013f0 f   http_chat_async.obj
 0001:00000490       free_ctx_fn                0000000180001490 f   http_chat_async.obj
 0001:000004f0       hdr_ready                  00000001800014f0 f   http_chat_async.obj
 0001:00000620       hdr_can_read               0000000180001620 f   http_chat_async.obj
 0001:000007f0       hdr_get_async              00000001800017f0 f   http_chat_async.obj
 0001:00000930       chunked_data_endl          0000000180001930 f   http_chat_async.obj
 0001:00000a40       chunked_data               0000000180001a40 f   http_chat_async.obj
 0001:00000df0       chunked_trailer            0000000180001df0 f   http_chat_async.obj
 0001:00000f60       chunked_hdr                0000000180001f60 f   http_chat_async.obj
 0001:000010f0       body_can_read              00000001800020f0 f   http_chat_async.obj
 0001:00001280       body_get                   0000000180002280 f   http_chat_async.obj
 0001:00001890       new_ctx                    0000000180002890 f   http_chat_sync.obj
 0001:00001960       free_ctx                   0000000180002960 f   http_chat_sync.obj
 0001:000019c0       hdr_ready                  00000001800029c0 f   http_chat_sync.obj
 0001:00001aa0       hdr_get                    0000000180002aa0 f   http_chat_sync.obj
 0001:00001ba0       chunked_data_get           0000000180002ba0 f   http_chat_sync.obj
 0001:00001da0       chunked_hdr_get            0000000180002da0 f   http_chat_sync.obj
 0001:00001f40       chunked_sep_gets           0000000180002f40 f   http_chat_sync.obj
 0001:00002030       chunked_trailer_get        0000000180003030 f   http_chat_sync.obj
 0001:00002160       body_get                   0000000180003160 f   http_chat_sync.obj
 0001:00003b60       __hdr_init                 0000000180004b60 f   http_hdr.obj
 0001:00003bc0       __get_hdr_entry            0000000180004bc0 f   http_hdr.obj
 0001:00003cc0       time                       0000000180004cc0 f   http_hdr_build.obj
 0001:00006470       __get_host_from_url        0000000180007470 f   http_hdr_req.obj
 0001:00006620       __hdr_init                 0000000180007620 f   http_hdr_req.obj
 0001:000067a0       __request_args_free_fn     00000001800077a0 f   http_hdr_req.obj
 0001:00006800       __cookies_args_free_fn     0000000180007800 f   http_hdr_req.obj
 0001:00006860       __hdr_free_member          0000000180007860 f   http_hdr_req.obj
 0001:00006980       __hdr_reset                0000000180007980 f   http_hdr_req.obj
 0001:00006f90       thread_cache_free          0000000180007f90 f   http_hdr_req.obj
 0001:00006ff0       main_cache_free            0000000180007ff0 f   http_hdr_req.obj
 0001:00007040       cache_init                 0000000180008040 f   http_hdr_req.obj
 0001:00007080       clone_table_entry          0000000180008080 f   http_hdr_req.obj
 0001:00007130       __add_cookie_item          0000000180008130 f   http_hdr_req.obj
 0001:00007450       __add_request_item         0000000180008450 f   http_hdr_req.obj
 0001:000075a0       __strip_url_path           00000001800085a0 f   http_hdr_req.obj
 0001:00007940       __parse_url_and_port       0000000180008940 f   http_hdr_req.obj
 0001:00008150       free_vstring               0000000180009150 f   http_hdr_req.obj
 0001:00008bf0       __hdr_init                 0000000180009bf0 f   http_hdr_res.obj
 0001:00008c10       thread_cache_free          0000000180009c10 f   http_hdr_res.obj
 0001:00008c70       main_cache_free            0000000180009c70 f   http_hdr_res.obj
 0001:00008cc0       thread_cache_init          0000000180009cc0 f   http_hdr_res.obj
 0001:00008d00       __hdr_free_member          0000000180009d00 f   http_hdr_res.obj
 0001:00009110       gmtime_s                   000000018000a110 f   http_rfc1123.obj
 0001:00009960       __load_tmpl                000000018000a960 f   http_tmpl.obj
 0001:0000b600       proc_on_exit               000000018000c600 f   icmp_chat.obj
 0001:0000b650       icmp_once                  000000018000c650 f   icmp_chat.obj
 0001:0000b940       delay_send_pkt             000000018000c940 f   icmp_chat_aio.obj
 0001:0000b9e0       read_close_fn              000000018000c9e0 f   icmp_chat_aio.obj
 0001:0000ba70       read_ready_fn              000000018000ca70 f   icmp_chat_aio.obj
 0001:0000bd80       check_timer                000000018000cd80 f   icmp_chat_aio.obj
 0001:0000bf20       send_pkt                   000000018000cf20 f   icmp_chat_aio.obj
 0001:0000c110       delay_send_timer           000000018000d110 f   icmp_chat_aio.obj
 0001:0000c170       timeout_fn                 000000018000d170 f   icmp_chat_aio.obj
 0001:0000c1d0       write_ready_fn             000000018000d1d0 f   icmp_chat_aio.obj
 0001:0000c230       icmp_rset                  000000018000d230 f   icmp_chat_aio.obj
 0001:0000c430       read_pkt                   000000018000d430 f   icmp_chat_sio.obj
 0001:0000c710       send_pkt                   000000018000d710 f   icmp_chat_sio.obj
 0001:0000d8b0       checksum                   000000018000e8b0 f   icmp_pkt.obj
 0001:0000d970       icmp_hdr_pack              000000018000e970 f   icmp_pkt.obj
 0001:0000de60       icmp_rtt_compute           000000018000ee60 f   icmp_stat.obj
 0001:0000ded0       icmp_status                000000018000eed0 f   icmp_stat.obj
 0001:0000e600       icmp_read                  000000018000f600 f   icmp_stream.obj
 0001:0000e6c0       icmp_write                 000000018000f6c0 f   icmp_stream.obj
 0001:0000e740       time                       000000018000f740 f   icmp_timer.obj
 0001:0000e880       timer_request              000000018000f880 f   icmp_timer.obj
 0001:0000ea20       timer_cancel               000000018000fa20 f   icmp_timer.obj
 0001:0000eb50       timer_find_delete          000000018000fb50 f   icmp_timer.obj
 0001:0000ec80       timer_popup                000000018000fc80 f   icmp_timer.obj
 0001:00010eb0       smtp_ehlo_flag             0000000180011eb0 f   smtp_client.obj
 0001:00011670       $$000000                   0000000180012670     MSVCRTD:chkstk.obj
 0001:000116d0       $$000000                   00000001800126d0     MSVCRTD:amdsecgs.obj
 0001:00011c60       pre_c_init                 0000000180012c60 f   MSVCRTD:crtdll.obj
 0001:000120f0       __DllMainCRTStartup        00000001800130f0 f   MSVCRTD:crtdll.obj
 0001:00012270       ?DebuggerProbe@@YAHK@Z     0000000180013270 f   MSVCRTD:error.obj
 0001:000122c0       ?DebuggerRuntime@@YAHKHPEAXPEB_W@Z 00000001800132c0 f   MSVCRTD:error.obj
 0001:00012650       ?_getMemBlockDataString@@YAXPEAD00_K@Z 0000000180013650 f   MSVCRTD:error.obj
 0001:00012700       ?_strlen_priv@@YA_KPEBD@Z  0000000180013700 f   MSVCRTD:error.obj
 0001:00012720       ?failwithmessage@@YAXPEAXHHPEBD@Z 0000000180013720 f   MSVCRTD:error.obj
 0001:00012f90       ?GetPdbDll@@YAPEAUHINSTANCE__@@XZ 0000000180013f90 f   MSVCRTD:pdblkup.obj
 0001:000130e0       ?GetPdbDllFromInstallPath@@YAPEAUHINSTANCE__@@XZ 00000001800140e0 f   MSVCRTD:pdblkup.obj
 0001:00013340       ?GetPdbDllPathFromFilePath@@YAHPEB_WPEA_W_K@Z 0000000180014340 f   MSVCRTD:pdblkup.obj
 0001:00013880       _onexit$fin$0              0000000180014880 f   MSVCRTD:atonexit.obj
 0001:000138a0       __DllMainCRTStartup$filt$0 00000001800148a0 f   MSVCRTD:crtdll.obj
 0001:000138d0       __DllMainCRTStartup$fin$1  00000001800148d0 f   MSVCRTD:crtdll.obj
 0001:000138f0       ?filt$0@?0??DebuggerProbe@@YAHK@Z@4HA 00000001800148f0 f   MSVCRTD:error.obj
 0001:00013910       ?filt$0@?0??DebuggerRuntime@@YAHKHPEAXPEB_W@Z@4HA 0000000180014910 f   MSVCRTD:error.obj
 0001:00013930       _IsNonwritableInCurrentImage$filt$0 0000000180014930 f   MSVCRTD:pesect.obj
 0002:00000538       pcinit                     0000000180015538     MSVCRTD:crtdll.obj
 0002:00000540       pinit                      0000000180015540     MSVCRTD:atonexit.obj
 0002:00000590       chunked_data$rtcName$0     0000000180015590     http_chat_async.obj
 0002:000005a0       chunked_data$rtcVarDesc    00000001800155a0     http_chat_async.obj
 0002:000005e0       chunked_data$rtcFrameData  00000001800155e0     http_chat_async.obj
 0002:000005f0       http_chat_sync_reqctl$rtcName$0 00000001800155f0     http_chat_sync.obj
 0002:00000600       http_chat_sync_reqctl$rtcVarDesc 0000000180015600     http_chat_sync.obj
 0002:00000640       http_chat_sync_reqctl$rtcFrameData 0000000180015640     http_chat_sync.obj
 0002:00000650       http_chat_sync_resctl$rtcName$0 0000000180015650     http_chat_sync.obj
 0002:00000658       http_chat_sync_resctl$rtcFrameData 0000000180015658     http_chat_sync.obj
 0002:00000668       new_ctx$rtcName$0          0000000180015668     http_chat_sync.obj
 0002:00000670       http_chat_sync_resctl$rtcVarDesc 0000000180015670     http_chat_sync.obj
 0002:000006b0       new_ctx$rtcVarDesc         00000001800156b0     http_chat_sync.obj
 0002:000006f0       new_ctx$rtcFrameData       00000001800156f0     http_chat_sync.obj
 0002:00000700       hdr_get$rtcName$0          0000000180015700     http_chat_sync.obj
 0002:00000704       chunked_hdr_get$rtcName$0  0000000180015704     http_chat_sync.obj
 0002:00000708       chunked_hdr_get$rtcName$1  0000000180015708     http_chat_sync.obj
 0002:00000710       hdr_get$rtcVarDesc         0000000180015710     http_chat_sync.obj
 0002:00000750       hdr_get$rtcFrameData       0000000180015750     http_chat_sync.obj
 0002:00000760       chunked_hdr_get$rtcName$2  0000000180015760     http_chat_sync.obj
 0002:00000770       chunked_hdr_get$rtcVarDesc 0000000180015770     http_chat_sync.obj
 0002:00000830       chunked_hdr_get$rtcFrameData 0000000180015830     http_chat_sync.obj
 0002:00000840       chunked_sep_gets$rtcName$0 0000000180015840     http_chat_sync.obj
 0002:00000844       chunked_trailer_get$rtcName$0 0000000180015844     http_chat_sync.obj
 0002:00000850       chunked_sep_gets$rtcVarDesc 0000000180015850     http_chat_sync.obj
 0002:00000890       chunked_sep_gets$rtcFrameData 0000000180015890     http_chat_sync.obj
 0002:000008a0       chunked_trailer_get$rtcVarDesc 00000001800158a0     http_chat_sync.obj
 0002:000008e0       chunked_trailer_get$rtcFrameData 00000001800158e0     http_chat_sync.obj
 0002:000008f0       ?header_list@?1??http_hdr_parse@@9@9 00000001800158f0     http_hdr.obj
 0002:00000910       http_hdr_parse$rtcName$0   0000000180015910     http_hdr.obj
 0002:00000920       http_hdr_parse$rtcVarDesc  0000000180015920     http_hdr.obj
 0002:00000960       http_hdr_parse$rtcFrameData 0000000180015960     http_hdr.obj
 0002:00000970       http_hdr_entry_new$rtcName$0 0000000180015970     http_hdr.obj
 0002:00000980       http_hdr_entry_new$rtcVarDesc 0000000180015980     http_hdr.obj
 0002:000009c0       http_hdr_entry_new$rtcFrameData 00000001800159c0     http_hdr.obj
 0002:000009d0       __get_hdr_entry$rtcName$0  00000001800159d0     http_hdr.obj
 0002:000009d8       __get_hdr_entry$rtcFrameData 00000001800159d8     http_hdr.obj
 0002:000009f0       __get_hdr_entry$rtcVarDesc 00000001800159f0     http_hdr.obj
 0002:00000a30       http_hdr_put_int$rtcName$0 0000000180015a30     http_hdr_build.obj
 0002:00000a34       http_hdr_put_fmt$rtcName$0 0000000180015a34     http_hdr_build.obj
 0002:00000a40       http_hdr_put_int$rtcVarDesc 0000000180015a40     http_hdr_build.obj
 0002:00000a80       http_hdr_put_int$rtcFrameData 0000000180015a80     http_hdr_build.obj
 0002:00000a90       http_hdr_put_fmt$rtcName$1 0000000180015a90     http_hdr_build.obj
 0002:00000a94       http_hdr_put_fmt$rtcName$2 0000000180015a94     http_hdr_build.obj
 0002:00000aa0       http_hdr_put_fmt$rtcVarDesc 0000000180015aa0     http_hdr_build.obj
 0002:00000b60       http_hdr_put_fmt$rtcFrameData 0000000180015b60     http_hdr_build.obj
 0002:00000b70       http_hdr_put_time$rtcName$0 0000000180015b70     http_hdr_build.obj
 0002:00000b80       http_hdr_put_time$rtcVarDesc 0000000180015b80     http_hdr_build.obj
 0002:00000bc0       http_hdr_put_time$rtcFrameData 0000000180015bc0     http_hdr_build.obj
 0002:00000bd0       http_hdr_req_create$rtcName$0 0000000180015bd0     http_hdr_req.obj
 0002:00000be0       http_hdr_req_create$rtcVarDesc 0000000180015be0     http_hdr_req.obj
 0002:00000c20       http_hdr_req_create$rtcFrameData 0000000180015c20     http_hdr_req.obj
 0002:00000c30       http_hdr_req_rewrite2$rtcName$0 0000000180015c30     http_hdr_req.obj
 0002:00000c38       http_hdr_req_rewrite2$rtcFrameData 0000000180015c38     http_hdr_req.obj
 0002:00000c48       http_hdr_req_cookies_parse$rtcName$0 0000000180015c48     http_hdr_req.obj
 0002:00000c50       http_hdr_req_rewrite2$rtcVarDesc 0000000180015c50     http_hdr_req.obj
 0002:00000c90       http_hdr_req_cookies_parse$rtcVarDesc 0000000180015c90     http_hdr_req.obj
 0002:00000cd0       http_hdr_req_cookies_parse$rtcFrameData 0000000180015cd0     http_hdr_req.obj
 0002:00000ce0       http_hdr_req_range$rtcName$0 0000000180015ce0     http_hdr_req.obj
 0002:00000ce4       __strip_url_path$rtcName$0 0000000180015ce4     http_hdr_req.obj
 0002:00000cf0       http_hdr_req_range$rtcVarDesc 0000000180015cf0     http_hdr_req.obj
 0002:00000d30       http_hdr_req_range$rtcFrameData 0000000180015d30     http_hdr_req.obj
 0002:00000d40       __strip_url_path$rtcVarDesc 0000000180015d40     http_hdr_req.obj
 0002:00000d80       __strip_url_path$rtcFrameData 0000000180015d80     http_hdr_req.obj
 0002:00000d90       http_hdr_res_status_parse$rtcName$0 0000000180015d90     http_hdr_res.obj
 0002:00000da0       http_hdr_res_status_parse$rtcVarDesc 0000000180015da0     http_hdr_res.obj
 0002:00000de0       http_hdr_res_status_parse$rtcFrameData 0000000180015de0     http_hdr_res.obj
 0002:00000df0       http_hdr_res_parse$rtcName$0 0000000180015df0     http_hdr_res.obj
 0002:00000df4       http_hdr_res_range$rtcName$0 0000000180015df4     http_hdr_res.obj
 0002:00000e00       http_hdr_res_parse$rtcVarDesc 0000000180015e00     http_hdr_res.obj
 0002:00000e40       http_hdr_res_parse$rtcFrameData 0000000180015e40     http_hdr_res.obj
 0002:00000e50       http_hdr_res_range$rtcVarDesc 0000000180015e50     http_hdr_res.obj
 0002:00000e90       http_hdr_res_range$rtcFrameData 0000000180015e90     http_hdr_res.obj
 0002:00000ea0       http_req_new$rtcName$0     0000000180015ea0     http_req.obj
 0002:00000ea8       http_req_new$rtcName$1     0000000180015ea8     http_req.obj
 0002:00000eb0       http_req_new$rtcVarDesc    0000000180015eb0     http_req.obj
 0002:00000f30       http_req_new$rtcFrameData  0000000180015f30     http_req.obj
 0002:00000f40       http_res_new$rtcName$0     0000000180015f40     http_res.obj
 0002:00000f48       http_res_new$rtcName$1     0000000180015f48     http_res.obj
 0002:00000f50       http_res_new$rtcVarDesc    0000000180015f50     http_res.obj
 0002:00000fd0       http_res_new$rtcFrameData  0000000180015fd0     http_res.obj
 0002:00000fe0       http_mkrfc1123$rtcName$0   0000000180015fe0     http_rfc1123.obj
 0002:00000ff0       http_mkrfc1123$rtcVarDesc  0000000180015ff0     http_rfc1123.obj
 0002:00001030       http_mkrfc1123$rtcFrameData 0000000180016030     http_rfc1123.obj
 0002:00001040       http_tmpl_load$rtcName$0   0000000180016040     http_tmpl.obj
 0002:00001050       http_tmpl_load$rtcVarDesc  0000000180016050     http_tmpl.obj
 0002:00001090       http_tmpl_load$rtcFrameData 0000000180016090     http_tmpl.obj
 0002:000010a0       __load_tmpl$rtcName$0      00000001800160a0     http_tmpl.obj
 0002:000010a8       __load_tmpl$rtcName$1      00000001800160a8     http_tmpl.obj
 0002:000010b0       __load_tmpl$rtcVarDesc     00000001800160b0     http_tmpl.obj
 0002:00001130       __load_tmpl$rtcFrameData   0000000180016130     http_tmpl.obj
 0002:00001140       http_util_set_req_content_length$rtcName$0 0000000180016140     http_util.obj
 0002:00001144       http_util_set_req_keep_alive$rtcName$0 0000000180016144     http_util.obj
 0002:00001148       http_util_dump_url$rtcName$0 0000000180016148     http_util.obj
 0002:0000114c       http_util_dump_url_to_stream$rtcName$0 000000018001614c     http_util.obj
 0002:00001150       http_util_set_req_content_length$rtcVarDesc 0000000180016150     http_util.obj
 0002:00001190       http_util_set_req_content_length$rtcFrameData 0000000180016190     http_util.obj
 0002:000011a0       http_util_set_req_keep_alive$rtcVarDesc 00000001800161a0     http_util.obj
 0002:000011e0       http_util_set_req_keep_alive$rtcFrameData 00000001800161e0     http_util.obj
 0002:000011f0       http_util_dump_url$rtcVarDesc 00000001800161f0     http_util.obj
 0002:00001230       http_util_dump_url$rtcFrameData 0000000180016230     http_util.obj
 0002:00001240       http_util_dump_url_to_stream$rtcVarDesc 0000000180016240     http_util.obj
 0002:00001280       http_util_dump_url_to_stream$rtcFrameData 0000000180016280     http_util.obj
 0002:00001290       read_ready_fn$rtcName$0    0000000180016290     icmp_chat_aio.obj
 0002:000012a0       read_ready_fn$rtcVarDesc   00000001800162a0     icmp_chat_aio.obj
 0002:000012e0       read_ready_fn$rtcFrameData 00000001800162e0     icmp_chat_aio.obj
 0002:000012f0       read_pkt$rtcName$0         00000001800162f0     icmp_chat_sio.obj
 0002:000012f4       read_pkt$rtcName$1         00000001800162f4     icmp_chat_sio.obj
 0002:000012f8       read_pkt$rtcName$2         00000001800162f8     icmp_chat_sio.obj
 0002:00001300       read_pkt$rtcName$3         0000000180016300     icmp_chat_sio.obj
 0002:00001310       read_pkt$rtcVarDesc        0000000180016310     icmp_chat_sio.obj
 0002:00001410       read_pkt$rtcFrameData      0000000180016410     icmp_chat_sio.obj
 0002:00001430       stamp_sub$rtcName$0        0000000180016430     icmp_stat.obj
 0002:00001434       icmp_rtt_compute$rtcName$0 0000000180016434     icmp_stat.obj
 0002:00001440       stamp_sub$rtcVarDesc       0000000180016440     icmp_stat.obj
 0002:00001480       stamp_sub$rtcFrameData     0000000180016480     icmp_stat.obj
 0002:00001490       icmp_rtt_compute$rtcVarDesc 0000000180016490     icmp_stat.obj
 0002:000014d0       icmp_rtt_compute$rtcFrameData 00000001800164d0     icmp_stat.obj
 0002:00001500       timer_request$rtcName$0    0000000180016500     icmp_timer.obj
 0002:00001510       timer_request$rtcVarDesc   0000000180016510     icmp_timer.obj
 0002:00001550       timer_request$rtcFrameData 0000000180016550     icmp_timer.obj
 0002:00001560       timer_cancel$rtcName$0     0000000180016560     icmp_timer.obj
 0002:00001568       timer_cancel$rtcFrameData  0000000180016568     icmp_timer.obj
 0002:00001578       timer_find_delete$rtcName$0 0000000180016578     icmp_timer.obj
 0002:00001580       timer_cancel$rtcVarDesc    0000000180016580     icmp_timer.obj
 0002:000015c0       timer_find_delete$rtcVarDesc 00000001800165c0     icmp_timer.obj
 0002:00001600       timer_find_delete$rtcFrameData 0000000180016600     icmp_timer.obj
 0002:00001610       proto_secure_snprintf$rtcName$0 0000000180016610     proto_snprintf.obj
 0002:00001620       proto_secure_snprintf$rtcVarDesc 0000000180016620     proto_snprintf.obj
 0002:00001660       proto_secure_snprintf$rtcFrameData 0000000180016660     proto_snprintf.obj
 0002:00001670       smtp_printf$rtcName$0      0000000180016670     smtp_client.obj
 0002:00001680       smtp_printf$rtcVarDesc     0000000180016680     smtp_client.obj
 0002:000016c0       smtp_printf$rtcFrameData   00000001800166c0     smtp_client.obj
 0002:000016d0       GS_ExceptionPointers       00000001800166d0     MSVCRTD:gs_report.obj
 0002:00001878       _RTC_ErrorMessages         0000000180016878     MSVCRTD:error.obj
 0002:000018a8       _RTC_NoFalsePositives      00000001800168a8     MSVCRTD:error.obj
 0002:000018c0       stack_premsg               00000001800168c0     MSVCRTD:error.obj
 0002:000018e0       stack_postmsg              00000001800168e0     MSVCRTD:error.obj
 0002:000018f8       uninit_premsg              00000001800168f8     MSVCRTD:error.obj
 0002:00001908       uninit_postmsg             0000000180016908     MSVCRTD:error.obj
 0002:00001eb0       _RTC_errlist               0000000180016eb0     MSVCRTD:userapi.obj
 0002:00001fc8       mspdbName                  0000000180016fc8     MSVCRTD:pdblkup.obj
 0002:00001ff8       msvcrdFilename             0000000180016ff8     MSVCRTD:pdblkup.obj
 0002:00002100       ?dllExt@?1??GetPdbDllPathFromFilePath@@YAHPEB_WPEA_W_K@Z@4QB_WB 0000000180017100     MSVCRTD:pdblkup.obj
 0002:00002108       ?mspdbFilename@?1??GetPdbDllPathFromFilePath@@YAHPEB_WPEA_W_K@Z@4QB_WB 0000000180017108     MSVCRTD:pdblkup.obj
 0002:00002220       _RTC_InitBase.rtc$IMZ      0000000180017220     http_chat_async.obj
 0002:00002228       _RTC_InitBase.rtc$IMZ      0000000180017228     http_chat_sync.obj
 0002:00002230       _RTC_InitBase.rtc$IMZ      0000000180017230     http_hdr.obj
 0002:00002238       _RTC_InitBase.rtc$IMZ      0000000180017238     http_hdr_build.obj
 0002:00002240       _RTC_InitBase.rtc$IMZ      0000000180017240     http_hdr_req.obj
 0002:00002248       _RTC_InitBase.rtc$IMZ      0000000180017248     http_hdr_res.obj
 0002:00002250       _RTC_InitBase.rtc$IMZ      0000000180017250     http_init.obj
 0002:00002258       _RTC_InitBase.rtc$IMZ      0000000180017258     http_req.obj
 0002:00002260       _RTC_InitBase.rtc$IMZ      0000000180017260     http_res.obj
 0002:00002268       _RTC_InitBase.rtc$IMZ      0000000180017268     http_rfc1123.obj
 0002:00002270       _RTC_InitBase.rtc$IMZ      0000000180017270     http_status.obj
 0002:00002278       _RTC_InitBase.rtc$IMZ      0000000180017278     http_tmpl.obj
 0002:00002280       _RTC_InitBase.rtc$IMZ      0000000180017280     http_util.obj
 0002:00002288       _RTC_InitBase.rtc$IMZ      0000000180017288     icmp_chat.obj
 0002:00002290       _RTC_InitBase.rtc$IMZ      0000000180017290     icmp_chat_aio.obj
 0002:00002298       _RTC_InitBase.rtc$IMZ      0000000180017298     icmp_chat_sio.obj
 0002:000022a0       _RTC_InitBase.rtc$IMZ      00000001800172a0     icmp_host.obj
 0002:000022a8       _RTC_InitBase.rtc$IMZ      00000001800172a8     icmp_ping.obj
 0002:000022b0       _RTC_InitBase.rtc$IMZ      00000001800172b0     icmp_pkt.obj
 0002:000022b8       _RTC_InitBase.rtc$IMZ      00000001800172b8     icmp_stat.obj
 0002:000022c0       _RTC_InitBase.rtc$IMZ      00000001800172c0     icmp_stream.obj
 0002:000022c8       _RTC_InitBase.rtc$IMZ      00000001800172c8     icmp_timer.obj
 0002:000022d0       _RTC_InitBase.rtc$IMZ      00000001800172d0     proto_snprintf.obj
 0002:000022d8       _RTC_InitBase.rtc$IMZ      00000001800172d8     smtp_client.obj
 0002:000022f0       _RTC_Shutdown.rtc$TMZ      00000001800172f0     http_chat_async.obj
 0002:000022f8       _RTC_Shutdown.rtc$TMZ      00000001800172f8     http_chat_sync.obj
 0002:00002300       _RTC_Shutdown.rtc$TMZ      0000000180017300     http_hdr.obj
 0002:00002308       _RTC_Shutdown.rtc$TMZ      0000000180017308     http_hdr_build.obj
 0002:00002310       _RTC_Shutdown.rtc$TMZ      0000000180017310     http_hdr_req.obj
 0002:00002318       _RTC_Shutdown.rtc$TMZ      0000000180017318     http_hdr_res.obj
 0002:00002320       _RTC_Shutdown.rtc$TMZ      0000000180017320     http_init.obj
 0002:00002328       _RTC_Shutdown.rtc$TMZ      0000000180017328     http_req.obj
 0002:00002330       _RTC_Shutdown.rtc$TMZ      0000000180017330     http_res.obj
 0002:00002338       _RTC_Shutdown.rtc$TMZ      0000000180017338     http_rfc1123.obj
 0002:00002340       _RTC_Shutdown.rtc$TMZ      0000000180017340     http_status.obj
 0002:00002348       _RTC_Shutdown.rtc$TMZ      0000000180017348     http_tmpl.obj
 0002:00002350       _RTC_Shutdown.rtc$TMZ      0000000180017350     http_util.obj
 0002:00002358       _RTC_Shutdown.rtc$TMZ      0000000180017358     icmp_chat.obj
 0002:00002360       _RTC_Shutdown.rtc$TMZ      0000000180017360     icmp_chat_aio.obj
 0002:00002368       _RTC_Shutdown.rtc$TMZ      0000000180017368     icmp_chat_sio.obj
 0002:00002370       _RTC_Shutdown.rtc$TMZ      0000000180017370     icmp_host.obj
 0002:00002378       _RTC_Shutdown.rtc$TMZ      0000000180017378     icmp_ping.obj
 0002:00002380       _RTC_Shutdown.rtc$TMZ      0000000180017380     icmp_pkt.obj
 0002:00002388       _RTC_Shutdown.rtc$TMZ      0000000180017388     icmp_stat.obj
 0002:00002390       _RTC_Shutdown.rtc$TMZ      0000000180017390     icmp_stream.obj
 0002:00002398       _RTC_Shutdown.rtc$TMZ      0000000180017398     icmp_timer.obj
 0002:000023a0       _RTC_Shutdown.rtc$TMZ      00000001800173a0     proto_snprintf.obj
 0002:000023a8       _RTC_Shutdown.rtc$TMZ      00000001800173a8     smtp_client.obj
 0002:000023b8       $unwind$http_hdr_req_get_async 00000001800173b8     http_chat_async.obj
 0002:000023c0       $unwind$http_hdr_res_get_async 00000001800173c0     http_chat_async.obj
 0002:000023c8       $unwind$http_req_body_get_async 00000001800173c8     http_chat_async.obj
 0002:000023d0       $unwind$http_res_body_get_async 00000001800173d0     http_chat_async.obj
 0002:000023d8       $unwind$new_ctx            00000001800173d8     http_chat_async.obj
 0002:000023e0       $unwind$free_ctx_fn        00000001800173e0     http_chat_async.obj
 0002:000023e8       $unwind$hdr_ready          00000001800173e8     http_chat_async.obj
 0002:000023f0       $unwind$hdr_can_read       00000001800173f0     http_chat_async.obj
 0002:000023f8       $unwind$hdr_get_async      00000001800173f8     http_chat_async.obj
 0002:00002400       $unwind$chunked_data_endl  0000000180017400     http_chat_async.obj
 0002:00002408       $unwind$chunked_data       0000000180017408     http_chat_async.obj
 0002:00002414       $unwind$chunked_trailer    0000000180017414     http_chat_async.obj
 0002:0000241c       $unwind$chunked_hdr        000000018001741c     http_chat_async.obj
 0002:00002424       $unwind$body_can_read      0000000180017424     http_chat_async.obj
 0002:0000242c       $unwind$body_get           000000018001742c     http_chat_async.obj
 0002:00002434       $unwind$http_hdr_req_get_sync 0000000180017434     http_chat_sync.obj
 0002:0000243c       $unwind$http_hdr_res_get_sync 000000018001743c     http_chat_sync.obj
 0002:00002444       $unwind$http_req_body_get_sync 0000000180017444     http_chat_sync.obj
 0002:0000244c       $unwind$http_res_body_get_sync 000000018001744c     http_chat_sync.obj
 0002:00002454       $unwind$http_chat_sync_reqctl 0000000180017454     http_chat_sync.obj
 0002:0000245c       $unwind$http_chat_sync_resctl 000000018001745c     http_chat_sync.obj
 0002:00002464       $unwind$new_ctx            0000000180017464     http_chat_sync.obj
 0002:00002478       $unwind$free_ctx           0000000180017478     http_chat_sync.obj
 0002:00002480       $unwind$hdr_ready          0000000180017480     http_chat_sync.obj
 0002:00002488       $unwind$hdr_get            0000000180017488     http_chat_sync.obj
 0002:0000249c       $unwind$chunked_data_get   000000018001749c     http_chat_sync.obj
 0002:000024a4       $unwind$chunked_hdr_get    00000001800174a4     http_chat_sync.obj
 0002:000024b8       $unwind$chunked_sep_gets   00000001800174b8     http_chat_sync.obj
 0002:000024cc       $unwind$chunked_trailer_get 00000001800174cc     http_chat_sync.obj
 0002:000024e0       $unwind$body_get           00000001800174e0     http_chat_sync.obj
 0002:000024e8       $unwind$http_hdr_new       00000001800174e8     http_hdr.obj
 0002:000024f0       $unwind$http_hdr_clone     00000001800174f0     http_hdr.obj
 0002:000024f8       $unwind$http_hdr_free      00000001800174f8     http_hdr.obj
 0002:00002500       $unwind$http_hdr_reset     0000000180017500     http_hdr.obj
 0002:00002508       $unwind$http_hdr_append_entry 0000000180017508     http_hdr.obj
 0002:00002510       $unwind$http_hdr_parse_version 0000000180017510     http_hdr.obj
 0002:00002518       $unwind$http_hdr_parse     0000000180017518     http_hdr.obj
 0002:00002520       $unwind$http_hdr_entry_build 0000000180017520     http_hdr.obj
 0002:00002528       $unwind$http_hdr_entry_new 0000000180017528     http_hdr.obj
 0002:0000253c       $unwind$http_hdr_entry_head 000000018001753c     http_hdr.obj
 0002:00002544       $unwind$http_hdr_entry_new2 0000000180017544     http_hdr.obj
 0002:0000254c       $unwind$http_hdr_entry     000000018001754c     http_hdr.obj
 0002:00002554       $unwind$http_hdr_entry_value 0000000180017554     http_hdr.obj
 0002:0000255c       $unwind$http_hdr_entry_replace 000000018001755c     http_hdr.obj
 0002:00002564       $unwind$http_hdr_entry_replace2 0000000180017564     http_hdr.obj
 0002:0000256c       $unwind$http_hdr_entry_off 000000018001756c     http_hdr.obj
 0002:00002574       $unwind$http_hdr_print     0000000180017574     http_hdr.obj
 0002:0000257c       $unwind$http_hdr_fprint    000000018001757c     http_hdr.obj
 0002:00002584       $unwind$http_hdr_sprint    0000000180017584     http_hdr.obj
 0002:0000258c       $unwind$__hdr_init         000000018001758c     http_hdr.obj
 0002:00002594       $unwind$__get_hdr_entry    0000000180017594     http_hdr.obj
 0002:0000259c       $unwind$time               000000018001759c     http_hdr_build.obj
 0002:000025a4       $unwind$http_hdr_put_str   00000001800175a4     http_hdr_build.obj
 0002:000025ac       $unwind$http_hdr_put_int   00000001800175ac     http_hdr_build.obj
 0002:000025bc       $unwind$http_hdr_put_fmt   00000001800175bc     http_hdr_build.obj
 0002:000025d0       $unwind$http_hdr_put_time  00000001800175d0     http_hdr_build.obj
 0002:000025e4       $unwind$http_hdr_set_keepalive 00000001800175e4     http_hdr_build.obj
 0002:000025ec       $unwind$http_hdr_res_init  00000001800175ec     http_hdr_build.obj
 0002:000025f4       $unwind$http_hdr_res_static 00000001800175f4     http_hdr_build.obj
 0002:000025fc       $unwind$http_hdr_res_error 00000001800175fc     http_hdr_build.obj
 0002:00002604       $unwind$http_hdr_build     0000000180017604     http_hdr_build.obj
 0002:0000260c       $unwind$http_hdr_build_request 000000018001760c     http_hdr_build.obj
 0002:00002614       $unwind$http_uri_correct   0000000180017614     http_hdr_req.obj
 0002:0000261c       $unwind$http_hdr_req_new   000000018001761c     http_hdr_req.obj
 0002:00002624       $unwind$http_hdr_req_create 0000000180017624     http_hdr_req.obj
 0002:00002638       $unwind$http_hdr_req_clone 0000000180017638     http_hdr_req.obj
 0002:00002640       $unwind$http_hdr_req_rewrite 0000000180017640     http_hdr_req.obj
 0002:00002648       $unwind$http_hdr_req_rewrite2 0000000180017648     http_hdr_req.obj
 0002:0000265c       $unwind$http_hdr_req_free  000000018001765c     http_hdr_req.obj
 0002:00002664       $unwind$http_hdr_req_reset 0000000180017664     http_hdr_req.obj
 0002:0000266c       $unwind$http_hdr_req_cookies_parse 000000018001766c     http_hdr_req.obj
 0002:00002678       $unwind$http_hdr_req_line_parse 0000000180017678     http_hdr_req.obj
 0002:00002680       $unwind$http_hdr_req_parse 0000000180017680     http_hdr_req.obj
 0002:00002688       $unwind$http_hdr_req_parse3 0000000180017688     http_hdr_req.obj
 0002:00002690       $unwind$http_hdr_req_cookie_get 0000000180017690     http_hdr_req.obj
 0002:00002698       $unwind$http_hdr_req_method 0000000180017698     http_hdr_req.obj
 0002:000026a0       $unwind$http_hdr_req_param 00000001800176a0     http_hdr_req.obj
 0002:000026a8       $unwind$http_hdr_req_url_part 00000001800176a8     http_hdr_req.obj
 0002:000026b0       $unwind$http_hdr_req_url_path 00000001800176b0     http_hdr_req.obj
 0002:000026b8       $unwind$http_hdr_req_host  00000001800176b8     http_hdr_req.obj
 0002:000026c0       $unwind$http_hdr_req_url   00000001800176c0     http_hdr_req.obj
 0002:000026c8       $unwind$http_hdr_req_range 00000001800176c8     http_hdr_req.obj
 0002:000026dc       $unwind$__get_host_from_url 00000001800176dc     http_hdr_req.obj
 0002:000026e4       $unwind$__hdr_init         00000001800176e4     http_hdr_req.obj
 0002:000026ec       $unwind$__request_args_free_fn 00000001800176ec     http_hdr_req.obj
 0002:000026f4       $unwind$__cookies_args_free_fn 00000001800176f4     http_hdr_req.obj
 0002:000026fc       $unwind$__hdr_free_member  00000001800176fc     http_hdr_req.obj
 0002:00002704       $unwind$__hdr_reset        0000000180017704     http_hdr_req.obj
 0002:0000270c       $unwind$thread_cache_free  000000018001770c     http_hdr_req.obj
 0002:00002714       $unwind$main_cache_free    0000000180017714     http_hdr_req.obj
 0002:0000271c       $unwind$cache_init         000000018001771c     http_hdr_req.obj
 0002:00002724       $unwind$clone_table_entry  0000000180017724     http_hdr_req.obj
 0002:0000272c       $unwind$__add_cookie_item  000000018001772c     http_hdr_req.obj
 0002:00002734       $unwind$__add_request_item 0000000180017734     http_hdr_req.obj
 0002:0000273c       $unwind$__strip_url_path   000000018001773c     http_hdr_req.obj
 0002:00002748       $unwind$__parse_url_and_port 0000000180017748     http_hdr_req.obj
 0002:00002750       $unwind$free_vstring       0000000180017750     http_hdr_req.obj
 0002:00002758       $unwind$http_hdr_res_status_parse 0000000180017758     http_hdr_res.obj
 0002:0000276c       $unwind$http_hdr_res_new   000000018001776c     http_hdr_res.obj
 0002:00002774       $unwind$http_hdr_res_clone 0000000180017774     http_hdr_res.obj
 0002:0000277c       $unwind$http_hdr_res_free  000000018001777c     http_hdr_res.obj
 0002:00002784       $unwind$http_hdr_res_reset 0000000180017784     http_hdr_res.obj
 0002:0000278c       $unwind$http_hdr_res_parse 000000018001778c     http_hdr_res.obj
 0002:000027a0       $unwind$http_hdr_res_range 00000001800177a0     http_hdr_res.obj
 0002:000027b4       $unwind$__hdr_init         00000001800177b4     http_hdr_res.obj
 0002:000027bc       $unwind$thread_cache_free  00000001800177bc     http_hdr_res.obj
 0002:000027c4       $unwind$main_cache_free    00000001800177c4     http_hdr_res.obj
 0002:000027cc       $unwind$thread_cache_init  00000001800177cc     http_hdr_res.obj
 0002:000027d4       $unwind$__hdr_free_member  00000001800177d4     http_hdr_res.obj
 0002:000027dc       $unwind$http_init          00000001800177dc     http_init.obj
 0002:000027e4       $unwind$http_hdr_cache     00000001800177e4     http_init.obj
 0002:000027ec       $unwind$http_buf_size_set  00000001800177ec     http_init.obj
 0002:000027f4       $unwind$http_buf_size_get  00000001800177f4     http_init.obj
 0002:000027fc       $unwind$http_req_new       00000001800177fc     http_req.obj
 0002:00002810       $unwind$http_req_free      0000000180017810     http_req.obj
 0002:00002818       $unwind$http_res_new       0000000180017818     http_res.obj
 0002:0000282c       $unwind$http_res_free      000000018001782c     http_res.obj
 0002:00002834       $unwind$gmtime_s           0000000180017834     http_rfc1123.obj
 0002:0000283c       $unwind$http_mkrfc1123     000000018001783c     http_rfc1123.obj
 0002:0000284c       $unwind$http_status_line   000000018001784c     http_status.obj
 0002:00002854       $unwind$http_tmpl_load     0000000180017854     http_tmpl.obj
 0002:00002868       $unwind$http_tmpl_get      0000000180017868     http_tmpl.obj
 0002:00002870       $unwind$http_tmpl_title    0000000180017870     http_tmpl.obj
 0002:00002878       $unwind$http_tmpl_size     0000000180017878     http_tmpl.obj
 0002:00002880       $unwind$__load_tmpl        0000000180017880     http_tmpl.obj
 0002:00002894       $unwind$http_util_req_new  0000000180017894     http_util.obj
 0002:0000289c       $unwind$http_util_res_new  000000018001789c     http_util.obj
 0002:000028a4       $unwind$http_util_free     00000001800178a4     http_util.obj
 0002:000028ac       $unwind$http_util_set_req_entry 00000001800178ac     http_util.obj
 0002:000028b4       $unwind$http_util_off_req_entry 00000001800178b4     http_util.obj
 0002:000028bc       $unwind$http_util_get_req_value 00000001800178bc     http_util.obj
 0002:000028c4       $unwind$http_util_get_req_entry 00000001800178c4     http_util.obj
 0002:000028cc       $unwind$http_util_set_req_content_length 00000001800178cc     http_util.obj
 0002:000028dc       $unwind$http_util_set_req_keep_alive 00000001800178dc     http_util.obj
 0002:000028ec       $unwind$http_util_set_req_connection 00000001800178ec     http_util.obj
 0002:000028f4       $unwind$http_util_set_req_refer 00000001800178f4     http_util.obj
 0002:000028fc       $unwind$http_util_set_req_cookie 00000001800178fc     http_util.obj
 0002:00002904       $unwind$http_util_set_req_proxy 0000000180017904     http_util.obj
 0002:0000290c       $unwind$http_util_set_dump_stream 000000018001790c     http_util.obj
 0002:00002914       $unwind$http_util_set_dump_file 0000000180017914     http_util.obj
 0002:0000291c       $unwind$http_util_req_open 000000018001791c     http_util.obj
 0002:00002924       $unwind$http_util_put_req_data 0000000180017924     http_util.obj
 0002:0000292c       $unwind$http_util_get_res_hdr 000000018001792c     http_util.obj
 0002:00002934       $unwind$http_util_get_res_value 0000000180017934     http_util.obj
 0002:0000293c       $unwind$http_util_get_res_entry 000000018001793c     http_util.obj
 0002:00002944       $unwind$http_util_set_res_entry 0000000180017944     http_util.obj
 0002:0000294c       $unwind$http_util_off_res_entry 000000018001794c     http_util.obj
 0002:00002954       $unwind$http_util_has_res_body 0000000180017954     http_util.obj
 0002:0000295c       $unwind$http_util_get_res_body 000000018001795c     http_util.obj
 0002:00002964       $unwind$http_util_dump_url 0000000180017964     http_util.obj
 0002:00002978       $unwind$http_util_dump_url_to_stream 0000000180017978     http_util.obj
 0002:0000298c       $unwind$icmp_chat_create   000000018001798c     icmp_chat.obj
 0002:00002994       $unwind$icmp_chat_free     0000000180017994     icmp_chat.obj
 0002:0000299c       $unwind$icmp_chat          000000018001799c     icmp_chat.obj
 0002:000029a4       $unwind$icmp_chat_size     00000001800179a4     icmp_chat.obj
 0002:000029ac       $unwind$icmp_chat_count    00000001800179ac     icmp_chat.obj
 0002:000029b4       $unwind$icmp_chat_finish   00000001800179b4     icmp_chat.obj
 0002:000029bc       $unwind$icmp_chat_seqno    00000001800179bc     icmp_chat.obj
 0002:000029c4       $unwind$proc_on_exit       00000001800179c4     icmp_chat.obj
 0002:000029cc       $unwind$icmp_once          00000001800179cc     icmp_chat.obj
 0002:000029d4       $unwind$icmp_chat_aio_add  00000001800179d4     icmp_chat_aio.obj
 0002:000029dc       $unwind$icmp_chat_aio_free 00000001800179dc     icmp_chat_aio.obj
 0002:000029e4       $unwind$icmp_chat_aio      00000001800179e4     icmp_chat_aio.obj
 0002:000029ec       $unwind$delay_send_pkt     00000001800179ec     icmp_chat_aio.obj
 0002:000029f4       $unwind$read_close_fn      00000001800179f4     icmp_chat_aio.obj
 0002:000029fc       $unwind$read_ready_fn      00000001800179fc     icmp_chat_aio.obj
 0002:00002a10       $unwind$check_timer        0000000180017a10     icmp_chat_aio.obj
 0002:00002a18       $unwind$send_pkt           0000000180017a18     icmp_chat_aio.obj
 0002:00002a24       $unwind$delay_send_timer   0000000180017a24     icmp_chat_aio.obj
 0002:00002a2c       $unwind$timeout_fn         0000000180017a2c     icmp_chat_aio.obj
 0002:00002a34       $unwind$write_ready_fn     0000000180017a34     icmp_chat_aio.obj
 0002:00002a3c       $unwind$icmp_rset          0000000180017a3c     icmp_chat_aio.obj
 0002:00002a44       $unwind$icmp_chat_sio_free 0000000180017a44     icmp_chat_sio.obj
 0002:00002a4c       $unwind$icmp_chat_sio      0000000180017a4c     icmp_chat_sio.obj
 0002:00002a54       $unwind$read_pkt           0000000180017a54     icmp_chat_sio.obj
 0002:00002a68       $unwind$send_pkt           0000000180017a68     icmp_chat_sio.obj
 0002:00002a74       $unwind$icmp_host_new      0000000180017a74     icmp_host.obj
 0002:00002a7c       $unwind$icmp_host_free     0000000180017a7c     icmp_host.obj
 0002:00002a84       $unwind$icmp_host_set      0000000180017a84     icmp_host.obj
 0002:00002a8c       $unwind$icmp_host_alloc    0000000180017a8c     icmp_host.obj
 0002:00002a94       $unwind$icmp_host_init     0000000180017a94     icmp_host.obj
 0002:00002a9c       $unwind$icmp_ping_one      0000000180017a9c     icmp_ping.obj
 0002:00002aa4       $unwind$icmp_pkt_client    0000000180017aa4     icmp_pkt.obj
 0002:00002aac       $unwind$icmp_pkt_alloc     0000000180017aac     icmp_pkt.obj
 0002:00002ab4       $unwind$icmp_pkt_free      0000000180017ab4     icmp_pkt.obj
 0002:00002abc       $unwind$icmp_pkt_pack      0000000180017abc     icmp_pkt.obj
 0002:00002ac4       $unwind$icmp_pkt_build     0000000180017ac4     icmp_pkt.obj
 0002:00002acc       $unwind$icmp_pkt_save_status 0000000180017acc     icmp_pkt.obj
 0002:00002ad4       $unwind$icmp_pkt_unpack    0000000180017ad4     icmp_pkt.obj
 0002:00002adc       $unwind$icmp_pkt_check     0000000180017adc     icmp_pkt.obj
 0002:00002ae4       $unwind$icmp_pkt_type      0000000180017ae4     icmp_pkt.obj
 0002:00002aec       $unwind$icmp_pkt_code      0000000180017aec     icmp_pkt.obj
 0002:00002af4       $unwind$icmp_pkt_cksum     0000000180017af4     icmp_pkt.obj
 0002:00002afc       $unwind$icmp_pkt_id        0000000180017afc     icmp_pkt.obj
 0002:00002b04       $unwind$icmp_pkt_seq       0000000180017b04     icmp_pkt.obj
 0002:00002b0c       $unwind$icmp_pkt_gid       0000000180017b0c     icmp_pkt.obj
 0002:00002b14       $unwind$icmp_pkt_peer      0000000180017b14     icmp_pkt.obj
 0002:00002b1c       $unwind$icmp_pkt_status    0000000180017b1c     icmp_pkt.obj
 0002:00002b24       $unwind$icmp_pkt_len       0000000180017b24     icmp_pkt.obj
 0002:00002b2c       $unwind$icmp_pkt_wlen      0000000180017b2c     icmp_pkt.obj
 0002:00002b34       $unwind$icmp_pkt_payload   0000000180017b34     icmp_pkt.obj
 0002:00002b3c       $unwind$icmp_pkt_set_extra 0000000180017b3c     icmp_pkt.obj
 0002:00002b44       $unwind$icmp_pkt_set_type  0000000180017b44     icmp_pkt.obj
 0002:00002b4c       $unwind$icmp_pkt_set_code  0000000180017b4c     icmp_pkt.obj
 0002:00002b54       $unwind$icmp_pkt_set_cksum 0000000180017b54     icmp_pkt.obj
 0002:00002b5c       $unwind$icmp_pkt_set_id    0000000180017b5c     icmp_pkt.obj
 0002:00002b64       $unwind$icmp_pkt_set_seq   0000000180017b64     icmp_pkt.obj
 0002:00002b6c       $unwind$icmp_pkt_set_data  0000000180017b6c     icmp_pkt.obj
 0002:00002b74       $unwind$checksum           0000000180017b74     icmp_pkt.obj
 0002:00002b7c       $unwind$icmp_hdr_pack      0000000180017b7c     icmp_pkt.obj
 0002:00002b84       $unwind$stamp_sub          0000000180017b84     icmp_stat.obj
 0002:00002b8c       $unwind$icmp_stat_timeout  0000000180017b8c     icmp_stat.obj
 0002:00002b94       $unwind$icmp_stat_unreach  0000000180017b94     icmp_stat.obj
 0002:00002b9c       $unwind$icmp_stat_report   0000000180017b9c     icmp_stat.obj
 0002:00002ba4       $unwind$icmp_stat_finish   0000000180017ba4     icmp_stat.obj
 0002:00002bac       $unwind$icmp_stat          0000000180017bac     icmp_stat.obj
 0002:00002bb4       $unwind$icmp_stat_host     0000000180017bb4     icmp_stat.obj
 0002:00002bbc       $unwind$icmp_rtt_compute   0000000180017bbc     icmp_stat.obj
 0002:00002bc4       $unwind$icmp_status        0000000180017bc4     icmp_stat.obj
 0002:00002bcc       $unwind$icmp_stream_open   0000000180017bcc     icmp_stream.obj
 0002:00002bd4       $unwind$icmp_stream_close  0000000180017bd4     icmp_stream.obj
 0002:00002bdc       $unwind$icmp_vstream       0000000180017bdc     icmp_stream.obj
 0002:00002be4       $unwind$icmp_stream_from   0000000180017be4     icmp_stream.obj
 0002:00002bec       $unwind$icmp_stream_dest   0000000180017bec     icmp_stream.obj
 0002:00002bf4       $unwind$icmp_stream_set_dest 0000000180017bf4     icmp_stream.obj
 0002:00002bfc       $unwind$icmp_stream_reopen 0000000180017bfc     icmp_stream.obj
 0002:00002c04       $unwind$icmp_read          0000000180017c04     icmp_stream.obj
 0002:00002c0c       $unwind$icmp_write         0000000180017c0c     icmp_stream.obj
 0002:00002c14       $unwind$time               0000000180017c14     icmp_timer.obj
 0002:00002c1c       $unwind$icmp_timer_new     0000000180017c1c     icmp_timer.obj
 0002:00002c24       $unwind$icmp_timer_free    0000000180017c24     icmp_timer.obj
 0002:00002c2c       $unwind$timer_request      0000000180017c2c     icmp_timer.obj
 0002:00002c34       $unwind$timer_cancel       0000000180017c34     icmp_timer.obj
 0002:00002c3c       $unwind$timer_find_delete  0000000180017c3c     icmp_timer.obj
 0002:00002c44       $unwind$timer_popup        0000000180017c44     icmp_timer.obj
 0002:00002c4c       $unwind$proto_secure_snprintf 0000000180017c4c     proto_snprintf.obj
 0002:00002c54       $unwind$proto_securevsnprintf 0000000180017c54     proto_snprintf.obj
 0002:00002c5c       $unwind$smtp_open          0000000180017c5c     smtp_client.obj
 0002:00002c64       $unwind$smtp_close         0000000180017c64     smtp_client.obj
 0002:00002c6c       $unwind$smtp_get_banner    0000000180017c6c     smtp_client.obj
 0002:00002c74       $unwind$smtp_greet         0000000180017c74     smtp_client.obj
 0002:00002c7c       $unwind$smtp_helo          0000000180017c7c     smtp_client.obj
 0002:00002c84       $unwind$smtp_ehlo          0000000180017c84     smtp_client.obj
 0002:00002c8c       $unwind$smtp_auth          0000000180017c8c     smtp_client.obj
 0002:00002c94       $unwind$smtp_mail          0000000180017c94     smtp_client.obj
 0002:00002c9c       $unwind$smtp_rcpt          0000000180017c9c     smtp_client.obj
 0002:00002ca4       $unwind$smtp_data          0000000180017ca4     smtp_client.obj
 0002:00002cac       $unwind$smtp_send          0000000180017cac     smtp_client.obj
 0002:00002cb4       $unwind$smtp_printf        0000000180017cb4     smtp_client.obj
 0002:00002cbc       $unwind$smtp_data_end      0000000180017cbc     smtp_client.obj
 0002:00002cc4       $unwind$smtp_send_file     0000000180017cc4     smtp_client.obj
 0002:00002ccc       $unwind$smtp_send_stream   0000000180017ccc     smtp_client.obj
 0002:00002cd4       $unwind$smtp_quit          0000000180017cd4     smtp_client.obj
 0002:00002cdc       $unwind$smtp_noop          0000000180017cdc     smtp_client.obj
 0002:00002ce4       $unwind$smtp_rset          0000000180017ce4     smtp_client.obj
 0002:00002cec       $unwind$smtp_ehlo_flag     0000000180017cec     smtp_client.obj
 0002:00002cf4       $unwind$_RTC_CheckStackVars 0000000180017cf4     MSVCRTD:stack.obj
 0002:00002d04       $chain$0$_RTC_CheckStackVars 0000000180017d04     MSVCRTD:stack.obj
 0002:00002d18       $chain$1$_RTC_CheckStackVars 0000000180017d18     MSVCRTD:stack.obj
 0002:00002d28       $unwind$_RTC_CheckStackVars2 0000000180017d28     MSVCRTD:stack.obj
 0002:00002d34       $chain$1$_RTC_CheckStackVars2 0000000180017d34     MSVCRTD:stack.obj
 0002:00002d4c       $chain$2$_RTC_CheckStackVars2 0000000180017d4c     MSVCRTD:stack.obj
 0002:00002d60       $chain$3$_RTC_CheckStackVars2 0000000180017d60     MSVCRTD:stack.obj
 0002:00002d74       $chain$4$_RTC_CheckStackVars2 0000000180017d74     MSVCRTD:stack.obj
 0002:00002d84       $chain$5$_RTC_CheckStackVars2 0000000180017d84     MSVCRTD:stack.obj
 0002:00002d94       $chain$6$_RTC_CheckStackVars2 0000000180017d94     MSVCRTD:stack.obj
 0002:00002da4       $unwind$_RTC_AllocaHelper  0000000180017da4     MSVCRTD:stack.obj
 0002:00002dac       $chain$0$_RTC_AllocaHelper 0000000180017dac     MSVCRTD:stack.obj
 0002:00002dc0       $chain$1$_RTC_AllocaHelper 0000000180017dc0     MSVCRTD:stack.obj
 0002:00002dd0       $unwind$_RTC_Shutdown      0000000180017dd0     MSVCRTD:init.obj
 0002:00002dd8       $unwind$_RTC_InitBase      0000000180017dd8     MSVCRTD:init.obj
 0002:00002de0       $unwind$__GSHandlerCheckCommon 0000000180017de0     MSVCRTD:gshandler.obj
 0002:00002de8       $unwind$__GSHandlerCheck   0000000180017de8     MSVCRTD:gshandler.obj
 0002:00002df0       $xdatasym                  0000000180017df0     MSVCRTD:chkstk.obj
 0002:00002df8       $xdatasym                  0000000180017df8     MSVCRTD:amdsecgs.obj
 0002:00002dfc       $unwind$__report_securityfailure 0000000180017dfc     MSVCRTD:gs_report.obj
 0002:00002e04       $unwind$__report_securityfailureEx 0000000180017e04     MSVCRTD:gs_report.obj
 0002:00002e0c       $unwind$__report_rangecheckfailure 0000000180017e0c     MSVCRTD:gs_report.obj
 0002:00002e14       $unwind$__raise_securityfailure 0000000180017e14     MSVCRTD:gs_report.obj
 0002:00002e1c       $unwind$__report_gsfailure 0000000180017e1c     MSVCRTD:gs_report.obj
 0002:00002e24       $unwind$atexit             0000000180017e24     MSVCRTD:atonexit.obj
 0002:00002e2c       $unwind$_onexit            0000000180017e2c     MSVCRTD:atonexit.obj
 0002:00002e4c       $unwind$_onexit$fin$0      0000000180017e4c     MSVCRTD:atonexit.obj
 0002:00002e54       $unwind$__atonexitinit     0000000180017e54     MSVCRTD:atonexit.obj
 0002:00002e5c       $unwind$_CRT_INIT          0000000180017e5c     MSVCRTD:crtdll.obj
 0002:00002e64       $unwind$pre_c_init         0000000180017e64     MSVCRTD:crtdll.obj
 0002:00002e6c       $unwind$__DllMainCRTStartup 0000000180017e6c     MSVCRTD:crtdll.obj
 0002:00002e9c       $unwind$__DllMainCRTStartup$filt$0 0000000180017e9c     MSVCRTD:crtdll.obj
 0002:00002ea4       $unwind$__DllMainCRTStartup$fin$1 0000000180017ea4     MSVCRTD:crtdll.obj
 0002:00002eac       $unwind$_DllMainCRTStartup 0000000180017eac     MSVCRTD:crtdll.obj
 0002:00002eb4       $unwind$_RTC_UninitUse     0000000180017eb4     MSVCRTD:error.obj
 0002:00002ecc       $unwind$?_RTC_StackFailure@@YAXPEAXPEBD@Z 0000000180017ecc     MSVCRTD:error.obj
 0002:00002ee8       $unwind$?_RTC_AllocaFailure@@YAXPEAXPEAU_RTC_ALLOCA_NODE@@H@Z 0000000180017ee8     MSVCRTD:error.obj
 0002:00002f00       $chain$0$?_RTC_AllocaFailure@@YAXPEAXPEAU_RTC_ALLOCA_NODE@@H@Z 0000000180017f00     MSVCRTD:error.obj
 0002:00002f14       $chain$1$?_RTC_AllocaFailure@@YAXPEAXPEAU_RTC_ALLOCA_NODE@@H@Z 0000000180017f14     MSVCRTD:error.obj
 0002:00002f24       $unwind$?DebuggerProbe@@YAHK@Z 0000000180017f24     MSVCRTD:error.obj
 0002:00002f44       $unwind$?filt$0@?0??DebuggerProbe@@YAHK@Z@4HA 0000000180017f44     MSVCRTD:error.obj
 0002:00002f4c       $unwind$?DebuggerRuntime@@YAHKHPEAXPEB_W@Z 0000000180017f4c     MSVCRTD:error.obj
 0002:00002f6c       $unwind$?filt$0@?0??DebuggerRuntime@@YAHKHPEAXPEB_W@Z@4HA 0000000180017f6c     MSVCRTD:error.obj
 0002:00002f74       $unwind$?failwithmessage@@YAXPEAXHHPEBD@Z 0000000180017f74     MSVCRTD:error.obj
 0002:00002f98       $unwind$?_getMemBlockDataString@@YAXPEAD00_K@Z 0000000180017f98     MSVCRTD:error.obj
 0002:00002fa8       $chain$2$?_getMemBlockDataString@@YAXPEAD00_K@Z 0000000180017fa8     MSVCRTD:error.obj
 0002:00002fc4       $chain$3$?_getMemBlockDataString@@YAXPEAD00_K@Z 0000000180017fc4     MSVCRTD:error.obj
 0002:00002fd4       $unwind$_ValidateImageBase 0000000180017fd4     MSVCRTD:pesect.obj
 0002:00002fdc       $unwind$_FindPESection     0000000180017fdc     MSVCRTD:pesect.obj
 0002:00002fe4       $unwind$_IsNonwritableInCurrentImage 0000000180017fe4     MSVCRTD:pesect.obj
 0002:00003004       $unwind$_IsNonwritableInCurrentImage$filt$0 0000000180018004     MSVCRTD:pesect.obj
 0002:0000300c       $unwind$__security_init_cookie 000000018001800c     MSVCRTD:gs_support.obj
 0002:00003014       $unwind$DllMain            0000000180018014     MSVCRTD:dllmain.obj
 0002:0000301c       $unwind$_RTC_Initialize    000000018001801c     MSVCRTD:initsect.obj
 0002:00003028       $unwind$_RTC_Terminate     0000000180018028     MSVCRTD:initsect.obj
 0002:00003034       $unwind$__clean_type_info_names 0000000180018034     MSVCRTD:tncleanup.obj
 0002:0000303c       $unwind$?_RTC_GetSrcLine@@YAHPEAEPEA_WKPEAH1K@Z 000000018001803c     MSVCRTD:pdblkup.obj
 0002:00003058       $unwind$?GetPdbDllFromInstallPath@@YAPEAUHINSTANCE__@@XZ 0000000180018058     MSVCRTD:pdblkup.obj
 0002:0000306c       $chain$0$?GetPdbDllFromInstallPath@@YAPEAUHINSTANCE__@@XZ 000000018001806c     MSVCRTD:pdblkup.obj
 0002:00003080       $chain$1$?GetPdbDllFromInstallPath@@YAPEAUHINSTANCE__@@XZ 0000000180018080     MSVCRTD:pdblkup.obj
 0002:00003094       $chain$2$?GetPdbDllFromInstallPath@@YAPEAUHINSTANCE__@@XZ 0000000180018094     MSVCRTD:pdblkup.obj
 0002:000030a8       $chain$3$?GetPdbDllFromInstallPath@@YAPEAUHINSTANCE__@@XZ 00000001800180a8     MSVCRTD:pdblkup.obj
 0002:000030b8       $chain$4$?GetPdbDllFromInstallPath@@YAPEAUHINSTANCE__@@XZ 00000001800180b8     MSVCRTD:pdblkup.obj
 0002:000030c8       $chain$5$?GetPdbDllFromInstallPath@@YAPEAUHINSTANCE__@@XZ 00000001800180c8     MSVCRTD:pdblkup.obj
 0002:000030d8       $unwind$?GetPdbDllPathFromFilePath@@YAHPEB_WPEA_W_K@Z 00000001800180d8     MSVCRTD:pdblkup.obj
 0002:000030f0       $unwind$?GetPdbDll@@YAPEAUHINSTANCE__@@XZ 00000001800180f0     MSVCRTD:pdblkup.obj
 0002:00003100       .edata                     0000000180018100     lib_protocol_d.exp
 0002:00003128       rgpv                       0000000180018128     lib_protocol_d.exp
 0002:000033d0       rgszName                   00000001800183d0     lib_protocol_d.exp
 0002:00003678       rgwOrd                     0000000180018678     lib_protocol_d.exp
 0002:000037cc       szName                     00000001800187cc     lib_protocol_d.exp
 0002:000037df       $N00001                    00000001800187df     lib_protocol_d.exp
 0002:000037f1       $N00002                    00000001800187f1     lib_protocol_d.exp
 0002:00003803       $N00003                    0000000180018803     lib_protocol_d.exp
 0002:00003819       $N00004                    0000000180018819     lib_protocol_d.exp
 0002:0000382f       $N00005                    000000018001882f     lib_protocol_d.exp
 0002:00003845       $N00006                    0000000180018845     lib_protocol_d.exp
 0002:00003854       $N00007                    0000000180018854     lib_protocol_d.exp
 0002:0000386b       $N00008                    000000018001886b     lib_protocol_d.exp
 0002:0000387a       $N00009                    000000018001887a     lib_protocol_d.exp
 0002:00003889       $N00010                    0000000180018889     lib_protocol_d.exp
 0002:00003898       $N00011                    0000000180018898     lib_protocol_d.exp
 0002:000038ad       $N00012                    00000001800188ad     lib_protocol_d.exp
 0002:000038c1       $N00013                    00000001800188c1     lib_protocol_d.exp
 0002:000038d4       $N00014                    00000001800188d4     lib_protocol_d.exp
 0002:000038e8       $N00015                    00000001800188e8     lib_protocol_d.exp
 0002:000038fb       $N00016                    00000001800188fb     lib_protocol_d.exp
 0002:00003912       $N00017                    0000000180018912     lib_protocol_d.exp
 0002:0000392a       $N00018                    000000018001892a     lib_protocol_d.exp
 0002:0000393f       $N00019                    000000018001893f     lib_protocol_d.exp
 0002:0000394f       $N00020                    000000018001894f     lib_protocol_d.exp
 0002:0000395d       $N00021                    000000018001895d     lib_protocol_d.exp
 0002:0000396a       $N00022                    000000018001896a     lib_protocol_d.exp
 0002:00003979       $N00023                    0000000180018979     lib_protocol_d.exp
 0002:00003990       $N00024                    0000000180018990     lib_protocol_d.exp
 0002:0000399f       $N00025                    000000018001899f     lib_protocol_d.exp
 0002:000039b0       $N00026                    00000001800189b0     lib_protocol_d.exp
 0002:000039c1       $N00027                    00000001800189c1     lib_protocol_d.exp
 0002:000039d2       $N00028                    00000001800189d2     lib_protocol_d.exp
 0002:000039e4       $N00029                    00000001800189e4     lib_protocol_d.exp
 0002:000039f7       $N00030                    00000001800189f7     lib_protocol_d.exp
 0002:00003a0f       $N00031                    0000000180018a0f     lib_protocol_d.exp
 0002:00003a2a       $N00032                    0000000180018a2a     lib_protocol_d.exp
 0002:00003a3e       $N00033                    0000000180018a3e     lib_protocol_d.exp
 0002:00003a50       $N00034                    0000000180018a50     lib_protocol_d.exp
 0002:00003a67       $N00035                    0000000180018a67     lib_protocol_d.exp
 0002:00003a7d       $N00036                    0000000180018a7d     lib_protocol_d.exp
 0002:00003a8f       $N00037                    0000000180018a8f     lib_protocol_d.exp
 0002:00003aa7       $N00038                    0000000180018aa7     lib_protocol_d.exp
 0002:00003abb       $N00039                    0000000180018abb     lib_protocol_d.exp
 0002:00003acc       $N00040                    0000000180018acc     lib_protocol_d.exp
 0002:00003adf       $N00041                    0000000180018adf     lib_protocol_d.exp
 0002:00003af2       $N00042                    0000000180018af2     lib_protocol_d.exp
 0002:00003b06       $N00043                    0000000180018b06     lib_protocol_d.exp
 0002:00003b19       $N00044                    0000000180018b19     lib_protocol_d.exp
 0002:00003b2c       $N00045                    0000000180018b2c     lib_protocol_d.exp
 0002:00003b41       $N00046                    0000000180018b41     lib_protocol_d.exp
 0002:00003b57       $N00047                    0000000180018b57     lib_protocol_d.exp
 0002:00003b68       $N00048                    0000000180018b68     lib_protocol_d.exp
 0002:00003b7e       $N00049                    0000000180018b7e     lib_protocol_d.exp
 0002:00003b94       $N00050                    0000000180018b94     lib_protocol_d.exp
 0002:00003ba7       $N00051                    0000000180018ba7     lib_protocol_d.exp
 0002:00003bba       $N00052                    0000000180018bba     lib_protocol_d.exp
 0002:00003bcc       $N00053                    0000000180018bcc     lib_protocol_d.exp
 0002:00003be3       $N00054                    0000000180018be3     lib_protocol_d.exp
 0002:00003bf9       $N00055                    0000000180018bf9     lib_protocol_d.exp
 0002:00003c0b       $N00056                    0000000180018c0b     lib_protocol_d.exp
 0002:00003c1c       $N00057                    0000000180018c1c     lib_protocol_d.exp
 0002:00003c2f       $N00058                    0000000180018c2f     lib_protocol_d.exp
 0002:00003c42       $N00059                    0000000180018c42     lib_protocol_d.exp
 0002:00003c55       $N00060                    0000000180018c55     lib_protocol_d.exp
 0002:00003c69       $N00061                    0000000180018c69     lib_protocol_d.exp
 0002:00003c83       $N00062                    0000000180018c83     lib_protocol_d.exp
 0002:00003c92       $N00063                    0000000180018c92     lib_protocol_d.exp
 0002:00003ca9       $N00064                    0000000180018ca9     lib_protocol_d.exp
 0002:00003cb9       $N00065                    0000000180018cb9     lib_protocol_d.exp
 0002:00003cc3       $N00066                    0000000180018cc3     lib_protocol_d.exp
 0002:00003cd2       $N00067                    0000000180018cd2     lib_protocol_d.exp
 0002:00003cea       $N00068                    0000000180018cea     lib_protocol_d.exp
 0002:00003d01       $N00069                    0000000180018d01     lib_protocol_d.exp
 0002:00003d0f       $N00070                    0000000180018d0f     lib_protocol_d.exp
 0002:00003d1c       $N00071                    0000000180018d1c     lib_protocol_d.exp
 0002:00003d34       $N00072                    0000000180018d34     lib_protocol_d.exp
 0002:00003d4b       $N00073                    0000000180018d4b     lib_protocol_d.exp
 0002:00003d59       $N00074                    0000000180018d59     lib_protocol_d.exp
 0002:00003d66       $N00075                    0000000180018d66     lib_protocol_d.exp
 0002:00003d77       $N00076                    0000000180018d77     lib_protocol_d.exp
 0002:00003d85       $N00077                    0000000180018d85     lib_protocol_d.exp
 0002:00003d94       $N00078                    0000000180018d94     lib_protocol_d.exp
 0002:00003da3       $N00079                    0000000180018da3     lib_protocol_d.exp
 0002:00003db3       $N00080                    0000000180018db3     lib_protocol_d.exp
 0002:00003dc4       $N00081                    0000000180018dc4     lib_protocol_d.exp
 0002:00003dd7       $N00082                    0000000180018dd7     lib_protocol_d.exp
 0002:00003df4       $N00083                    0000000180018df4     lib_protocol_d.exp
 0002:00003e03       $N00084                    0000000180018e03     lib_protocol_d.exp
 0002:00003e1b       $N00085                    0000000180018e1b     lib_protocol_d.exp
 0002:00003e33       $N00086                    0000000180018e33     lib_protocol_d.exp
 0002:00003e4a       $N00087                    0000000180018e4a     lib_protocol_d.exp
 0002:00003e62       $N00088                    0000000180018e62     lib_protocol_d.exp
 0002:00003e78       $N00089                    0000000180018e78     lib_protocol_d.exp
 0002:00003e90       $N00090                    0000000180018e90     lib_protocol_d.exp
 0002:00003ea7       $N00091                    0000000180018ea7     lib_protocol_d.exp
 0002:00003ebf       $N00092                    0000000180018ebf     lib_protocol_d.exp
 0002:00003ed7       $N00093                    0000000180018ed7     lib_protocol_d.exp
 0002:00003eee       $N00094                    0000000180018eee     lib_protocol_d.exp
 0002:00003f00       $N00095                    0000000180018f00     lib_protocol_d.exp
 0002:00003f13       $N00096                    0000000180018f13     lib_protocol_d.exp
 0002:00003f25       $N00097                    0000000180018f25     lib_protocol_d.exp
 0002:00003f3d       $N00098                    0000000180018f3d     lib_protocol_d.exp
 0002:00003f57       $N00099                    0000000180018f57     lib_protocol_d.exp
 0002:00003f74       $N00100                    0000000180018f74     lib_protocol_d.exp
 0002:00003f95       $N00101                    0000000180018f95     lib_protocol_d.exp
 0002:00003fae       $N00102                    0000000180018fae     lib_protocol_d.exp
 0002:00003fc6       $N00103                    0000000180018fc6     lib_protocol_d.exp
 0002:00003fe3       $N00104                    0000000180018fe3     lib_protocol_d.exp
 0002:00003ffb       $N00105                    0000000180018ffb     lib_protocol_d.exp
 0002:00004013       $N00106                    0000000180019013     lib_protocol_d.exp
 0002:0000402b       $N00107                    000000018001902b     lib_protocol_d.exp
 0002:00004035       $N00108                    0000000180019035     lib_protocol_d.exp
 0002:00004045       $N00109                    0000000180019045     lib_protocol_d.exp
 0002:00004056       $N00110                    0000000180019056     lib_protocol_d.exp
 0002:00004067       $N00111                    0000000180019067     lib_protocol_d.exp
 0002:00004076       $N00112                    0000000180019076     lib_protocol_d.exp
 0002:00004086       $N00113                    0000000180019086     lib_protocol_d.exp
 0002:00004095       $N00114                    0000000180019095     lib_protocol_d.exp
 0002:000040a5       $N00115                    00000001800190a5     lib_protocol_d.exp
 0002:000040b4       $N00116                    00000001800190b4     lib_protocol_d.exp
 0002:000040c3       $N00117                    00000001800190c3     lib_protocol_d.exp
 0002:000040d1       $N00118                    00000001800190d1     lib_protocol_d.exp
 0002:000040df       $N00119                    00000001800190df     lib_protocol_d.exp
 0002:000040ed       $N00120                    00000001800190ed     lib_protocol_d.exp
 0002:000040fc       $N00121                    00000001800190fc     lib_protocol_d.exp
 0002:0000410b       $N00122                    000000018001910b     lib_protocol_d.exp
 0002:0000411a       $N00123                    000000018001911a     lib_protocol_d.exp
 0002:00004129       $N00124                    0000000180019129     lib_protocol_d.exp
 0002:00004137       $N00125                    0000000180019137     lib_protocol_d.exp
 0002:00004145       $N00126                    0000000180019145     lib_protocol_d.exp
 0002:00004152       $N00127                    0000000180019152     lib_protocol_d.exp
 0002:0000415e       $N00128                    000000018001915e     lib_protocol_d.exp
 0002:0000416b       $N00129                    000000018001916b     lib_protocol_d.exp
 0002:00004179       $N00130                    0000000180019179     lib_protocol_d.exp
 0002:0000418a       $N00131                    000000018001918a     lib_protocol_d.exp
 0002:00004198       $N00132                    0000000180019198     lib_protocol_d.exp
 0002:000041ad       $N00133                    00000001800191ad     lib_protocol_d.exp
 0002:000041ba       $N00134                    00000001800191ba     lib_protocol_d.exp
 0002:000041cd       $N00135                    00000001800191cd     lib_protocol_d.exp
 0002:000041df       $N00136                    00000001800191df     lib_protocol_d.exp
 0002:000041f1       $N00137                    00000001800191f1     lib_protocol_d.exp
 0002:00004204       $N00138                    0000000180019204     lib_protocol_d.exp
 0002:00004214       $N00139                    0000000180019214     lib_protocol_d.exp
 0002:00004225       $N00140                    0000000180019225     lib_protocol_d.exp
 0002:00004237       $N00141                    0000000180019237     lib_protocol_d.exp
 0002:00004247       $N00142                    0000000180019247     lib_protocol_d.exp
 0002:00004255       $N00143                    0000000180019255     lib_protocol_d.exp
 0002:00004265       $N00144                    0000000180019265     lib_protocol_d.exp
 0002:00004273       $N00145                    0000000180019273     lib_protocol_d.exp
 0002:0000427d       $N00146                    000000018001927d     lib_protocol_d.exp
 0002:0000428c       $N00147                    000000018001928c     lib_protocol_d.exp
 0002:0000429e       $N00148                    000000018001929e     lib_protocol_d.exp
 0002:000042af       $N00149                    00000001800192af     lib_protocol_d.exp
 0002:000042c0       $N00150                    00000001800192c0     lib_protocol_d.exp
 0002:000042d1       $N00151                    00000001800192d1     lib_protocol_d.exp
 0002:000042e6       $N00152                    00000001800192e6     lib_protocol_d.exp
 0002:000042f3       $N00153                    00000001800192f3     lib_protocol_d.exp
 0002:000042fd       $N00154                    00000001800192fd     lib_protocol_d.exp
 0002:00004308       $N00155                    0000000180019308     lib_protocol_d.exp
 0002:00004312       $N00156                    0000000180019312     lib_protocol_d.exp
 0002:00004320       $N00157                    0000000180019320     lib_protocol_d.exp
 0002:0000432a       $N00158                    000000018001932a     lib_protocol_d.exp
 0002:0000433a       $N00159                    000000018001933a     lib_protocol_d.exp
 0002:00004345       $N00160                    0000000180019345     lib_protocol_d.exp
 0002:0000434f       $N00161                    000000018001934f     lib_protocol_d.exp
 0002:00004359       $N00162                    0000000180019359     lib_protocol_d.exp
 0002:00004363       $N00163                    0000000180019363     lib_protocol_d.exp
 0002:0000436d       $N00164                    000000018001936d     lib_protocol_d.exp
 0002:00004379       $N00165                    0000000180019379     lib_protocol_d.exp
 0002:00004383       $N00166                    0000000180019383     lib_protocol_d.exp
 0002:0000438d       $N00167                    000000018001938d     lib_protocol_d.exp
 0002:00004397       $N00168                    0000000180019397     lib_protocol_d.exp
 0002:000043a1       $N00169                    00000001800193a1     lib_protocol_d.exp
 0002:000043b0       $N00170                    00000001800193b0     lib_protocol_d.exp
 0002:00004948       .idata$6                   0000000180019948     ws2_32:WS2_32.dll
 0002:00005082       .idata$6                   000000018001a082     lib_acl_d:lib_acl_d.dll
 0002:00005144       .idata$6                   000000018001a144     MSVCRTD:MSVCR120D.dll
 0002:000054b2       .idata$6                   000000018001a4b2     kernel32:KERNEL32.dll
 0003:00000000       $SG99419                   000000018001b000     http_chat_async.obj
 0003:00000004       $SG99420                   000000018001b004     http_chat_async.obj
 0003:00000008       $SG99455                   000000018001b008     http_chat_async.obj
 0003:00000018       $SG99478                   000000018001b018     http_chat_async.obj
 0003:00000038       $SG99502                   000000018001b038     http_chat_async.obj
 0003:00000050       $SG99510                   000000018001b050     http_chat_async.obj
 0003:00000068       $SG99513                   000000018001b068     http_chat_async.obj
 0003:00000078       $SG99515                   000000018001b078     http_chat_async.obj
 0003:00000098       $SG99528                   000000018001b098     http_chat_async.obj
 0003:000000b0       $SG99536                   000000018001b0b0     http_chat_async.obj
 0003:000000d0       $SG99537                   000000018001b0d0     http_chat_async.obj
 0003:000000f0       $SG99540                   000000018001b0f0     http_chat_async.obj
 0003:00000100       $SG99542                   000000018001b100     http_chat_async.obj
 0003:00000120       $SG99543                   000000018001b120     http_chat_async.obj
 0003:00000150       $SG99215                   000000018001b150     http_chat_async.obj
 0003:00000160       $SG99219                   000000018001b160     http_chat_async.obj
 0003:00000180       $SG99222                   000000018001b180     http_chat_async.obj
 0003:000001a0       $SG99223                   000000018001b1a0     http_chat_async.obj
 0003:000001c0       $SG99232                   000000018001b1c0     http_chat_async.obj
 0003:000001e0       $SG99243                   000000018001b1e0     http_chat_async.obj
 0003:000001f0       $SG99246                   000000018001b1f0     http_chat_async.obj
 0003:00000218       $SG99311                   000000018001b218     http_chat_async.obj
 0003:00000228       $SG99319                   000000018001b228     http_chat_async.obj
 0003:00000240       $SG99330                   000000018001b240     http_chat_sync.obj
 0003:0000025c       $SG99346                   000000018001b25c     http_chat_sync.obj
 0003:00000260       $SG99336                   000000018001b260     http_chat_sync.obj
 0003:00000274       $SG99347                   000000018001b274     http_chat_sync.obj
 0003:00000278       $SG99343                   000000018001b278     http_chat_sync.obj
 0003:00000290       $SG99357                   000000018001b290     http_chat_sync.obj
 0003:0000029c       $SG99317                   000000018001b29c     http_chat_sync.obj
 0003:000002a8       $SG99376                   000000018001b2a8     http_chat_sync.obj
 0003:000002c8       $SG99419                   000000018001b2c8     http_chat_sync.obj
 0003:000002e0       $SG99453                   000000018001b2e0     http_chat_sync.obj
 0003:00000300       $SG99454                   000000018001b300     http_chat_sync.obj
 0003:00000318       $SG99462                   000000018001b318     http_chat_sync.obj
 0003:00000330       $SG99496                   000000018001b330     http_chat_sync.obj
 0003:00000350       $SG99497                   000000018001b350     http_chat_sync.obj
 0003:00000368       $SG99212                   000000018001b368     http_chat_sync.obj
 0003:00000370       $SG99216                   000000018001b370     http_chat_sync.obj
 0003:00000390       $SG99220                   000000018001b390     http_chat_sync.obj
 0003:000003b0       $SG99221                   000000018001b3b0     http_chat_sync.obj
 0003:000003d0       $SG99230                   000000018001b3d0     http_chat_sync.obj
 0003:000003f0       $SG99308                   000000018001b3f0     http_chat_sync.obj
 0003:00000400       $SG99320                   000000018001b400     http_chat_sync.obj
 0003:00000438       $SG99326                   000000018001b438     http_chat_sync.obj
 0003:00000450       $SG99328                   000000018001b450     http_hdr.obj
 0003:00000468       $SG99329                   000000018001b468     http_hdr.obj
 0003:00000484       __http_hdr_def_entry       000000018001b484     http_hdr.obj
 0003:00000488       $SG99335                   000000018001b488     http_hdr.obj
 0003:0000049c       __http_hdr_max_lines       000000018001b49c     http_hdr.obj
 0003:000004a0       $SG99346                   000000018001b4a0     http_hdr.obj
 0003:000004b8       $SG99347                   000000018001b4b8     http_hdr.obj
 0003:000004d8       $SG99355                   000000018001b4d8     http_hdr.obj
 0003:000004f0       $SG99356                   000000018001b4f0     http_hdr.obj
 0003:00000510       $SG99364                   000000018001b510     http_hdr.obj
 0003:00000528       $SG99366                   000000018001b528     http_hdr.obj
 0003:00000540       $SG99367                   000000018001b540     http_hdr.obj
 0003:00000568       $SG99374                   000000018001b568     http_hdr.obj
 0003:00000580       $SG99377                   000000018001b580     http_hdr.obj
 0003:00000598       $SG99378                   000000018001b598     http_hdr.obj
 0003:000005ac       $SG99383                   000000018001b5ac     http_hdr.obj
 0003:000005b4       $SG99385                   000000018001b5b4     http_hdr.obj
 0003:000005bc       $SG99391                   000000018001b5bc     http_hdr.obj
 0003:000005c4       $SG99394                   000000018001b5c4     http_hdr.obj
 0003:000005d0       $SG99402                   000000018001b5d0     http_hdr.obj
 0003:000005e0       $SG99407                   000000018001b5e0     http_hdr.obj
 0003:000005f8       $SG99408                   000000018001b5f8     http_hdr.obj
 0003:00000618       $SG99439                   000000018001b618     http_hdr.obj
 0003:00000630       $SG99446                   000000018001b630     http_hdr.obj
 0003:00000648       $SG99447                   000000018001b648     http_hdr.obj
 0003:00000668       $SG99457                   000000018001b668     http_hdr.obj
 0003:00000680       $SG99481                   000000018001b680     http_hdr.obj
 0003:00000690       $SG99507                   000000018001b690     http_hdr.obj
 0003:000006a8       $SG99517                   000000018001b6a8     http_hdr.obj
 0003:000006c0       $SG99523                   000000018001b6c0     http_hdr.obj
 0003:000006d8       $SG99524                   000000018001b6d8     http_hdr.obj
 0003:000006f8       $SG99537                   000000018001b6f8     http_hdr.obj
 0003:00000708       $SG99538                   000000018001b708     http_hdr.obj
 0003:00000720       $SG99539                   000000018001b720     http_hdr.obj
 0003:00000730       $SG99540                   000000018001b730     http_hdr.obj
 0003:00000748       $SG99549                   000000018001b748     http_hdr.obj
 0003:00000758       $SG99551                   000000018001b758     http_hdr.obj
 0003:00000768       $SG99555                   000000018001b768     http_hdr.obj
 0003:00000780       $SG99557                   000000018001b780     http_hdr.obj
 0003:00000790       $SG99561                   000000018001b790     http_hdr.obj
 0003:000007a0       $SG99565                   000000018001b7a0     http_hdr.obj
 0003:000007b8       $SG99567                   000000018001b7b8     http_hdr.obj
 0003:000007c0       $SG99575                   000000018001b7c0     http_hdr.obj
 0003:000007d0       $SG99581                   000000018001b7d0     http_hdr.obj
 0003:000007e8       $SG99582                   000000018001b7e8     http_hdr.obj
 0003:00000808       $SG99584                   000000018001b808     http_hdr.obj
 0003:00000820       $SG99585                   000000018001b820     http_hdr.obj
 0003:00000838       $SG99587                   000000018001b838     http_hdr.obj
 0003:00000870       $SG99590                   000000018001b870     http_hdr.obj
 0003:00000878       $SG99598                   000000018001b878     http_hdr.obj
 0003:00000888       $SG99599                   000000018001b888     http_hdr.obj
 0003:000008b0       $SG99608                   000000018001b8b0     http_hdr.obj
 0003:000008c0       $SG99616                   000000018001b8c0     http_hdr.obj
 0003:000008d8       $SG99618                   000000018001b8d8     http_hdr.obj
 0003:000008f0       $SG99619                   000000018001b8f0     http_hdr.obj
 0003:00000908       $SG99621                   000000018001b908     http_hdr.obj
 0003:00000930       $SG99624                   000000018001b930     http_hdr.obj
 0003:00000938       $SG99632                   000000018001b938     http_hdr.obj
 0003:00000948       $SG99634                   000000018001b948     http_hdr.obj
 0003:00000970       $SG99643                   000000018001b970     http_hdr.obj
 0003:00000980       $SG99651                   000000018001b980     http_hdr.obj
 0003:00000998       $SG99653                   000000018001b998     http_hdr.obj
 0003:000009b0       $SG99654                   000000018001b9b0     http_hdr.obj
 0003:000009c8       $SG99656                   000000018001b9c8     http_hdr.obj
 0003:000009f0       $SG99659                   000000018001b9f0     http_hdr.obj
 0003:000009f8       $SG99667                   000000018001b9f8     http_hdr.obj
 0003:00000a08       $SG99669                   000000018001ba08     http_hdr.obj
 0003:00000a30       $SG99197                   000000018001ba30     http_hdr.obj
 0003:00000a40       $SG99203                   000000018001ba40     http_hdr.obj
 0003:00000a58       $SG99204                   000000018001ba58     http_hdr.obj
 0003:00000a78       $SG99207                   000000018001ba78     http_hdr.obj
 0003:00000a90       $SG99237                   000000018001ba90     http_hdr.obj
 0003:00000aa8       $SG99257                   000000018001baa8     http_hdr.obj
 0003:00000ac0       $SG99276                   000000018001bac0     http_hdr.obj
 0003:00000ad8       $SG99294                   000000018001bad8     http_hdr.obj
 0003:00000af0       $SG99302                   000000018001baf0     http_hdr.obj
 0003:00000b08       $SG99308                   000000018001bb08     http_hdr.obj
 0003:00000b20       $SG99319                   000000018001bb20     http_hdr.obj
 0003:00000b38       $SG99320                   000000018001bb38     http_hdr.obj
 0003:00000b58       $SG99205                   000000018001bb58     http_hdr_build.obj
 0003:00000b60       $SG99215                   000000018001bb60     http_hdr_build.obj
 0003:00000b74       $SG99250                   000000018001bb74     http_hdr_build.obj
 0003:00000b7c       $SG99262                   000000018001bb7c     http_hdr_build.obj
 0003:00000b84       $SG99300                   000000018001bb84     http_hdr_build.obj
 0003:00000b88       $SG99222                   000000018001bb88     http_hdr_build.obj
 0003:00000ba4       $SG99321                   000000018001bba4     http_hdr_build.obj
 0003:00000ba8       $SG99223                   000000018001bba8     http_hdr_build.obj
 0003:00000bc8       $SG99245                   000000018001bbc8     http_hdr_build.obj
 0003:00000bd8       $SG99249                   000000018001bbd8     http_hdr_build.obj
 0003:00000be8       $SG99251                   000000018001bbe8     http_hdr_build.obj
 0003:00000bf8       $SG99252                   000000018001bbf8     http_hdr_build.obj
 0003:00000c08       $SG99253                   000000018001bc08     http_hdr_build.obj
 0003:00000c18       $SG99260                   000000018001bc18     http_hdr_build.obj
 0003:00000c28       $SG99261                   000000018001bc28     http_hdr_build.obj
 0003:00000c34       $SG99268                   000000018001bc34     http_hdr_build.obj
 0003:00000c3c       $SG99275                   000000018001bc3c     http_hdr_build.obj
 0003:00000c48       $SG99276                   000000018001bc48     http_hdr_build.obj
 0003:00000c58       $SG99277                   000000018001bc58     http_hdr_build.obj
 0003:00000c68       $SG99278                   000000018001bc68     http_hdr_build.obj
 0003:00000c70       $SG99279                   000000018001bc70     http_hdr_build.obj
 0003:00000c80       $SG99280                   000000018001bc80     http_hdr_build.obj
 0003:00000c90       $SG99291                   000000018001bc90     http_hdr_build.obj
 0003:00000c98       $SG99299                   000000018001bc98     http_hdr_build.obj
 0003:00000ca8       $SG99312                   000000018001bca8     http_hdr_build.obj
 0003:00000cc0       $SG99320                   000000018001bcc0     http_hdr_build.obj
 0003:00000cd0       $SG99332                   000000018001bcd0     http_hdr_req.obj
 0003:00000ce4       $SG99356                   000000018001bce4     http_hdr_req.obj
 0003:00000ce8       ?__user_agent@?1??http_hdr_req_create@@9@9 000000018001bce8     http_hdr_req.obj
 0003:00000cf0       $SG99340                   000000018001bcf0     http_hdr_req.obj
 0003:00000d48       $SG99344                   000000018001bd48     http_hdr_req.obj
 0003:00000d5c       $SG99400                   000000018001bd5c     http_hdr_req.obj
 0003:00000d60       $SG99349                   000000018001bd60     http_hdr_req.obj
 0003:00000d78       $SG99354                   000000018001bd78     http_hdr_req.obj
 0003:00000d90       $SG99358                   000000018001bd90     http_hdr_req.obj
 0003:00000d98       $SG99364                   000000018001bd98     http_hdr_req.obj
 0003:00000da0       $SG99367                   000000018001bda0     http_hdr_req.obj
 0003:00000da8       $SG99371                   000000018001bda8     http_hdr_req.obj
 0003:00000db4       $SG99377                   000000018001bdb4     http_hdr_req.obj
 0003:00000dbc       $SG99380                   000000018001bdbc     http_hdr_req.obj
 0003:00000dc4       $SG99388                   000000018001bdc4     http_hdr_req.obj
 0003:00000dcc       $SG99391                   000000018001bdcc     http_hdr_req.obj
 0003:00000dd4       $SG99418                   000000018001bdd4     http_hdr_req.obj
 0003:00000ddc       $SG99499                   000000018001bddc     http_hdr_req.obj
 0003:00000de0       $SG99405                   000000018001bde0     http_hdr_req.obj
 0003:00000e10       $SG99417                   000000018001be10     http_hdr_req.obj
 0003:00000e18       $SG99419                   000000018001be18     http_hdr_req.obj
 0003:00000e24       $SG99549                   000000018001be24     http_hdr_req.obj
 0003:00000e28       $SG99420                   000000018001be28     http_hdr_req.obj
 0003:00000e34       $SG99551                   000000018001be34     http_hdr_req.obj
 0003:00000e38       $SG99428                   000000018001be38     http_hdr_req.obj
 0003:00000e4c       $SG99575                   000000018001be4c     http_hdr_req.obj
 0003:00000e54       $SG99584                   000000018001be54     http_hdr_req.obj
 0003:00000e58       $SG99432                   000000018001be58     http_hdr_req.obj
 0003:00000e74       $SG99620                   000000018001be74     http_hdr_req.obj
 0003:00000e78       $SG99435                   000000018001be78     http_hdr_req.obj
 0003:00000e94       $SG99675                   000000018001be94     http_hdr_req.obj
 0003:00000e98       $SG99436                   000000018001be98     http_hdr_req.obj
 0003:00000ec0       $SG99490                   000000018001bec0     http_hdr_req.obj
 0003:00000ed4       $SG99686                   000000018001bed4     http_hdr_req.obj
 0003:00000ed8       $SG99554                   000000018001bed8     http_hdr_req.obj
 0003:00000ef4       $SG99687                   000000018001bef4     http_hdr_req.obj
 0003:00000ef8       $SG99555                   000000018001bef8     http_hdr_req.obj
 0003:00000f20       $SG99564                   000000018001bf20     http_hdr_req.obj
 0003:00000f3c       $SG99754                   000000018001bf3c     http_hdr_req.obj
 0003:00000f40       $SG99571                   000000018001bf40     http_hdr_req.obj
 0003:00000f5c       $SG99801                   000000018001bf5c     http_hdr_req.obj
 0003:00000f60       $SG99572                   000000018001bf60     http_hdr_req.obj
 0003:00000f7c       $SG99856                   000000018001bf7c     http_hdr_req.obj
 0003:00000f80       $SG99582                   000000018001bf80     http_hdr_req.obj
 0003:00000f9c       $SG99864                   000000018001bf9c     http_hdr_req.obj
 0003:00000fa0       $SG99583                   000000018001bfa0     http_hdr_req.obj
 0003:00000fc4       ?key@?1??http_hdr_req_url@@9@9 000000018001bfc4     http_hdr_req.obj
 0003:00000fc8       $SG99596                   000000018001bfc8     http_hdr_req.obj
 0003:00000fe0       $SG99601                   000000018001bfe0     http_hdr_req.obj
 0003:00000ffc       $SG100010                  000000018001bffc     http_hdr_req.obj
 0003:00001004       __http_uri_unsafe_correct  000000018001c004     http_hdr_req.obj
 0003:00001008       $SG99602                   000000018001c008     http_hdr_req.obj
 0003:00001024       $SG100013                  000000018001c024     http_hdr_req.obj
 0003:0000102c       __http_hdr_max_request     000000018001c02c     http_hdr_req.obj
 0003:00001030       $SG99606                   000000018001c030     http_hdr_req.obj
 0003:0000104c       __http_hdr_max_cookies     000000018001c04c     http_hdr_req.obj
 0003:00001050       $SG99607                   000000018001c050     http_hdr_req.obj
 0003:00001070       $SG99616                   000000018001c070     http_hdr_req.obj
 0003:00001084       cache_key                  000000018001c084     http_hdr_req.obj
 0003:00001088       $SG99624                   000000018001c088     http_hdr_req.obj
 0003:000010a8       $SG99627                   000000018001c0a8     http_hdr_req.obj
 0003:000010c8       $SG99628                   000000018001c0c8     http_hdr_req.obj
 0003:000010e8       $SG99631                   000000018001c0e8     http_hdr_req.obj
 0003:00001108       $SG99632                   000000018001c108     http_hdr_req.obj
 0003:00001130       $SG99644                   000000018001c130     http_hdr_req.obj
 0003:00001138       $SG99647                   000000018001c138     http_hdr_req.obj
 0003:00001148       $SG99702                   000000018001c148     http_hdr_req.obj
 0003:00001160       $SG99710                   000000018001c160     http_hdr_req.obj
 0003:00001168       $SG99713                   000000018001c168     http_hdr_req.obj
 0003:00001178       $SG99715                   000000018001c178     http_hdr_req.obj
 0003:00001180       $SG99751                   000000018001c180     http_hdr_req.obj
 0003:000011a0       $SG99752                   000000018001c1a0     http_hdr_req.obj
 0003:000011c8       $SG99767                   000000018001c1c8     http_hdr_req.obj
 0003:000011e0       $SG99775                   000000018001c1e0     http_hdr_req.obj
 0003:00001200       $SG99776                   000000018001c200     http_hdr_req.obj
 0003:00001220       $SG99779                   000000018001c220     http_hdr_req.obj
 0003:00001240       $SG99780                   000000018001c240     http_hdr_req.obj
 0003:00001260       $SG99782                   000000018001c260     http_hdr_req.obj
 0003:00001280       $SG99783                   000000018001c280     http_hdr_req.obj
 0003:00001298       $SG99787                   000000018001c298     http_hdr_req.obj
 0003:000012b8       $SG99788                   000000018001c2b8     http_hdr_req.obj
 0003:000012d0       $SG99792                   000000018001c2d0     http_hdr_req.obj
 0003:000012f0       $SG99793                   000000018001c2f0     http_hdr_req.obj
 0003:00001318       $SG99803                   000000018001c318     http_hdr_req.obj
 0003:00001338       $SG99804                   000000018001c338     http_hdr_req.obj
 0003:00001368       $SG99805                   000000018001c368     http_hdr_req.obj
 0003:00001370       $SG99835                   000000018001c370     http_hdr_req.obj
 0003:00001388       $SG99847                   000000018001c388     http_hdr_req.obj
 0003:000013a0       $SG99849                   000000018001c3a0     http_hdr_req.obj
 0003:000013c0       $SG99851                   000000018001c3c0     http_hdr_req.obj
 0003:000013c8       $SG99852                   000000018001c3c8     http_hdr_req.obj
 0003:000013d0       $SG99853                   000000018001c3d0     http_hdr_req.obj
 0003:000013d8       $SG99859                   000000018001c3d8     http_hdr_req.obj
 0003:000013e8       $SG99860                   000000018001c3e8     http_hdr_req.obj
 0003:000013f8       $SG99861                   000000018001c3f8     http_hdr_req.obj
 0003:00001408       $SG99885                   000000018001c408     http_hdr_req.obj
 0003:00001418       $SG99887                   000000018001c418     http_hdr_req.obj
 0003:00001428       $SG99889                   000000018001c428     http_hdr_req.obj
 0003:00001438       $SG99895                   000000018001c438     http_hdr_req.obj
 0003:00001458       $SG99900                   000000018001c458     http_hdr_req.obj
 0003:00001474       $SG99908                   000000018001c474     http_hdr_req.obj
 0003:00001480       $SG99913                   000000018001c480     http_hdr_req.obj
 0003:000014a0       $SG99915                   000000018001c4a0     http_hdr_req.obj
 0003:000014c0       $SG99934                   000000018001c4c0     http_hdr_req.obj
 0003:000014d8       $SG99939                   000000018001c4d8     http_hdr_req.obj
 0003:000014f8       $SG99940                   000000018001c4f8     http_hdr_req.obj
 0003:00001518       $SG99949                   000000018001c518     http_hdr_req.obj
 0003:00001530       $SG99952                   000000018001c530     http_hdr_req.obj
 0003:00001550       $SG99953                   000000018001c550     http_hdr_req.obj
 0003:00001570       $SG99997                   000000018001c570     http_hdr_req.obj
 0003:00001588       $SG100003                  000000018001c588     http_hdr_req.obj
 0003:000015a0       $SG100006                  000000018001c5a0     http_hdr_req.obj
 0003:000015b8       $SG100007                  000000018001c5b8     http_hdr_req.obj
 0003:000015c0       $SG99205                   000000018001c5c0     http_hdr_req.obj
 0003:000015d0       $SG99208                   000000018001c5d0     http_hdr_req.obj
 0003:000015f0       $SG99209                   000000018001c5f0     http_hdr_req.obj
 0003:00001610       $SG99212                   000000018001c610     http_hdr_req.obj
 0003:00001630       $SG99213                   000000018001c630     http_hdr_req.obj
 0003:00001650       $SG99216                   000000018001c650     http_hdr_req.obj
 0003:00001670       $SG99217                   000000018001c670     http_hdr_req.obj
 0003:00001690       $SG99220                   000000018001c690     http_hdr_req.obj
 0003:000016b0       $SG99221                   000000018001c6b0     http_hdr_req.obj
 0003:000016d0       $SG99230                   000000018001c6d0     http_hdr_req.obj
 0003:000016f0       $SG99240                   000000018001c6f0     http_hdr_req.obj
 0003:00001710       $SG99333                   000000018001c710     http_hdr_res.obj
 0003:00001728       $SG99341                   000000018001c728     http_hdr_res.obj
 0003:00001740       $SG99344                   000000018001c740     http_hdr_res.obj
 0003:00001758       $SG99347                   000000018001c758     http_hdr_res.obj
 0003:00001770       $SG99348                   000000018001c770     http_hdr_res.obj
 0003:00001780       $SG99360                   000000018001c780     http_hdr_res.obj
 0003:00001788       cache_key                  000000018001c788     http_hdr_res.obj
 0003:0000178c       $SG99279                   000000018001c78c     http_hdr_res.obj
 0003:00001790       $SG99270                   000000018001c790     http_hdr_res.obj
 0003:000017ac       $SG99317                   000000018001c7ac     http_hdr_res.obj
 0003:000017b0       $SG99277                   000000018001c7b0     http_hdr_res.obj
 0003:000017d0       $SG99278                   000000018001c7d0     http_hdr_res.obj
 0003:000017f0       $SG99281                   000000018001c7f0     http_hdr_res.obj
 0003:00001810       $SG99282                   000000018001c810     http_hdr_res.obj
 0003:00001840       $SG99286                   000000018001c840     http_hdr_res.obj
 0003:00001860       $SG99287                   000000018001c860     http_hdr_res.obj
 0003:00001888       $SG99289                   000000018001c888     http_hdr_res.obj
 0003:000018a8       $SG99290                   000000018001c8a8     http_hdr_res.obj
 0003:000018c8       $SG99295                   000000018001c8c8     http_hdr_res.obj
 0003:000018e0       $SG99304                   000000018001c8e0     http_hdr_res.obj
 0003:000018f8       $SG99307                   000000018001c8f8     http_hdr_res.obj
 0003:00001910       $SG99309                   000000018001c910     http_hdr_res.obj
 0003:00001930       $SG99316                   000000018001c930     http_hdr_res.obj
 0003:00001958       $SG99200                   000000018001c958     http_init.obj
 0003:00001970       $SG99191                   000000018001c970     http_req.obj
 0003:00001980       $SG99195                   000000018001c980     http_req.obj
 0003:00001998       $SG99199                   000000018001c998     http_req.obj
 0003:000019b0       $SG99200                   000000018001c9b0     http_req.obj
 0003:000019d0       $SG99211                   000000018001c9d0     http_req.obj
 0003:000019e8       $SG99191                   000000018001c9e8     http_res.obj
 0003:000019f8       $SG99195                   000000018001c9f8     http_res.obj
 0003:00001a10       $SG99199                   000000018001ca10     http_res.obj
 0003:00001a28       $SG99200                   000000018001ca28     http_res.obj
 0003:00001a48       $SG99211                   000000018001ca48     http_res.obj
 0003:00001a60       $SG99200                   000000018001ca60     http_rfc1123.obj
 0003:00001a80       __status_lines_100         000000018001ca80     http_status.obj
 0003:00001ab0       $SG99192                   000000018001cab0     http_status.obj
 0003:00001ac0       $SG99193                   000000018001cac0     http_status.obj
 0003:00001ad8       $SG99194                   000000018001cad8     http_status.obj
 0003:00001ae8       $SG99196                   000000018001cae8     http_status.obj
 0003:00001af0       __status_lines_200         000000018001caf0     http_status.obj
 0003:00001b70       $SG99197                   000000018001cb70     http_status.obj
 0003:00001b80       $SG99198                   000000018001cb80     http_status.obj
 0003:00001b90       $SG99199                   000000018001cb90     http_status.obj
 0003:00001bb8       $SG99200                   000000018001cbb8     http_status.obj
 0003:00001bc8       $SG99201                   000000018001cbc8     http_status.obj
 0003:00001be0       $SG99202                   000000018001cbe0     http_status.obj
 0003:00001bf8       $SG99203                   000000018001cbf8     http_status.obj
 0003:00001c10       __status_lines_300         000000018001cc10     http_status.obj
 0003:00001c90       $SG99205                   000000018001cc90     http_status.obj
 0003:00001ca8       $SG99206                   000000018001cca8     http_status.obj
 0003:00001cc0       $SG99207                   000000018001ccc0     http_status.obj
 0003:00001cd0       $SG99208                   000000018001ccd0     http_status.obj
 0003:00001ce0       $SG99209                   000000018001cce0     http_status.obj
 0003:00001cf8       $SG99210                   000000018001ccf8     http_status.obj
 0003:00001d08       $SG99211                   000000018001cd08     http_status.obj
 0003:00001d18       $SG99212                   000000018001cd18     http_status.obj
 0003:00001d30       __status_lines_400         000000018001cd30     http_status.obj
 0003:00001ee0       $SG99218                   000000018001cee0     http_status.obj
 0003:00001ef0       $SG99219                   000000018001cef0     http_status.obj
 0003:00001f10       $SG99220                   000000018001cf10     http_status.obj
 0003:00001f28       $SG99221                   000000018001cf28     http_status.obj
 0003:00001f38       $SG99222                   000000018001cf38     http_status.obj
 0003:00001f48       $SG99223                   000000018001cf48     http_status.obj
 0003:00001f60       $SG99224                   000000018001cf60     http_status.obj
 0003:00001f78       $SG99225                   000000018001cf78     http_status.obj
 0003:00001fa0       $SG99226                   000000018001cfa0     http_status.obj
 0003:00001fb8       $SG99227                   000000018001cfb8     http_status.obj
 0003:00001fc8       $SG99228                   000000018001cfc8     http_status.obj
 0003:00001fd8       $SG99229                   000000018001cfd8     http_status.obj
 0003:00001ff0       $SG99230                   000000018001cff0     http_status.obj
 0003:00002008       $SG99231                   000000018001d008     http_status.obj
 0003:00002028       $SG99232                   000000018001d028     http_status.obj
 0003:00002048       $SG99233                   000000018001d048     http_status.obj
 0003:00002068       $SG99234                   000000018001d068     http_status.obj
 0003:00002090       $SG99235                   000000018001d090     http_status.obj
 0003:000020a8       $SG99236                   000000018001d0a8     http_status.obj
 0003:000020c8       $SG99237                   000000018001d0c8     http_status.obj
 0003:000020d8       $SG99238                   000000018001d0d8     http_status.obj
 0003:000020f0       $SG99239                   000000018001d0f0     http_status.obj
 0003:00002100       $SG99240                   000000018001d100     http_status.obj
 0003:00002120       __status_lines_500         000000018001d120     http_status.obj
 0003:000021d0       $SG99244                   000000018001d1d0     http_status.obj
 0003:000021f0       $SG99245                   000000018001d1f0     http_status.obj
 0003:00002210       $SG99246                   000000018001d210     http_status.obj
 0003:00002220       $SG99247                   000000018001d220     http_status.obj
 0003:00002248       $SG99248                   000000018001d248     http_status.obj
 0003:00002260       $SG99249                   000000018001d260     http_status.obj
 0003:00002280       $SG99250                   000000018001d280     http_status.obj
 0003:000022a0       $SG99251                   000000018001d2a0     http_status.obj
 0003:000022c0       $SG99252                   000000018001d2c0     http_status.obj
 0003:000022e0       __status_maps              000000018001d2e0     http_status.obj
 0003:00002330       $SG99271                   000000018001d330     http_status.obj
 0003:00002358       $SG99273                   000000018001d358     http_status.obj
 0003:00002380       $SG99276                   000000018001d380     http_status.obj
 0003:000023b0       $SG99328                   000000018001d3b0     http_tmpl.obj
 0003:000023b8       $SG99329                   000000018001d3b8     http_tmpl.obj
 0003:000023c8       $SG99330                   000000018001d3c8     http_tmpl.obj
 0003:000023dc       $SG99401                   000000018001d3dc     http_tmpl.obj
 0003:000023e4       $SG99414                   000000018001d3e4     http_tmpl.obj
 0003:000023e8       $SG99331                   000000018001d3e8     http_tmpl.obj
 0003:000023f8       $SG99348                   000000018001d3f8     http_tmpl.obj
 0003:00002410       __tmpl_5xx_tab             000000018001d410     http_tmpl.obj
 0003:00002570       $SG99349                   000000018001d570     http_tmpl.obj
 0003:0000257c       $SG99409                   000000018001d57c     http_tmpl.obj
 0003:00002584       $SG99212                   000000018001d584     http_tmpl.obj
 0003:00002588       $SG99350                   000000018001d588     http_tmpl.obj
 0003:000025a0       $SG99351                   000000018001d5a0     http_tmpl.obj
 0003:000025ac       $SG99324                   000000018001d5ac     http_tmpl.obj
 0003:000025b8       $SG99352                   000000018001d5b8     http_tmpl.obj
 0003:000025c8       $SG99353                   000000018001d5c8     http_tmpl.obj
 0003:000025d8       $SG99354                   000000018001d5d8     http_tmpl.obj
 0003:000025f8       $SG99355                   000000018001d5f8     http_tmpl.obj
 0003:00002608       $SG99356                   000000018001d608     http_tmpl.obj
 0003:00002620       $SG99357                   000000018001d620     http_tmpl.obj
 0003:00002630       $SG99358                   000000018001d630     http_tmpl.obj
 0003:00002650       $SG99359                   000000018001d650     http_tmpl.obj
 0003:00002660       $SG99360                   000000018001d660     http_tmpl.obj
 0003:00002678       $SG99361                   000000018001d678     http_tmpl.obj
 0003:00002688       $SG99362                   000000018001d688     http_tmpl.obj
 0003:000026a0       $SG99363                   000000018001d6a0     http_tmpl.obj
 0003:000026b0       $SG99364                   000000018001d6b0     http_tmpl.obj
 0003:000026c0       $SG99365                   000000018001d6c0     http_tmpl.obj
 0003:000026d0       __tmpl_maps                000000018001d6d0     http_tmpl.obj
 0003:00002720       __unknown_status           000000018001d720     http_tmpl.obj
 0003:00002728       $SG99379                   000000018001d728     http_tmpl.obj
 0003:00002738       $SG99387                   000000018001d738     http_tmpl.obj
 0003:00002748       $SG99396                   000000018001d748     http_tmpl.obj
 0003:00002760       $SG99397                   000000018001d760     http_tmpl.obj
 0003:00002780       $SG99399                   000000018001d780     http_tmpl.obj
 0003:00002788       $SG99404                   000000018001d788     http_tmpl.obj
 0003:000027a0       $SG99405                   000000018001d7a0     http_tmpl.obj
 0003:000027c0       $SG99419                   000000018001d7c0     http_tmpl.obj
 0003:000027d0       $SG99425                   000000018001d7d0     http_tmpl.obj
 0003:000027e8       $SG99426                   000000018001d7e8     http_tmpl.obj
 0003:00002808       $SG99430                   000000018001d808     http_tmpl.obj
 0003:00002820       $SG99431                   000000018001d820     http_tmpl.obj
 0003:00002840       $SG99432                   000000018001d840     http_tmpl.obj
 0003:00002858       $SG99199                   000000018001d858     http_tmpl.obj
 0003:00002870       __tmpl_1xx_tab             000000018001d870     http_tmpl.obj
 0003:000028d0       $SG99197                   000000018001d8d0     http_tmpl.obj
 0003:000028e0       $SG99198                   000000018001d8e0     http_tmpl.obj
 0003:000028f0       $SG99200                   000000018001d8f0     http_tmpl.obj
 0003:00002900       $SG99201                   000000018001d900     http_tmpl.obj
 0003:00002910       $SG99202                   000000018001d910     http_tmpl.obj
 0003:00002920       __tmpl_2xx_tab             000000018001d920     http_tmpl.obj
 0003:00002a20       $SG99213                   000000018001da20     http_tmpl.obj
 0003:00002a30       $SG99214                   000000018001da30     http_tmpl.obj
 0003:00002a38       $SG99215                   000000018001da38     http_tmpl.obj
 0003:00002a48       $SG99216                   000000018001da48     http_tmpl.obj
 0003:00002a58       $SG99217                   000000018001da58     http_tmpl.obj
 0003:00002a68       $SG99218                   000000018001da68     http_tmpl.obj
 0003:00002a88       $SG99219                   000000018001da88     http_tmpl.obj
 0003:00002a98       $SG99220                   000000018001da98     http_tmpl.obj
 0003:00002aa8       $SG99221                   000000018001daa8     http_tmpl.obj
 0003:00002ab8       $SG99222                   000000018001dab8     http_tmpl.obj
 0003:00002ac8       $SG99223                   000000018001dac8     http_tmpl.obj
 0003:00002ad8       $SG99224                   000000018001dad8     http_tmpl.obj
 0003:00002ae8       $SG99225                   000000018001dae8     http_tmpl.obj
 0003:00002af8       $SG99226                   000000018001daf8     http_tmpl.obj
 0003:00002b08       $SG99227                   000000018001db08     http_tmpl.obj
 0003:00002b18       $SG99236                   000000018001db18     http_tmpl.obj
 0003:00002b30       __tmpl_3xx_tab             000000018001db30     http_tmpl.obj
 0003:00002c10       $SG99237                   000000018001dc10     http_tmpl.obj
 0003:00002c20       $SG99238                   000000018001dc20     http_tmpl.obj
 0003:00002c38       $SG99239                   000000018001dc38     http_tmpl.obj
 0003:00002c48       $SG99240                   000000018001dc48     http_tmpl.obj
 0003:00002c60       $SG99241                   000000018001dc60     http_tmpl.obj
 0003:00002c70       $SG99242                   000000018001dc70     http_tmpl.obj
 0003:00002c80       $SG99243                   000000018001dc80     http_tmpl.obj
 0003:00002c90       $SG99244                   000000018001dc90     http_tmpl.obj
 0003:00002ca0       $SG99245                   000000018001dca0     http_tmpl.obj
 0003:00002cb0       $SG99246                   000000018001dcb0     http_tmpl.obj
 0003:00002cc0       $SG99247                   000000018001dcc0     http_tmpl.obj
 0003:00002cd0       $SG99248                   000000018001dcd0     http_tmpl.obj
 0003:00002ce8       $SG99249                   000000018001dce8     http_tmpl.obj
 0003:00002cf8       $SG99286                   000000018001dcf8     http_tmpl.obj
 0003:00002d04       $SG99306                   000000018001dd04     http_tmpl.obj
 0003:00002d10       __tmpl_4xx_tab             000000018001dd10     http_tmpl.obj
 0003:00003070       $SG99287                   000000018001e070     http_tmpl.obj
 0003:00003080       $SG99288                   000000018001e080     http_tmpl.obj
 0003:00003098       $SG99289                   000000018001e098     http_tmpl.obj
 0003:000030a8       $SG99290                   000000018001e0a8     http_tmpl.obj
 0003:000030c0       $SG99291                   000000018001e0c0     http_tmpl.obj
 0003:000030d0       $SG99292                   000000018001e0d0     http_tmpl.obj
 0003:000030e0       $SG99293                   000000018001e0e0     http_tmpl.obj
 0003:000030f0       $SG99294                   000000018001e0f0     http_tmpl.obj
 0003:00003100       $SG99295                   000000018001e100     http_tmpl.obj
 0003:00003110       $SG99296                   000000018001e110     http_tmpl.obj
 0003:00003128       $SG99297                   000000018001e128     http_tmpl.obj
 0003:00003138       $SG99298                   000000018001e138     http_tmpl.obj
 0003:00003148       $SG99299                   000000018001e148     http_tmpl.obj
 0003:00003158       $SG99300                   000000018001e158     http_tmpl.obj
 0003:00003178       $SG99301                   000000018001e178     http_tmpl.obj
 0003:00003188       $SG99302                   000000018001e188     http_tmpl.obj
 0003:000031a0       $SG99303                   000000018001e1a0     http_tmpl.obj
 0003:000031b0       $SG99304                   000000018001e1b0     http_tmpl.obj
 0003:000031c0       $SG99305                   000000018001e1c0     http_tmpl.obj
 0003:000031d0       $SG99307                   000000018001e1d0     http_tmpl.obj
 0003:000031e0       $SG99308                   000000018001e1e0     http_tmpl.obj
 0003:000031f0       $SG99309                   000000018001e1f0     http_tmpl.obj
 0003:00003200       $SG99310                   000000018001e200     http_tmpl.obj
 0003:00003218       $SG99311                   000000018001e218     http_tmpl.obj
 0003:00003228       $SG99312                   000000018001e228     http_tmpl.obj
 0003:00003248       $SG99313                   000000018001e248     http_tmpl.obj
 0003:00003258       $SG99314                   000000018001e258     http_tmpl.obj
 0003:00003270       $SG99315                   000000018001e270     http_tmpl.obj
 0003:00003280       $SG99316                   000000018001e280     http_tmpl.obj
 0003:00003298       $SG99317                   000000018001e298     http_tmpl.obj
 0003:000032a8       $SG99318                   000000018001e2a8     http_tmpl.obj
 0003:000032c8       $SG99319                   000000018001e2c8     http_tmpl.obj
 0003:000032d8       $SG99320                   000000018001e2d8     http_tmpl.obj
 0003:000032f0       $SG99321                   000000018001e2f0     http_tmpl.obj
 0003:00003300       $SG99322                   000000018001e300     http_tmpl.obj
 0003:00003318       $SG99323                   000000018001e318     http_tmpl.obj
 0003:00003328       $SG99325                   000000018001e328     http_tmpl.obj
 0003:00003338       $SG99326                   000000018001e338     http_tmpl.obj
 0003:00003350       $SG99327                   000000018001e350     http_tmpl.obj
 0003:00003360       $SG99346                   000000018001e360     http_util.obj
 0003:00003378       $SG99354                   000000018001e378     http_util.obj
 0003:0000338c       $SG99376                   000000018001e38c     http_util.obj
 0003:00003390       $SG99358                   000000018001e390     http_util.obj
 0003:000033a8       $SG99364                   000000018001e3a8     http_util.obj
 0003:000033bc       $SG99441                   000000018001e3bc     http_util.obj
 0003:000033c0       $SG99369                   000000018001e3c0     http_util.obj
 0003:000033d8       $SG99372                   000000018001e3d8     http_util.obj
 0003:000033e0       $SG99373                   000000018001e3e0     http_util.obj
 0003:000033f8       $SG99377                   000000018001e3f8     http_util.obj
 0003:00003400       $SG99378                   000000018001e400     http_util.obj
 0003:00003408       $SG99379                   000000018001e408     http_util.obj
 0003:00003410       $SG99380                   000000018001e410     http_util.obj
 0003:0000342c       $SG99449                   000000018001e42c     http_util.obj
 0003:00003430       $SG99382                   000000018001e430     http_util.obj
 0003:0000343c       $SG99386                   000000018001e43c     http_util.obj
 0003:00003444       $SG99487                   000000018001e444     http_util.obj
 0003:00003448       $SG99401                   000000018001e448     http_util.obj
 0003:00003460       $SG99442                   000000018001e460     http_util.obj
 0003:00003470       $SG99450                   000000018001e470     http_util.obj
 0003:0000347c       $SG99488                   000000018001e47c     http_util.obj
 0003:00003480       $SG99451                   000000018001e480     http_util.obj
 0003:0000348c       $SG99659                   000000018001e48c     http_util.obj
 0003:00003490       $SG99452                   000000018001e490     http_util.obj
 0003:0000349c       $SG99686                   000000018001e49c     http_util.obj
 0003:000034a0       $SG99461                   000000018001e4a0     http_util.obj
 0003:000034b0       $SG99470                   000000018001e4b0     http_util.obj
 0003:000034b8       $SG99493                   000000018001e4b8     http_util.obj
 0003:000034d0       $SG99514                   000000018001e4d0     http_util.obj
 0003:000034f0       $SG99518                   000000018001e4f0     http_util.obj
 0003:00003528       $SG99525                   000000018001e528     http_util.obj
 0003:00003540       $SG99529                   000000018001e540     http_util.obj
 0003:00003560       $SG99531                   000000018001e560     http_util.obj
 0003:00003598       $SG99534                   000000018001e598     http_util.obj
 0003:000035c0       $SG99539                   000000018001e5c0     http_util.obj
 0003:000035d8       $SG99543                   000000018001e5d8     http_util.obj
 0003:000035f8       $SG99547                   000000018001e5f8     http_util.obj
 0003:00003628       $SG99556                   000000018001e628     http_util.obj
 0003:00003640       $SG99561                   000000018001e640     http_util.obj
 0003:0000364c       $SG99562                   000000018001e64c     http_util.obj
 0003:00003658       $SG99563                   000000018001e658     http_util.obj
 0003:00003680       $SG99570                   000000018001e680     http_util.obj
 0003:00003698       $SG99573                   000000018001e698     http_util.obj
 0003:000036c0       $SG99576                   000000018001e6c0     http_util.obj
 0003:000036e8       $SG99629                   000000018001e6e8     http_util.obj
 0003:00003700       $SG99635                   000000018001e700     http_util.obj
 0003:0000370c       $SG99636                   000000018001e70c     http_util.obj
 0003:00003718       $SG99637                   000000018001e718     http_util.obj
 0003:00003740       $SG99646                   000000018001e740     http_util.obj
 0003:00003768       $SG99657                   000000018001e768     http_util.obj
 0003:00003780       $SG99667                   000000018001e780     http_util.obj
 0003:00003798       $SG99669                   000000018001e798     http_util.obj
 0003:000037c0       $SG99671                   000000018001e7c0     http_util.obj
 0003:000037e0       $SG99673                   000000018001e7e0     http_util.obj
 0003:00003800       $SG99684                   000000018001e800     http_util.obj
 0003:00003820       $SG99693                   000000018001e820     http_util.obj
 0003:00003838       $SG99695                   000000018001e838     http_util.obj
 0003:00003858       $SG99697                   000000018001e858     http_util.obj
 0003:00003878       $SG99563                   000000018001e878     icmp_chat.obj
 0003:00003898       $SG99566                   000000018001e898     icmp_chat.obj
 0003:000038b0       $SG99353                   000000018001e8b0     icmp_chat_aio.obj
 0003:000038d0       $SG99188                   000000018001e8d0     icmp_chat_aio.obj
 0003:000038e0       $SG99194                   000000018001e8e0     icmp_chat_aio.obj
 0003:000038f8       $SG99244                   000000018001e8f8     icmp_chat_aio.obj
 0003:00003908       $SG99247                   000000018001e908     icmp_chat_aio.obj
 0003:00003920       $SG99254                   000000018001e920     icmp_chat_aio.obj
 0003:00003930       $SG99257                   000000018001e930     icmp_chat_aio.obj
 0003:00003948       $SG99268                   000000018001e948     icmp_chat_aio.obj
 0003:00003958       $SG99276                   000000018001e958     icmp_chat_aio.obj
 0003:00003978       $SG99277                   000000018001e978     icmp_chat_aio.obj
 0003:00003990       $SG99296                   000000018001e990     icmp_chat_aio.obj
 0003:000039b0       $SG99315                   000000018001e9b0     icmp_chat_aio.obj
 0003:000039c0       $SG99316                   000000018001e9c0     icmp_chat_aio.obj
 0003:000039d8       $SG99324                   000000018001e9d8     icmp_chat_aio.obj
 0003:000039e8       $SG99325                   000000018001e9e8     icmp_chat_aio.obj
 0003:00003a00       $SG99193                   000000018001ea00     icmp_chat_sio.obj
 0003:00003a10       $SG99235                   000000018001ea10     icmp_chat_sio.obj
 0003:00003a30       $SG99178                   000000018001ea30     icmp_host.obj
 0003:00003a48       $SG99192                   000000018001ea48     icmp_host.obj
 0003:00003a58       $SG99193                   000000018001ea58     icmp_host.obj
 0003:00003a68       $SG99196                   000000018001ea68     icmp_host.obj
 0003:00003a80       $SG99236                   000000018001ea80     icmp_host.obj
 0003:00003a98       $SG99186                   000000018001ea98     icmp_pkt.obj
 0003:00003ab0       $SG99194                   000000018001eab0     icmp_pkt.obj
 0003:00003ac8       $SG99272                   000000018001eac8     icmp_pkt.obj
 0003:00003ae0       $SG99276                   000000018001eae0     icmp_pkt.obj
 0003:00003ae4       $SG99286                   000000018001eae4     icmp_pkt.obj
 0003:00003ae8       $SG99296                   000000018001eae8     icmp_pkt.obj
 0003:00003b10       $SG99187                   000000018001eb10     icmp_stat.obj
 0003:00003b30       $SG99196                   000000018001eb30     icmp_stat.obj
 0003:00003b60       $SG99206                   000000018001eb60     icmp_stat.obj
 0003:00003ba8       $SG99231                   000000018001eba8     icmp_stat.obj
 0003:00003bc8       $SG99235                   000000018001ebc8     icmp_stat.obj
 0003:00003c08       $SG99237                   000000018001ec08     icmp_stat.obj
 0003:00003c38       $SG99238                   000000018001ec38     icmp_stat.obj
 0003:00003c78       $SG99251                   000000018001ec78     icmp_stat.obj
 0003:00003c90       $SG99188                   000000018001ec90     icmp_stream.obj
 0003:00003cb0       $SG99189                   000000018001ecb0     icmp_stream.obj
 0003:00003cd0       $SG99238                   000000018001ecd0     icmp_stream.obj
 0003:00003cf0       $SG99244                   000000018001ecf0     icmp_stream.obj
 0003:00003d08       $SG99249                   000000018001ed08     icmp_stream.obj
 0003:00003d28       $SG99252                   000000018001ed28     icmp_stream.obj
 0003:00003d48       $SG98947                   000000018001ed48     icmp_timer.obj
 0003:00003d60       $SG98981                   000000018001ed60     icmp_timer.obj
 0003:00003d78       $SG99008                   000000018001ed78     icmp_timer.obj
 0003:00003d90       $SG99030                   000000018001ed90     icmp_timer.obj
 0003:00003da8       $SG99036                   000000018001eda8     icmp_timer.obj
 0003:00003dc0       $SG99044                   000000018001edc0     icmp_timer.obj
 0003:00003dd8       $SG99333                   000000018001edd8     smtp_client.obj
 0003:00003de0       $SG99335                   000000018001ede0     smtp_client.obj
 0003:00003dec       $SG99354                   000000018001edec     smtp_client.obj
 0003:00003df4       $SG98928                   000000018001edf4     smtp_client.obj
 0003:00003df8       $SG99336                   000000018001edf8     smtp_client.obj
 0003:00003e18       $SG99338                   000000018001ee18     smtp_client.obj
 0003:00003e24       $SG98960                   000000018001ee24     smtp_client.obj
 0003:00003e28       $SG99339                   000000018001ee28     smtp_client.obj
 0003:00003e4c       $SG98965                   000000018001ee4c     smtp_client.obj
 0003:00003e50       $SG99344                   000000018001ee50     smtp_client.obj
 0003:00003e5c       $SG99024                   000000018001ee5c     smtp_client.obj
 0003:00003e60       $SG99345                   000000018001ee60     smtp_client.obj
 0003:00003e84       $SG99091                   000000018001ee84     smtp_client.obj
 0003:00003e88       $SG99347                   000000018001ee88     smtp_client.obj
 0003:00003e94       $SG99158                   000000018001ee94     smtp_client.obj
 0003:00003e98       $SG99348                   000000018001ee98     smtp_client.obj
 0003:00003ec0       $SG99356                   000000018001eec0     smtp_client.obj
 0003:00003ecc       $SG99212                   000000018001eecc     smtp_client.obj
 0003:00003ed0       $SG99357                   000000018001eed0     smtp_client.obj
 0003:00003ef0       $SG99359                   000000018001eef0     smtp_client.obj
 0003:00003efc       $SG99230                   000000018001eefc     smtp_client.obj
 0003:00003f00       $SG99360                   000000018001ef00     smtp_client.obj
 0003:00003f24       $SG99246                   000000018001ef24     smtp_client.obj
 0003:00003f28       $SG99365                   000000018001ef28     smtp_client.obj
 0003:00003f34       $SG99239                   000000018001ef34     smtp_client.obj
 0003:00003f3c       $SG99262                   000000018001ef3c     smtp_client.obj
 0003:00003f40       $SG99366                   000000018001ef40     smtp_client.obj
 0003:00003f64       $SG99255                   000000018001ef64     smtp_client.obj
 0003:00003f6c       $SG99317                   000000018001ef6c     smtp_client.obj
 0003:00003f74       $SG99324                   000000018001ef74     smtp_client.obj
 0003:00003f78       $SG99368                   000000018001ef78     smtp_client.obj
 0003:00003f88       $SG99369                   000000018001ef88     smtp_client.obj
 0003:00003fb0       $SG98839                   000000018001efb0     smtp_client.obj
 0003:00003fc0       $SG98840                   000000018001efc0     smtp_client.obj
 0003:00003fe0       $SG98844                   000000018001efe0     smtp_client.obj
 0003:00003ff8       $SG98846                   000000018001eff8     smtp_client.obj
 0003:00004010       $SG98855                   000000018001f010     smtp_client.obj
 0003:00004028       $SG98861                   000000018001f028     smtp_client.obj
 0003:00004040       $SG98869                   000000018001f040     smtp_client.obj
 0003:00004050       $SG98870                   000000018001f050     smtp_client.obj
 0003:00004070       $SG98875                   000000018001f070     smtp_client.obj
 0003:00004080       $SG98876                   000000018001f080     smtp_client.obj
 0003:000040a0       $SG98878                   000000018001f0a0     smtp_client.obj
 0003:000040b0       $SG98879                   000000018001f0b0     smtp_client.obj
 0003:000040d8       $SG98896                   000000018001f0d8     smtp_client.obj
 0003:000040e8       $SG98898                   000000018001f0e8     smtp_client.obj
 0003:000040f8       $SG98899                   000000018001f0f8     smtp_client.obj
 0003:00004118       $SG98901                   000000018001f118     smtp_client.obj
 0003:00004128       $SG98902                   000000018001f128     smtp_client.obj
 0003:00004148       $SG98907                   000000018001f148     smtp_client.obj
 0003:00004158       $SG98908                   000000018001f158     smtp_client.obj
 0003:00004180       $SG98910                   000000018001f180     smtp_client.obj
 0003:00004190       $SG98911                   000000018001f190     smtp_client.obj
 0003:000041b8       $SG98919                   000000018001f1b8     smtp_client.obj
 0003:000041c4       $SG98922                   000000018001f1c4     smtp_client.obj
 0003:000041d0       $SG98925                   000000018001f1d0     smtp_client.obj
 0003:000041dc       $SG98931                   000000018001f1dc     smtp_client.obj
 0003:000041e4       $SG98934                   000000018001f1e4     smtp_client.obj
 0003:000041f0       $SG98945                   000000018001f1f0     smtp_client.obj
 0003:00004200       $SG98947                   000000018001f200     smtp_client.obj
 0003:00004210       $SG98948                   000000018001f210     smtp_client.obj
 0003:00004230       $SG98953                   000000018001f230     smtp_client.obj
 0003:00004240       $SG98954                   000000018001f240     smtp_client.obj
 0003:00004268       $SG98957                   000000018001f268     smtp_client.obj
 0003:00004278       $SG98958                   000000018001f278     smtp_client.obj
 0003:000042a0       $SG98961                   000000018001f2a0     smtp_client.obj
 0003:000042b0       $SG98962                   000000018001f2b0     smtp_client.obj
 0003:000042d8       $SG98981                   000000018001f2d8     smtp_client.obj
 0003:000042e8       $SG98983                   000000018001f2e8     smtp_client.obj
 0003:000042f8       $SG98984                   000000018001f2f8     smtp_client.obj
 0003:00004320       $SG98994                   000000018001f320     smtp_client.obj
 0003:00004338       $SG99001                   000000018001f338     smtp_client.obj
 0003:00004350       $SG99004                   000000018001f350     smtp_client.obj
 0003:00004360       $SG99005                   000000018001f360     smtp_client.obj
 0003:00004390       $SG99015                   000000018001f390     smtp_client.obj
 0003:000043a8       $SG99022                   000000018001f3a8     smtp_client.obj
 0003:000043c0       $SG99026                   000000018001f3c0     smtp_client.obj
 0003:000043d0       $SG99027                   000000018001f3d0     smtp_client.obj
 0003:000043f8       $SG99037                   000000018001f3f8     smtp_client.obj
 0003:00004410       $SG99044                   000000018001f410     smtp_client.obj
 0003:00004428       $SG99048                   000000018001f428     smtp_client.obj
 0003:00004430       $SG99050                   000000018001f430     smtp_client.obj
 0003:00004440       $SG99051                   000000018001f440     smtp_client.obj
 0003:00004460       $SG99061                   000000018001f460     smtp_client.obj
 0003:00004478       $SG99068                   000000018001f478     smtp_client.obj
 0003:00004490       $SG99071                   000000018001f490     smtp_client.obj
 0003:000044a0       $SG99072                   000000018001f4a0     smtp_client.obj
 0003:000044c0       $SG99082                   000000018001f4c0     smtp_client.obj
 0003:000044d8       $SG99089                   000000018001f4d8     smtp_client.obj
 0003:000044f0       $SG99093                   000000018001f4f0     smtp_client.obj
 0003:00004500       $SG99094                   000000018001f500     smtp_client.obj
 0003:00004528       $SG99104                   000000018001f528     smtp_client.obj
 0003:00004540       $SG99111                   000000018001f540     smtp_client.obj
 0003:00004558       $SG99115                   000000018001f558     smtp_client.obj
 0003:00004560       $SG99117                   000000018001f560     smtp_client.obj
 0003:00004570       $SG99118                   000000018001f570     smtp_client.obj
 0003:00004590       $SG99128                   000000018001f590     smtp_client.obj
 0003:000045a8       $SG99135                   000000018001f5a8     smtp_client.obj
 0003:000045c0       $SG99138                   000000018001f5c0     smtp_client.obj
 0003:000045d0       $SG99139                   000000018001f5d0     smtp_client.obj
 0003:00004600       $SG99149                   000000018001f600     smtp_client.obj
 0003:00004618       $SG99156                   000000018001f618     smtp_client.obj
 0003:00004630       $SG99160                   000000018001f630     smtp_client.obj
 0003:00004640       $SG99161                   000000018001f640     smtp_client.obj
 0003:00004668       $SG99171                   000000018001f668     smtp_client.obj
 0003:00004680       $SG99178                   000000018001f680     smtp_client.obj
 0003:00004698       $SG99189                   000000018001f698     smtp_client.obj
 0003:000046b0       $SG99196                   000000018001f6b0     smtp_client.obj
 0003:000046c8       $SG99205                   000000018001f6c8     smtp_client.obj
 0003:000046e0       $SG99207                   000000018001f6e0     smtp_client.obj
 0003:000046f0       $SG99208                   000000018001f6f0     smtp_client.obj
 0003:00004718       $SG99210                   000000018001f718     smtp_client.obj
 0003:00004728       $SG99211                   000000018001f728     smtp_client.obj
 0003:00004758       $SG99214                   000000018001f758     smtp_client.obj
 0003:00004768       $SG99215                   000000018001f768     smtp_client.obj
 0003:00004790       $SG99223                   000000018001f790     smtp_client.obj
 0003:000047a0       $SG99225                   000000018001f7a0     smtp_client.obj
 0003:000047b0       $SG99226                   000000018001f7b0     smtp_client.obj
 0003:000047d0       $SG99228                   000000018001f7d0     smtp_client.obj
 0003:000047e0       $SG99229                   000000018001f7e0     smtp_client.obj
 0003:00004808       $SG99232                   000000018001f808     smtp_client.obj
 0003:00004818       $SG99233                   000000018001f818     smtp_client.obj
 0003:00004848       $SG99241                   000000018001f848     smtp_client.obj
 0003:00004858       $SG99242                   000000018001f858     smtp_client.obj
 0003:00004878       $SG99244                   000000018001f878     smtp_client.obj
 0003:00004888       $SG99245                   000000018001f888     smtp_client.obj
 0003:000048b0       $SG99248                   000000018001f8b0     smtp_client.obj
 0003:000048c0       $SG99249                   000000018001f8c0     smtp_client.obj
 0003:000048f0       $SG99257                   000000018001f8f0     smtp_client.obj
 0003:00004900       $SG99258                   000000018001f900     smtp_client.obj
 0003:00004920       $SG99260                   000000018001f920     smtp_client.obj
 0003:00004930       $SG99261                   000000018001f930     smtp_client.obj
 0003:00004958       $SG99264                   000000018001f958     smtp_client.obj
 0003:00004968       $SG99265                   000000018001f968     smtp_client.obj
 0003:00004990       $SG99274                   000000018001f990     smtp_client.obj
 0003:000049a0       $SG99275                   000000018001f9a0     smtp_client.obj
 0003:000049c0       $SG99296                   000000018001f9c0     smtp_client.obj
 0003:000049d8       $SG99297                   000000018001f9d8     smtp_client.obj
 0003:000049f8       $SG99299                   000000018001f9f8     smtp_client.obj
 0003:00004a10       $SG99300                   000000018001fa10     smtp_client.obj
 0003:00004a30       $SG99310                   000000018001fa30     smtp_client.obj
 0003:00004a40       $SG99311                   000000018001fa40     smtp_client.obj
 0003:00004a60       $SG99319                   000000018001fa60     smtp_client.obj
 0003:00004a70       $SG99320                   000000018001fa70     smtp_client.obj
 0003:00004a90       $SG99322                   000000018001fa90     smtp_client.obj
 0003:00004aa0       $SG99323                   000000018001faa0     smtp_client.obj
 0003:00004ac8       $SG99326                   000000018001fac8     smtp_client.obj
 0003:00004ad8       $SG99327                   000000018001fad8     smtp_client.obj
 0003:00004b30       $SG99586                   000000018001fb30     http_hdr.obj
 0003:00004b38       cache_pool                 000000018001fb38     http_hdr_req.obj
 0003:00004b40       once_control               000000018001fb40     http_hdr_req.obj
 0003:00004b48       once_control               000000018001fb48     http_hdr_res.obj
 0003:00004b50       main_cache                 000000018001fb50     http_hdr_res.obj
 0003:00004b58       __unknown_tmpl             000000018001fb58     http_tmpl.obj
 0003:00004b60       __unique_id                000000018001fb60     icmp_chat.obj
 0003:00004b64       once_control               000000018001fb64     icmp_chat.obj
 0003:00004b68       __unique_lock              000000018001fb68     icmp_chat.obj
 0003:00004b70       $SG99230                   000000018001fb70     icmp_stat.obj
 0003:00004b71       ?init@?1??_RTC_InitBase@@9@4_NA 000000018001fb71     MSVCRTD:init.obj
 0003:00004b80       GS_ExceptionRecord         000000018001fb80     MSVCRTD:gs_report.obj
 0003:00004c20       GS_ContextRecord           000000018001fc20     MSVCRTD:gs_report.obj
 0003:000050f0       DebuggerWasPresent         00000001800200f0     MSVCRTD:gs_report.obj
 0003:000050f4       __proc_attached            00000001800200f4     MSVCRTD:crtdll.obj
 0003:00005100       _RTC_ErrorReportFunc       0000000180020100     MSVCRTD:userapi.obj
 0003:00005108       _RTC_ErrorReportFuncW      0000000180020108     MSVCRTD:userapi.obj
 0003:00005120       mspdb                      0000000180020120     MSVCRTD:pdblkup.obj
 0003:00005128       ?alreadyTried@?1??GetPdbDll@@YAPEAUHINSTANCE__@@XZ@4_NA 0000000180020128     MSVCRTD:pdblkup.obj
 0003:00005129       ?PDBOK@?BM@??_RTC_GetSrcLine@@YAHPEAEPEA_WKPEAH1K@Z@4_NA 0000000180020129     MSVCRTD:pdblkup.obj
 0004:00000000       $pdata$http_hdr_req_get_async 0000000180021000     http_chat_async.obj
 0004:0000000c       $pdata$http_hdr_res_get_async 000000018002100c     http_chat_async.obj
 0004:00000018       $pdata$http_req_body_get_async 0000000180021018     http_chat_async.obj
 0004:00000024       $pdata$http_res_body_get_async 0000000180021024     http_chat_async.obj
 0004:00000030       $pdata$new_ctx             0000000180021030     http_chat_async.obj
 0004:0000003c       $pdata$free_ctx_fn         000000018002103c     http_chat_async.obj
 0004:00000048       $pdata$hdr_ready           0000000180021048     http_chat_async.obj
 0004:00000054       $pdata$hdr_can_read        0000000180021054     http_chat_async.obj
 0004:00000060       $pdata$hdr_get_async       0000000180021060     http_chat_async.obj
 0004:0000006c       $pdata$chunked_data_endl   000000018002106c     http_chat_async.obj
 0004:00000078       $pdata$chunked_data        0000000180021078     http_chat_async.obj
 0004:00000084       $pdata$chunked_trailer     0000000180021084     http_chat_async.obj
 0004:00000090       $pdata$chunked_hdr         0000000180021090     http_chat_async.obj
 0004:0000009c       $pdata$body_can_read       000000018002109c     http_chat_async.obj
 0004:000000a8       $pdata$body_get            00000001800210a8     http_chat_async.obj
 0004:000000b4       $pdata$http_hdr_req_get_sync 00000001800210b4     http_chat_sync.obj
 0004:000000c0       $pdata$http_hdr_res_get_sync 00000001800210c0     http_chat_sync.obj
 0004:000000cc       $pdata$http_req_body_get_sync 00000001800210cc     http_chat_sync.obj
 0004:000000d8       $pdata$http_res_body_get_sync 00000001800210d8     http_chat_sync.obj
 0004:000000e4       $pdata$http_chat_sync_reqctl 00000001800210e4     http_chat_sync.obj
 0004:000000f0       $pdata$http_chat_sync_resctl 00000001800210f0     http_chat_sync.obj
 0004:000000fc       $pdata$new_ctx             00000001800210fc     http_chat_sync.obj
 0004:00000108       $pdata$free_ctx            0000000180021108     http_chat_sync.obj
 0004:00000114       $pdata$hdr_ready           0000000180021114     http_chat_sync.obj
 0004:00000120       $pdata$hdr_get             0000000180021120     http_chat_sync.obj
 0004:0000012c       $pdata$chunked_data_get    000000018002112c     http_chat_sync.obj
 0004:00000138       $pdata$chunked_hdr_get     0000000180021138     http_chat_sync.obj
 0004:00000144       $pdata$chunked_sep_gets    0000000180021144     http_chat_sync.obj
 0004:00000150       $pdata$chunked_trailer_get 0000000180021150     http_chat_sync.obj
 0004:0000015c       $pdata$body_get            000000018002115c     http_chat_sync.obj
 0004:00000168       $pdata$http_hdr_new        0000000180021168     http_hdr.obj
 0004:00000174       $pdata$http_hdr_clone      0000000180021174     http_hdr.obj
 0004:00000180       $pdata$http_hdr_free       0000000180021180     http_hdr.obj
 0004:0000018c       $pdata$http_hdr_reset      000000018002118c     http_hdr.obj
 0004:00000198       $pdata$http_hdr_append_entry 0000000180021198     http_hdr.obj
 0004:000001a4       $pdata$http_hdr_parse_version 00000001800211a4     http_hdr.obj
 0004:000001b0       $pdata$http_hdr_parse      00000001800211b0     http_hdr.obj
 0004:000001bc       $pdata$http_hdr_entry_build 00000001800211bc     http_hdr.obj
 0004:000001c8       $pdata$http_hdr_entry_new  00000001800211c8     http_hdr.obj
 0004:000001d4       $pdata$http_hdr_entry_head 00000001800211d4     http_hdr.obj
 0004:000001e0       $pdata$http_hdr_entry_new2 00000001800211e0     http_hdr.obj
 0004:000001ec       $pdata$http_hdr_entry      00000001800211ec     http_hdr.obj
 0004:000001f8       $pdata$http_hdr_entry_value 00000001800211f8     http_hdr.obj
 0004:00000204       $pdata$http_hdr_entry_replace 0000000180021204     http_hdr.obj
 0004:00000210       $pdata$http_hdr_entry_replace2 0000000180021210     http_hdr.obj
 0004:0000021c       $pdata$http_hdr_entry_off  000000018002121c     http_hdr.obj
 0004:00000228       $pdata$http_hdr_print      0000000180021228     http_hdr.obj
 0004:00000234       $pdata$http_hdr_fprint     0000000180021234     http_hdr.obj
 0004:00000240       $pdata$http_hdr_sprint     0000000180021240     http_hdr.obj
 0004:0000024c       $pdata$__hdr_init          000000018002124c     http_hdr.obj
 0004:00000258       $pdata$__get_hdr_entry     0000000180021258     http_hdr.obj
 0004:00000264       $pdata$time                0000000180021264     http_hdr_build.obj
 0004:00000270       $pdata$http_hdr_put_str    0000000180021270     http_hdr_build.obj
 0004:0000027c       $pdata$http_hdr_put_int    000000018002127c     http_hdr_build.obj
 0004:00000288       $pdata$http_hdr_put_fmt    0000000180021288     http_hdr_build.obj
 0004:00000294       $pdata$http_hdr_put_time   0000000180021294     http_hdr_build.obj
 0004:000002a0       $pdata$http_hdr_set_keepalive 00000001800212a0     http_hdr_build.obj
 0004:000002ac       $pdata$http_hdr_res_init   00000001800212ac     http_hdr_build.obj
 0004:000002b8       $pdata$http_hdr_res_static 00000001800212b8     http_hdr_build.obj
 0004:000002c4       $pdata$http_hdr_res_error  00000001800212c4     http_hdr_build.obj
 0004:000002d0       $pdata$http_hdr_build      00000001800212d0     http_hdr_build.obj
 0004:000002dc       $pdata$http_hdr_build_request 00000001800212dc     http_hdr_build.obj
 0004:000002e8       $pdata$http_uri_correct    00000001800212e8     http_hdr_req.obj
 0004:000002f4       $pdata$http_hdr_req_new    00000001800212f4     http_hdr_req.obj
 0004:00000300       $pdata$http_hdr_req_create 0000000180021300     http_hdr_req.obj
 0004:0000030c       $pdata$http_hdr_req_clone  000000018002130c     http_hdr_req.obj
 0004:00000318       $pdata$http_hdr_req_rewrite 0000000180021318     http_hdr_req.obj
 0004:00000324       $pdata$http_hdr_req_rewrite2 0000000180021324     http_hdr_req.obj
 0004:00000330       $pdata$http_hdr_req_free   0000000180021330     http_hdr_req.obj
 0004:0000033c       $pdata$http_hdr_req_reset  000000018002133c     http_hdr_req.obj
 0004:00000348       $pdata$http_hdr_req_cookies_parse 0000000180021348     http_hdr_req.obj
 0004:00000354       $pdata$http_hdr_req_line_parse 0000000180021354     http_hdr_req.obj
 0004:00000360       $pdata$http_hdr_req_parse  0000000180021360     http_hdr_req.obj
 0004:0000036c       $pdata$http_hdr_req_parse3 000000018002136c     http_hdr_req.obj
 0004:00000378       $pdata$http_hdr_req_cookie_get 0000000180021378     http_hdr_req.obj
 0004:00000384       $pdata$http_hdr_req_method 0000000180021384     http_hdr_req.obj
 0004:00000390       $pdata$http_hdr_req_param  0000000180021390     http_hdr_req.obj
 0004:0000039c       $pdata$http_hdr_req_url_part 000000018002139c     http_hdr_req.obj
 0004:000003a8       $pdata$http_hdr_req_url_path 00000001800213a8     http_hdr_req.obj
 0004:000003b4       $pdata$http_hdr_req_host   00000001800213b4     http_hdr_req.obj
 0004:000003c0       $pdata$http_hdr_req_url    00000001800213c0     http_hdr_req.obj
 0004:000003cc       $pdata$http_hdr_req_range  00000001800213cc     http_hdr_req.obj
 0004:000003d8       $pdata$__get_host_from_url 00000001800213d8     http_hdr_req.obj
 0004:000003e4       $pdata$__hdr_init          00000001800213e4     http_hdr_req.obj
 0004:000003f0       $pdata$__request_args_free_fn 00000001800213f0     http_hdr_req.obj
 0004:000003fc       $pdata$__cookies_args_free_fn 00000001800213fc     http_hdr_req.obj
 0004:00000408       $pdata$__hdr_free_member   0000000180021408     http_hdr_req.obj
 0004:00000414       $pdata$__hdr_reset         0000000180021414     http_hdr_req.obj
 0004:00000420       $pdata$thread_cache_free   0000000180021420     http_hdr_req.obj
 0004:0000042c       $pdata$main_cache_free     000000018002142c     http_hdr_req.obj
 0004:00000438       $pdata$cache_init          0000000180021438     http_hdr_req.obj
 0004:00000444       $pdata$clone_table_entry   0000000180021444     http_hdr_req.obj
 0004:00000450       $pdata$__add_cookie_item   0000000180021450     http_hdr_req.obj
 0004:0000045c       $pdata$__add_request_item  000000018002145c     http_hdr_req.obj
 0004:00000468       $pdata$__strip_url_path    0000000180021468     http_hdr_req.obj
 0004:00000474       $pdata$__parse_url_and_port 0000000180021474     http_hdr_req.obj
 0004:00000480       $pdata$free_vstring        0000000180021480     http_hdr_req.obj
 0004:0000048c       $pdata$http_hdr_res_status_parse 000000018002148c     http_hdr_res.obj
 0004:00000498       $pdata$http_hdr_res_new    0000000180021498     http_hdr_res.obj
 0004:000004a4       $pdata$http_hdr_res_clone  00000001800214a4     http_hdr_res.obj
 0004:000004b0       $pdata$http_hdr_res_free   00000001800214b0     http_hdr_res.obj
 0004:000004bc       $pdata$http_hdr_res_reset  00000001800214bc     http_hdr_res.obj
 0004:000004c8       $pdata$http_hdr_res_parse  00000001800214c8     http_hdr_res.obj
 0004:000004d4       $pdata$http_hdr_res_range  00000001800214d4     http_hdr_res.obj
 0004:000004e0       $pdata$__hdr_init          00000001800214e0     http_hdr_res.obj
 0004:000004ec       $pdata$thread_cache_free   00000001800214ec     http_hdr_res.obj
 0004:000004f8       $pdata$main_cache_free     00000001800214f8     http_hdr_res.obj
 0004:00000504       $pdata$thread_cache_init   0000000180021504     http_hdr_res.obj
 0004:00000510       $pdata$__hdr_free_member   0000000180021510     http_hdr_res.obj
 0004:0000051c       $pdata$http_init           000000018002151c     http_init.obj
 0004:00000528       $pdata$http_hdr_cache      0000000180021528     http_init.obj
 0004:00000534       $pdata$http_buf_size_set   0000000180021534     http_init.obj
 0004:00000540       $pdata$http_buf_size_get   0000000180021540     http_init.obj
 0004:0000054c       $pdata$http_req_new        000000018002154c     http_req.obj
 0004:00000558       $pdata$http_req_free       0000000180021558     http_req.obj
 0004:00000564       $pdata$http_res_new        0000000180021564     http_res.obj
 0004:00000570       $pdata$http_res_free       0000000180021570     http_res.obj
 0004:0000057c       $pdata$gmtime_s            000000018002157c     http_rfc1123.obj
 0004:00000588       $pdata$http_mkrfc1123      0000000180021588     http_rfc1123.obj
 0004:00000594       $pdata$http_status_line    0000000180021594     http_status.obj
 0004:000005a0       $pdata$http_tmpl_load      00000001800215a0     http_tmpl.obj
 0004:000005ac       $pdata$http_tmpl_get       00000001800215ac     http_tmpl.obj
 0004:000005b8       $pdata$http_tmpl_title     00000001800215b8     http_tmpl.obj
 0004:000005c4       $pdata$http_tmpl_size      00000001800215c4     http_tmpl.obj
 0004:000005d0       $pdata$__load_tmpl         00000001800215d0     http_tmpl.obj
 0004:000005dc       $pdata$http_util_req_new   00000001800215dc     http_util.obj
 0004:000005e8       $pdata$http_util_res_new   00000001800215e8     http_util.obj
 0004:000005f4       $pdata$http_util_free      00000001800215f4     http_util.obj
 0004:00000600       $pdata$http_util_set_req_entry 0000000180021600     http_util.obj
 0004:0000060c       $pdata$http_util_off_req_entry 000000018002160c     http_util.obj
 0004:00000618       $pdata$http_util_get_req_value 0000000180021618     http_util.obj
 0004:00000624       $pdata$http_util_get_req_entry 0000000180021624     http_util.obj
 0004:00000630       $pdata$http_util_set_req_content_length 0000000180021630     http_util.obj
 0004:0000063c       $pdata$http_util_set_req_keep_alive 000000018002163c     http_util.obj
 0004:00000648       $pdata$http_util_set_req_connection 0000000180021648     http_util.obj
 0004:00000654       $pdata$http_util_set_req_refer 0000000180021654     http_util.obj
 0004:00000660       $pdata$http_util_set_req_cookie 0000000180021660     http_util.obj
 0004:0000066c       $pdata$http_util_set_req_proxy 000000018002166c     http_util.obj
 0004:00000678       $pdata$http_util_set_dump_stream 0000000180021678     http_util.obj
 0004:00000684       $pdata$http_util_set_dump_file 0000000180021684     http_util.obj
 0004:00000690       $pdata$http_util_req_open  0000000180021690     http_util.obj
 0004:0000069c       $pdata$http_util_put_req_data 000000018002169c     http_util.obj
 0004:000006a8       $pdata$http_util_get_res_hdr 00000001800216a8     http_util.obj
 0004:000006b4       $pdata$http_util_get_res_value 00000001800216b4     http_util.obj
 0004:000006c0       $pdata$http_util_get_res_entry 00000001800216c0     http_util.obj
 0004:000006cc       $pdata$http_util_set_res_entry 00000001800216cc     http_util.obj
 0004:000006d8       $pdata$http_util_off_res_entry 00000001800216d8     http_util.obj
 0004:000006e4       $pdata$http_util_has_res_body 00000001800216e4     http_util.obj
 0004:000006f0       $pdata$http_util_get_res_body 00000001800216f0     http_util.obj
 0004:000006fc       $pdata$http_util_dump_url  00000001800216fc     http_util.obj
 0004:00000708       $pdata$http_util_dump_url_to_stream 0000000180021708     http_util.obj
 0004:00000714       $pdata$icmp_chat_create    0000000180021714     icmp_chat.obj
 0004:00000720       $pdata$icmp_chat_free      0000000180021720     icmp_chat.obj
 0004:0000072c       $pdata$icmp_chat           000000018002172c     icmp_chat.obj
 0004:00000738       $pdata$icmp_chat_size      0000000180021738     icmp_chat.obj
 0004:00000744       $pdata$icmp_chat_count     0000000180021744     icmp_chat.obj
 0004:00000750       $pdata$icmp_chat_finish    0000000180021750     icmp_chat.obj
 0004:0000075c       $pdata$icmp_chat_seqno     000000018002175c     icmp_chat.obj
 0004:00000768       $pdata$proc_on_exit        0000000180021768     icmp_chat.obj
 0004:00000774       $pdata$icmp_once           0000000180021774     icmp_chat.obj
 0004:00000780       $pdata$icmp_chat_aio_add   0000000180021780     icmp_chat_aio.obj
 0004:0000078c       $pdata$icmp_chat_aio_free  000000018002178c     icmp_chat_aio.obj
 0004:00000798       $pdata$icmp_chat_aio       0000000180021798     icmp_chat_aio.obj
 0004:000007a4       $pdata$delay_send_pkt      00000001800217a4     icmp_chat_aio.obj
 0004:000007b0       $pdata$read_close_fn       00000001800217b0     icmp_chat_aio.obj
 0004:000007bc       $pdata$read_ready_fn       00000001800217bc     icmp_chat_aio.obj
 0004:000007c8       $pdata$check_timer         00000001800217c8     icmp_chat_aio.obj
 0004:000007d4       $pdata$send_pkt            00000001800217d4     icmp_chat_aio.obj
 0004:000007e0       $pdata$delay_send_timer    00000001800217e0     icmp_chat_aio.obj
 0004:000007ec       $pdata$timeout_fn          00000001800217ec     icmp_chat_aio.obj
 0004:000007f8       $pdata$write_ready_fn      00000001800217f8     icmp_chat_aio.obj
 0004:00000804       $pdata$icmp_rset           0000000180021804     icmp_chat_aio.obj
 0004:00000810       $pdata$icmp_chat_sio_free  0000000180021810     icmp_chat_sio.obj
 0004:0000081c       $pdata$icmp_chat_sio       000000018002181c     icmp_chat_sio.obj
 0004:00000828       $pdata$read_pkt            0000000180021828     icmp_chat_sio.obj
 0004:00000834       $pdata$send_pkt            0000000180021834     icmp_chat_sio.obj
 0004:00000840       $pdata$icmp_host_new       0000000180021840     icmp_host.obj
 0004:0000084c       $pdata$icmp_host_free      000000018002184c     icmp_host.obj
 0004:00000858       $pdata$icmp_host_set       0000000180021858     icmp_host.obj
 0004:00000864       $pdata$icmp_host_alloc     0000000180021864     icmp_host.obj
 0004:00000870       $pdata$icmp_host_init      0000000180021870     icmp_host.obj
 0004:0000087c       $pdata$icmp_ping_one       000000018002187c     icmp_ping.obj
 0004:00000888       $pdata$icmp_pkt_client     0000000180021888     icmp_pkt.obj
 0004:00000894       $pdata$icmp_pkt_alloc      0000000180021894     icmp_pkt.obj
 0004:000008a0       $pdata$icmp_pkt_free       00000001800218a0     icmp_pkt.obj
 0004:000008ac       $pdata$icmp_pkt_pack       00000001800218ac     icmp_pkt.obj
 0004:000008b8       $pdata$icmp_pkt_build      00000001800218b8     icmp_pkt.obj
 0004:000008c4       $pdata$icmp_pkt_save_status 00000001800218c4     icmp_pkt.obj
 0004:000008d0       $pdata$icmp_pkt_unpack     00000001800218d0     icmp_pkt.obj
 0004:000008dc       $pdata$icmp_pkt_check      00000001800218dc     icmp_pkt.obj
 0004:000008e8       $pdata$icmp_pkt_type       00000001800218e8     icmp_pkt.obj
 0004:000008f4       $pdata$icmp_pkt_code       00000001800218f4     icmp_pkt.obj
 0004:00000900       $pdata$icmp_pkt_cksum      0000000180021900     icmp_pkt.obj
 0004:0000090c       $pdata$icmp_pkt_id         000000018002190c     icmp_pkt.obj
 0004:00000918       $pdata$icmp_pkt_seq        0000000180021918     icmp_pkt.obj
 0004:00000924       $pdata$icmp_pkt_gid        0000000180021924     icmp_pkt.obj
 0004:00000930       $pdata$icmp_pkt_peer       0000000180021930     icmp_pkt.obj
 0004:0000093c       $pdata$icmp_pkt_status     000000018002193c     icmp_pkt.obj
 0004:00000948       $pdata$icmp_pkt_len        0000000180021948     icmp_pkt.obj
 0004:00000954       $pdata$icmp_pkt_wlen       0000000180021954     icmp_pkt.obj
 0004:00000960       $pdata$icmp_pkt_payload    0000000180021960     icmp_pkt.obj
 0004:0000096c       $pdata$icmp_pkt_set_extra  000000018002196c     icmp_pkt.obj
 0004:00000978       $pdata$icmp_pkt_set_type   0000000180021978     icmp_pkt.obj
 0004:00000984       $pdata$icmp_pkt_set_code   0000000180021984     icmp_pkt.obj
 0004:00000990       $pdata$icmp_pkt_set_cksum  0000000180021990     icmp_pkt.obj
 0004:0000099c       $pdata$icmp_pkt_set_id     000000018002199c     icmp_pkt.obj
 0004:000009a8       $pdata$icmp_pkt_set_seq    00000001800219a8     icmp_pkt.obj
 0004:000009b4       $pdata$icmp_pkt_set_data   00000001800219b4     icmp_pkt.obj
 0004:000009c0       $pdata$checksum            00000001800219c0     icmp_pkt.obj
 0004:000009cc       $pdata$icmp_hdr_pack       00000001800219cc     icmp_pkt.obj
 0004:000009d8       $pdata$stamp_sub           00000001800219d8     icmp_stat.obj
 0004:000009e4       $pdata$icmp_stat_timeout   00000001800219e4     icmp_stat.obj
 0004:000009f0       $pdata$icmp_stat_unreach   00000001800219f0     icmp_stat.obj
 0004:000009fc       $pdata$icmp_stat_report    00000001800219fc     icmp_stat.obj
 0004:00000a08       $pdata$icmp_stat_finish    0000000180021a08     icmp_stat.obj
 0004:00000a14       $pdata$icmp_stat           0000000180021a14     icmp_stat.obj
 0004:00000a20       $pdata$icmp_stat_host      0000000180021a20     icmp_stat.obj
 0004:00000a2c       $pdata$icmp_rtt_compute    0000000180021a2c     icmp_stat.obj
 0004:00000a38       $pdata$icmp_status         0000000180021a38     icmp_stat.obj
 0004:00000a44       $pdata$icmp_stream_open    0000000180021a44     icmp_stream.obj
 0004:00000a50       $pdata$icmp_stream_close   0000000180021a50     icmp_stream.obj
 0004:00000a5c       $pdata$icmp_vstream        0000000180021a5c     icmp_stream.obj
 0004:00000a68       $pdata$icmp_stream_from    0000000180021a68     icmp_stream.obj
 0004:00000a74       $pdata$icmp_stream_dest    0000000180021a74     icmp_stream.obj
 0004:00000a80       $pdata$icmp_stream_set_dest 0000000180021a80     icmp_stream.obj
 0004:00000a8c       $pdata$icmp_stream_reopen  0000000180021a8c     icmp_stream.obj
 0004:00000a98       $pdata$icmp_read           0000000180021a98     icmp_stream.obj
 0004:00000aa4       $pdata$icmp_write          0000000180021aa4     icmp_stream.obj
 0004:00000ab0       $pdata$time                0000000180021ab0     icmp_timer.obj
 0004:00000abc       $pdata$icmp_timer_new      0000000180021abc     icmp_timer.obj
 0004:00000ac8       $pdata$icmp_timer_free     0000000180021ac8     icmp_timer.obj
 0004:00000ad4       $pdata$timer_request       0000000180021ad4     icmp_timer.obj
 0004:00000ae0       $pdata$timer_cancel        0000000180021ae0     icmp_timer.obj
 0004:00000aec       $pdata$timer_find_delete   0000000180021aec     icmp_timer.obj
 0004:00000af8       $pdata$timer_popup         0000000180021af8     icmp_timer.obj
 0004:00000b04       $pdata$proto_secure_snprintf 0000000180021b04     proto_snprintf.obj
 0004:00000b10       $pdata$proto_securevsnprintf 0000000180021b10     proto_snprintf.obj
 0004:00000b1c       $pdata$smtp_open           0000000180021b1c     smtp_client.obj
 0004:00000b28       $pdata$smtp_close          0000000180021b28     smtp_client.obj
 0004:00000b34       $pdata$smtp_get_banner     0000000180021b34     smtp_client.obj
 0004:00000b40       $pdata$smtp_greet          0000000180021b40     smtp_client.obj
 0004:00000b4c       $pdata$smtp_helo           0000000180021b4c     smtp_client.obj
 0004:00000b58       $pdata$smtp_ehlo           0000000180021b58     smtp_client.obj
 0004:00000b64       $pdata$smtp_auth           0000000180021b64     smtp_client.obj
 0004:00000b70       $pdata$smtp_mail           0000000180021b70     smtp_client.obj
 0004:00000b7c       $pdata$smtp_rcpt           0000000180021b7c     smtp_client.obj
 0004:00000b88       $pdata$smtp_data           0000000180021b88     smtp_client.obj
 0004:00000b94       $pdata$smtp_send           0000000180021b94     smtp_client.obj
 0004:00000ba0       $pdata$smtp_printf         0000000180021ba0     smtp_client.obj
 0004:00000bac       $pdata$smtp_data_end       0000000180021bac     smtp_client.obj
 0004:00000bb8       $pdata$smtp_send_file      0000000180021bb8     smtp_client.obj
 0004:00000bc4       $pdata$smtp_send_stream    0000000180021bc4     smtp_client.obj
 0004:00000bd0       $pdata$smtp_quit           0000000180021bd0     smtp_client.obj
 0004:00000bdc       $pdata$smtp_noop           0000000180021bdc     smtp_client.obj
 0004:00000be8       $pdata$smtp_rset           0000000180021be8     smtp_client.obj
 0004:00000bf4       $pdata$smtp_ehlo_flag      0000000180021bf4     smtp_client.obj
 0004:00000c00       $pdata$_RTC_AllocaHelper   0000000180021c00     MSVCRTD:stack.obj
 0004:00000c0c       $pdata$0$_RTC_AllocaHelper 0000000180021c0c     MSVCRTD:stack.obj
 0004:00000c18       $pdata$1$_RTC_AllocaHelper 0000000180021c18     MSVCRTD:stack.obj
 0004:00000c24       $pdata$_RTC_CheckStackVars 0000000180021c24     MSVCRTD:stack.obj
 0004:00000c30       $pdata$0$_RTC_CheckStackVars 0000000180021c30     MSVCRTD:stack.obj
 0004:00000c3c       $pdata$1$_RTC_CheckStackVars 0000000180021c3c     MSVCRTD:stack.obj
 0004:00000c48       $pdata$_RTC_CheckStackVars2 0000000180021c48     MSVCRTD:stack.obj
 0004:00000c54       $pdata$1$_RTC_CheckStackVars2 0000000180021c54     MSVCRTD:stack.obj
 0004:00000c60       $pdata$2$_RTC_CheckStackVars2 0000000180021c60     MSVCRTD:stack.obj
 0004:00000c6c       $pdata$3$_RTC_CheckStackVars2 0000000180021c6c     MSVCRTD:stack.obj
 0004:00000c78       $pdata$4$_RTC_CheckStackVars2 0000000180021c78     MSVCRTD:stack.obj
 0004:00000c84       $pdata$5$_RTC_CheckStackVars2 0000000180021c84     MSVCRTD:stack.obj
 0004:00000c90       $pdata$6$_RTC_CheckStackVars2 0000000180021c90     MSVCRTD:stack.obj
 0004:00000c9c       $pdata$_RTC_InitBase       0000000180021c9c     MSVCRTD:init.obj
 0004:00000ca8       $pdata$_RTC_Shutdown       0000000180021ca8     MSVCRTD:init.obj
 0004:00000cb4       $pdata$__GSHandlerCheck    0000000180021cb4     MSVCRTD:gshandler.obj
 0004:00000cc0       $pdata$__GSHandlerCheckCommon 0000000180021cc0     MSVCRTD:gshandler.obj
 0004:00000ce4       $pdata$__raise_securityfailure 0000000180021ce4     MSVCRTD:gs_report.obj
 0004:00000cf0       $pdata$__report_gsfailure  0000000180021cf0     MSVCRTD:gs_report.obj
 0004:00000cfc       $pdata$__report_rangecheckfailure 0000000180021cfc     MSVCRTD:gs_report.obj
 0004:00000d08       $pdata$__report_securityfailure 0000000180021d08     MSVCRTD:gs_report.obj
 0004:00000d14       $pdata$__report_securityfailureEx 0000000180021d14     MSVCRTD:gs_report.obj
 0004:00000d20       $pdata$__atonexitinit      0000000180021d20     MSVCRTD:atonexit.obj
 0004:00000d2c       $pdata$_onexit             0000000180021d2c     MSVCRTD:atonexit.obj
 0004:00000d38       $pdata$atexit              0000000180021d38     MSVCRTD:atonexit.obj
 0004:00000d44       $pdata$pre_c_init          0000000180021d44     MSVCRTD:crtdll.obj
 0004:00000d50       $pdata$_CRT_INIT           0000000180021d50     MSVCRTD:crtdll.obj
 0004:00000d5c       $pdata$_DllMainCRTStartup  0000000180021d5c     MSVCRTD:crtdll.obj
 0004:00000d68       $pdata$__DllMainCRTStartup 0000000180021d68     MSVCRTD:crtdll.obj
 0004:00000d74       $pdata$?DebuggerProbe@@YAHK@Z 0000000180021d74     MSVCRTD:error.obj
 0004:00000d80       $pdata$?DebuggerRuntime@@YAHKHPEAXPEB_W@Z 0000000180021d80     MSVCRTD:error.obj
 0004:00000d8c       $pdata$?_RTC_AllocaFailure@@YAXPEAXPEAU_RTC_ALLOCA_NODE@@H@Z 0000000180021d8c     MSVCRTD:error.obj
 0004:00000d98       $pdata$0$?_RTC_AllocaFailure@@YAXPEAXPEAU_RTC_ALLOCA_NODE@@H@Z 0000000180021d98     MSVCRTD:error.obj
 0004:00000da4       $pdata$1$?_RTC_AllocaFailure@@YAXPEAXPEAU_RTC_ALLOCA_NODE@@H@Z 0000000180021da4     MSVCRTD:error.obj
 0004:00000db0       $pdata$?_RTC_StackFailure@@YAXPEAXPEBD@Z 0000000180021db0     MSVCRTD:error.obj
 0004:00000dbc       $pdata$?_getMemBlockDataString@@YAXPEAD00_K@Z 0000000180021dbc     MSVCRTD:error.obj
 0004:00000dc8       $pdata$2$?_getMemBlockDataString@@YAXPEAD00_K@Z 0000000180021dc8     MSVCRTD:error.obj
 0004:00000dd4       $pdata$3$?_getMemBlockDataString@@YAXPEAD00_K@Z 0000000180021dd4     MSVCRTD:error.obj
 0004:00000de0       $pdata$?failwithmessage@@YAXPEAXHHPEBD@Z 0000000180021de0     MSVCRTD:error.obj
 0004:00000dec       $pdata$_RTC_UninitUse      0000000180021dec     MSVCRTD:error.obj
 0004:00000df8       $pdata$_FindPESection      0000000180021df8     MSVCRTD:pesect.obj
 0004:00000e04       $pdata$_IsNonwritableInCurrentImage 0000000180021e04     MSVCRTD:pesect.obj
 0004:00000e10       $pdata$_ValidateImageBase  0000000180021e10     MSVCRTD:pesect.obj
 0004:00000e1c       $pdata$__security_init_cookie 0000000180021e1c     MSVCRTD:gs_support.obj
 0004:00000e28       $pdata$DllMain             0000000180021e28     MSVCRTD:dllmain.obj
 0004:00000e34       $pdata$_RTC_Initialize     0000000180021e34     MSVCRTD:initsect.obj
 0004:00000e40       $pdata$_RTC_Terminate      0000000180021e40     MSVCRTD:initsect.obj
 0004:00000e4c       $pdata$__clean_type_info_names 0000000180021e4c     MSVCRTD:tncleanup.obj
 0004:00000e58       $pdata$?GetPdbDll@@YAPEAUHINSTANCE__@@XZ 0000000180021e58     MSVCRTD:pdblkup.obj
 0004:00000e64       $pdata$?GetPdbDllFromInstallPath@@YAPEAUHINSTANCE__@@XZ 0000000180021e64     MSVCRTD:pdblkup.obj
 0004:00000e70       $pdata$0$?GetPdbDllFromInstallPath@@YAPEAUHINSTANCE__@@XZ 0000000180021e70     MSVCRTD:pdblkup.obj
 0004:00000e7c       $pdata$1$?GetPdbDllFromInstallPath@@YAPEAUHINSTANCE__@@XZ 0000000180021e7c     MSVCRTD:pdblkup.obj
 0004:00000e88       $pdata$2$?GetPdbDllFromInstallPath@@YAPEAUHINSTANCE__@@XZ 0000000180021e88     MSVCRTD:pdblkup.obj
 0004:00000e94       $pdata$3$?GetPdbDllFromInstallPath@@YAPEAUHINSTANCE__@@XZ 0000000180021e94     MSVCRTD:pdblkup.obj
 0004:00000ea0       $pdata$4$?GetPdbDllFromInstallPath@@YAPEAUHINSTANCE__@@XZ 0000000180021ea0     MSVCRTD:pdblkup.obj
 0004:00000eac       $pdata$5$?GetPdbDllFromInstallPath@@YAPEAUHINSTANCE__@@XZ 0000000180021eac     MSVCRTD:pdblkup.obj
 0004:00000eb8       $pdata$?GetPdbDllPathFromFilePath@@YAHPEB_WPEA_W_K@Z 0000000180021eb8     MSVCRTD:pdblkup.obj
 0004:00000ec4       $pdata$?_RTC_GetSrcLine@@YAHPEAEPEA_WKPEAH1K@Z 0000000180021ec4     MSVCRTD:pdblkup.obj
 0004:00000ed0       $pdata$_onexit$fin$0       0000000180021ed0     MSVCRTD:atonexit.obj
 0004:00000edc       $pdata$__DllMainCRTStartup$filt$0 0000000180021edc     MSVCRTD:crtdll.obj
 0004:00000ee8       $pdata$__DllMainCRTStartup$fin$1 0000000180021ee8     MSVCRTD:crtdll.obj
 0004:00000ef4       $pdata$?filt$0@?0??DebuggerProbe@@YAHK@Z@4HA 0000000180021ef4     MSVCRTD:error.obj
 0004:00000f00       $pdata$?filt$0@?0??DebuggerRuntime@@YAHKHPEAXPEB_W@Z@4HA 0000000180021f00     MSVCRTD:error.obj
 0004:00000f0c       $pdata$_IsNonwritableInCurrentImage$filt$0 0000000180021f0c     MSVCRTD:pesect.obj
 0005:000000a0       $R000000                   00000001800220a0     lib_protocol.res
 0005:00000370       $R0002D0                   0000000180022370     lib_protocol.res
