 lib_acl_cpp_d

 Timestamp is 5d4ccc95 (Fri Aug 09 09:29:57 2019)

 Preferred load address is 0000000180000000

 Start         Length     Name                   Class
 0001:00000000 0001fddcH .text$di                CODE
 0001:0001fde0 00290a10H .text$mn                CODE
 0001:002b07f0 000370feH .text$x                 CODE
 0001:002e78f0 00001294H .text$yd                CODE
 0002:00000000 00000109H .CRT$XCA                DATA
 0002:00000110 00000109H .CRT$XCL                DATA
 0002:00000220 0000034aH .CRT$XCU                DATA
 0002:00000570 00000109H .CRT$XCZ                DATA
 0002:00000680 00000109H .CRT$XIA                DATA
 0002:00000790 00000109H .CRT$XIAA               DATA
 0002:000008a0 00000109H .CRT$XIC                DATA
 0002:000009b0 00000109H .CRT$XIZ                DATA
 0002:00000ac0 00093c9dH .rdata                  DATA
 0002:00094760 00000169H .rdata$debug            DATA
 0002:000948d0 0000828aH .rdata$r                DATA
 0002:0009cb60 00000109H .rtc$IAA                DATA
 0002:0009cc70 00000ef5H .rtc$IMZ                DATA
 0002:0009db68 00000109H .rtc$IZZ                DATA
 0002:0009dc78 00000109H .rtc$TAA                DATA
 0002:0009dd88 00000ef5H .rtc$TMZ                DATA
 0002:0009ec80 00000109H .rtc$TZZ                DATA
 0002:0009ed90 0005a964H .xdata                  DATA
 0002:000f96f8 000002d6H .xdata$x                DATA
 0002:000f99d0 0004251bH .edata                  DATA
 0003:00000000 000028bbH .data                   DATA
 0003:000028c0 0000267cH .data$r                 DATA
 0003:00004f40 00000e88H .bss                    DATA
 0004:00000000 00032238H .pdata                  DATA
 0005:00000000 00001cc0H .idata$5                DATA
 0005:00001cc0 000000a0H .idata$2                DATA
 0005:00001d60 00000014H .idata$3                DATA
 0005:00001d78 00001cc0H .idata$4                DATA
 0005:00003a38 00004981H .idata$6                DATA
 0006:00000000 000001c0H .rsrc$01                DATA
 0006:000001c0 00000636H .rsrc$02                DATA

  Address         Publics by Value              Rva+Base               Lib:Object

 0000:00000000       __guard_fids_count         0000000000000000     <absolute>
 0000:00000000       __guard_flags              0000000000000000     <absolute>
 0000:00000000       __guard_fids_table         0000000000000000     <absolute>
 0000:00000000       ___safe_se_handler_count   0000000000000000     <absolute>
 0000:00000000       ___safe_se_handler_table   0000000000000000     <absolute>
 0000:00000000       __ImageBase                0000000180000000     <linker-defined>
 0001:0001fde0       ?acl_cpp_init@acl@@YAXXZ   0000000180020de0 f   acl_cpp_init.obj
 0001:0001fe10       ?open_dos@acl@@YAXXZ       0000000180020e10 f   acl_cpp_init.obj
 0001:0001feb0       ?close_dos@acl@@YAXXZ      0000000180020eb0 f   acl_cpp_init.obj
 0001:0001ff40       ?test_logger@acl@@YAXXZ    0000000180020f40 f   acl_cpp_test.obj
 0001:0001ffe0       ?test_snprintf@acl@@YAXXZ  0000000180020fe0 f   acl_cpp_test.obj
 0001:00020200       ??$?0U?$_List_node@Ufield_t@gsoner@acl@@PEAX@std@@@?$allocator@Ufield_t@gsoner@acl@@@std@@QEAA@AEBV?$allocator@U?$_List_node@Ufield_t@gsoner@acl@@PEAX@std@@@1@@Z 0000000180021200 f i acl_stdafx.obj
 0001:00020220       ??$?0U?$_List_node@Uparent_obj_t@gsoner@acl@@PEAX@std@@@?$allocator@Uparent_obj_t@gsoner@acl@@@std@@QEAA@AEBV?$allocator@U?$_List_node@Uparent_obj_t@gsoner@acl@@PEAX@std@@@1@@Z 0000000180021220 f i acl_stdafx.obj
 0001:00020240       ??$?0U?$_List_node@V?$basic_string@DU?$char_traits@D@std@@V?$allocator@D@2@@std@@PEAX@std@@@?$allocator@V?$basic_string@DU?$char_traits@D@std@@V?$allocator@D@2@@std@@@std@@QEAA@AEBV?$allocator@U?$_List_node@V?$basic_string@DU?$char_traits@D@std@@V?$allocator@D@2@@std@@PEAX@std@@@1@@Z 0000000180021240 f i acl_stdafx.obj
 0001:00020260       ??$?0U?$_List_node@Vstring@acl@@PEAX@std@@@?$allocator@Vstring@acl@@@std@@QEAA@AEBV?$allocator@U?$_List_node@Vstring@acl@@PEAX@std@@@1@@Z 0000000180021260 f i acl_stdafx.obj
 0001:00020280       ??$?0U?$_Tree_node@U?$pair@$$CBV?$basic_string@DU?$char_traits@D@std@@V?$allocator@D@2@@std@@Uobject_t@gsoner@acl@@@std@@PEAX@std@@@?$allocator@U?$pair@$$CBV?$basic_string@DU?$char_traits@D@std@@V?$allocator@D@2@@std@@Uobject_t@gsoner@acl@@@std@@@std@@QEAA@AEBV?$allocator@U?$_Tree_node@U?$pair@$$CBV?$basic_string@DU?$char_traits@D@std@@V?$allocator@D@2@@std@@Uobject_t@gsoner@acl@@@std@@PEAX@std@@@1@@Z 0000000180021280 f i acl_stdafx.obj
 0001:000202a0       ??$?0U?$_Tree_node@U?$pair@$$CBV?$basic_string@DU?$char_traits@D@std@@V?$allocator@D@2@@std@@Uobject_t@gsoner@acl@@@std@@PEAX@std@@@?$allocator@U_Container_proxy@std@@@std@@QEAA@AEBV?$allocator@U?$_Tree_node@U?$pair@$$CBV?$basic_string@DU?$char_traits@D@std@@V?$allocator@D@2@@std@@Uobject_t@gsoner@acl@@@std@@PEAX@std@@@1@@Z 00000001800212a0 f i acl_stdafx.obj
 0001:000202c0       ??$?0U?$_Wrap_alloc@V?$allocator@U?$_Tree_node@U?$pair@$$CBV?$basic_string@DU?$char_traits@D@std@@V?$allocator@D@2@@std@@Uobject_t@gsoner@acl@@@std@@PEAX@std@@@std@@@std@@@?$_Wrap_alloc@V?$allocator@U_Container_proxy@std@@@std@@@std@@QEAA@AEBU?$_Wrap_alloc@V?$allocator@U?$_Tree_node@U?$pair@$$CBV?$basic_string@DU?$char_traits@D@std@@V?$allocator@D@2@@std@@Uobject_t@gsoner@acl@@@std@@PEAX@std@@@std@@@1@@Z 00000001800212c0 f i acl_stdafx.obj
 0001:00020310       ??$?8DD@std@@YA_NAEBV?$allocator@D@0@0@Z 0000000180021310 f i acl_stdafx.obj
 0001:00020330       ??$?8PEAVredis_slot@acl@@PEAV01@@std@@YA_NAEBV?$allocator@PEAVredis_slot@acl@@@0@0@Z 0000000180021330 f i acl_stdafx.obj
 0001:00020350       ??$?8U?$_List_node@Ufield_t@gsoner@acl@@PEAX@std@@U01@@std@@YA_NAEBV?$allocator@U?$_List_node@Ufield_t@gsoner@acl@@PEAX@std@@@0@0@Z 0000000180021350 f i acl_stdafx.obj
 0001:00020370       ??$?8U?$_List_node@Uparent_obj_t@gsoner@acl@@PEAX@std@@U01@@std@@YA_NAEBV?$allocator@U?$_List_node@Uparent_obj_t@gsoner@acl@@PEAX@std@@@0@0@Z 0000000180021370 f i acl_stdafx.obj
 0001:00020390       ??$?8U?$_List_node@V?$basic_string@DU?$char_traits@D@std@@V?$allocator@D@2@@std@@PEAX@std@@U01@@std@@YA_NAEBV?$allocator@U?$_List_node@V?$basic_string@DU?$char_traits@D@std@@V?$allocator@D@2@@std@@PEAX@std@@@0@0@Z 0000000180021390 f i acl_stdafx.obj
 0001:000203b0       ??$?8U?$_List_node@Vstring@acl@@PEAX@std@@U01@@std@@YA_NAEBV?$allocator@U?$_List_node@Vstring@acl@@PEAX@std@@@0@0@Z 00000001800213b0 f i acl_stdafx.obj
 0001:000203d0       ??$?8U?$_Tree_node@U?$pair@$$CBV?$basic_string@DU?$char_traits@D@std@@V?$allocator@D@2@@std@@Uobject_t@gsoner@acl@@@std@@PEAX@std@@U01@@std@@YA_NAEBV?$allocator@U?$_Tree_node@U?$pair@$$CBV?$basic_string@DU?$char_traits@D@std@@V?$allocator@D@2@@std@@Uobject_t@gsoner@acl@@@std@@PEAX@std@@@0@0@Z 00000001800213d0 f i acl_stdafx.obj
 0001:000203f0       ??$?8V?$allocator@D@std@@V01@@std@@YA_NAEBU?$_Wrap_alloc@V?$allocator@D@std@@@0@0@Z 00000001800213f0 f i acl_stdafx.obj
 0001:00020470       ??$?8V?$allocator@PEAVredis_slot@acl@@@std@@V01@@std@@YA_NAEBU?$_Wrap_alloc@V?$allocator@PEAVredis_slot@acl@@@std@@@0@0@Z 0000000180021470 f i acl_stdafx.obj
 0001:000204f0       ??$?8V?$allocator@U?$_List_node@Ufield_t@gsoner@acl@@PEAX@std@@@std@@V01@@std@@YA_NAEBU?$_Wrap_alloc@V?$allocator@U?$_List_node@Ufield_t@gsoner@acl@@PEAX@std@@@std@@@0@0@Z 00000001800214f0 f i acl_stdafx.obj
 0001:00020570       ??$?8V?$allocator@U?$_List_node@Uparent_obj_t@gsoner@acl@@PEAX@std@@@std@@V01@@std@@YA_NAEBU?$_Wrap_alloc@V?$allocator@U?$_List_node@Uparent_obj_t@gsoner@acl@@PEAX@std@@@std@@@0@0@Z 0000000180021570 f i acl_stdafx.obj
 0001:000205f0       ??$?8V?$allocator@U?$_List_node@V?$basic_string@DU?$char_traits@D@std@@V?$allocator@D@2@@std@@PEAX@std@@@std@@V01@@std@@YA_NAEBU?$_Wrap_alloc@V?$allocator@U?$_List_node@V?$basic_string@DU?$char_traits@D@std@@V?$allocator@D@2@@std@@PEAX@std@@@std@@@0@0@Z 00000001800215f0 f i acl_stdafx.obj
 0001:00020670       ??$?8V?$allocator@U?$_List_node@Vstring@acl@@PEAX@std@@@std@@V01@@std@@YA_NAEBU?$_Wrap_alloc@V?$allocator@U?$_List_node@Vstring@acl@@PEAX@std@@@std@@@0@0@Z 0000000180021670 f i acl_stdafx.obj
 0001:000206f0       ??$?8V?$allocator@U?$_Tree_node@U?$pair@$$CBV?$basic_string@DU?$char_traits@D@std@@V?$allocator@D@2@@std@@Uobject_t@gsoner@acl@@@std@@PEAX@std@@@std@@V01@@std@@YA_NAEBU?$_Wrap_alloc@V?$allocator@U?$_Tree_node@U?$pair@$$CBV?$basic_string@DU?$char_traits@D@std@@V?$allocator@D@2@@std@@Uobject_t@gsoner@acl@@@std@@PEAX@std@@@std@@@0@0@Z 00000001800216f0 f i acl_stdafx.obj
 0001:00020770       ??$?8V?$allocator@Vredis_role4slave@acl@@@std@@V01@@std@@YA_NAEBU?$_Wrap_alloc@V?$allocator@Vredis_role4slave@acl@@@std@@@0@0@Z 0000000180021770 f i acl_stdafx.obj
 0001:000207f0       ??$?8Vredis_role4slave@acl@@V01@@std@@YA_NAEBV?$allocator@Vredis_role4slave@acl@@@0@0@Z 00000001800217f0 f i acl_stdafx.obj
 0001:00020810       ??$?9V?$allocator@D@std@@V01@@std@@YA_NAEBU?$_Wrap_alloc@V?$allocator@D@std@@@0@0@Z 0000000180021810 f i acl_stdafx.obj
 0001:00020880       ??$?9V?$allocator@PEAVredis_slot@acl@@@std@@V01@@std@@YA_NAEBU?$_Wrap_alloc@V?$allocator@PEAVredis_slot@acl@@@std@@@0@0@Z 0000000180021880 f i acl_stdafx.obj
 0001:000208f0       ??$?9V?$allocator@U?$_List_node@Ufield_t@gsoner@acl@@PEAX@std@@@std@@V01@@std@@YA_NAEBU?$_Wrap_alloc@V?$allocator@U?$_List_node@Ufield_t@gsoner@acl@@PEAX@std@@@std@@@0@0@Z 00000001800218f0 f i acl_stdafx.obj
 0001:00020960       ??$?9V?$allocator@U?$_List_node@Uparent_obj_t@gsoner@acl@@PEAX@std@@@std@@V01@@std@@YA_NAEBU?$_Wrap_alloc@V?$allocator@U?$_List_node@Uparent_obj_t@gsoner@acl@@PEAX@std@@@std@@@0@0@Z 0000000180021960 f i acl_stdafx.obj
 0001:000209d0       ??$?9V?$allocator@U?$_List_node@V?$basic_string@DU?$char_traits@D@std@@V?$allocator@D@2@@std@@PEAX@std@@@std@@V01@@std@@YA_NAEBU?$_Wrap_alloc@V?$allocator@U?$_List_node@V?$basic_string@DU?$char_traits@D@std@@V?$allocator@D@2@@std@@PEAX@std@@@std@@@0@0@Z 00000001800219d0 f i acl_stdafx.obj
 0001:00020a40       ??$?9V?$allocator@U?$_List_node@Vstring@acl@@PEAX@std@@@std@@V01@@std@@YA_NAEBU?$_Wrap_alloc@V?$allocator@U?$_List_node@Vstring@acl@@PEAX@std@@@std@@@0@0@Z 0000000180021a40 f i acl_stdafx.obj
 0001:00020ab0       ??$?9V?$allocator@U?$_Tree_node@U?$pair@$$CBV?$basic_string@DU?$char_traits@D@std@@V?$allocator@D@2@@std@@Uobject_t@gsoner@acl@@@std@@PEAX@std@@@std@@V01@@std@@YA_NAEBU?$_Wrap_alloc@V?$allocator@U?$_Tree_node@U?$pair@$$CBV?$basic_string@DU?$char_traits@D@std@@V?$allocator@D@2@@std@@Uobject_t@gsoner@acl@@@std@@PEAX@std@@@std@@@0@0@Z 0000000180021ab0 f i acl_stdafx.obj
 0001:00020b20       ??$?9V?$allocator@Vredis_role4slave@acl@@@std@@V01@@std@@YA_NAEBU?$_Wrap_alloc@V?$allocator@Vredis_role4slave@acl@@@std@@@0@0@Z 0000000180021b20 f i acl_stdafx.obj
 0001:00020b90       ??$_Allocate@D@std@@YAPEAD_KPEAD@Z 0000000180021b90 f i acl_stdafx.obj
 0001:00020c10       ??$_Allocate@PEAVredis_slot@acl@@@std@@YAPEAPEAVredis_slot@acl@@_KPEAPEAV12@@Z 0000000180021c10 f i acl_stdafx.obj
 0001:00020cb0       ??$_Allocate@U?$_List_node@Ufield_t@gsoner@acl@@PEAX@std@@@std@@YAPEAU?$_List_node@Ufield_t@gsoner@acl@@PEAX@0@_KPEAU10@@Z 0000000180021cb0 f i acl_stdafx.obj
 0001:00020d40       ??$_Allocate@U?$_List_node@Uparent_obj_t@gsoner@acl@@PEAX@std@@@std@@YAPEAU?$_List_node@Uparent_obj_t@gsoner@acl@@PEAX@0@_KPEAU10@@Z 0000000180021d40 f i acl_stdafx.obj
 0001:00020dd0       ??$_Allocate@U?$_List_node@V?$basic_string@DU?$char_traits@D@std@@V?$allocator@D@2@@std@@PEAX@std@@@std@@YAPEAU?$_List_node@V?$basic_string@DU?$char_traits@D@std@@V?$allocator@D@2@@std@@PEAX@0@_KPEAU10@@Z 0000000180021dd0 f i acl_stdafx.obj
 0001:00020e60       ??$_Allocate@U?$_List_node@Vstring@acl@@PEAX@std@@@std@@YAPEAU?$_List_node@Vstring@acl@@PEAX@0@_KPEAU10@@Z 0000000180021e60 f i acl_stdafx.obj
 0001:00020ef0       ??$_Allocate@U?$_Tree_node@U?$pair@$$CBV?$basic_string@DU?$char_traits@D@std@@V?$allocator@D@2@@std@@Uobject_t@gsoner@acl@@@std@@PEAX@std@@@std@@YAPEAU?$_Tree_node@U?$pair@$$CBV?$basic_string@DU?$char_traits@D@std@@V?$allocator@D@2@@std@@Uobject_t@gsoner@acl@@@std@@PEAX@0@_KPEAU10@@Z 0000000180021ef0 f i acl_stdafx.obj
 0001:00020f90       ??$_Allocate@U_Container_proxy@std@@@std@@YAPEAU_Container_proxy@0@_KPEAU10@@Z 0000000180021f90 f i acl_stdafx.obj
 0001:00021020       ??$_Allocate@Vredis_role4slave@acl@@@std@@YAPEAVredis_role4slave@acl@@_KPEAV12@@Z 0000000180022020 f i acl_stdafx.obj
 0001:000210c0       ??$_Buynode@AEAU?$pair@$$CBV?$basic_string@DU?$char_traits@D@std@@V?$allocator@D@2@@std@@Uobject_t@gsoner@acl@@@std@@@?$_Tree_buy@U?$pair@$$CBV?$basic_string@DU?$char_traits@D@std@@V?$allocator@D@2@@std@@Uobject_t@gsoner@acl@@@std@@V?$allocator@U?$pair@$$CBV?$basic_string@DU?$char_traits@D@std@@V?$allocator@D@2@@std@@Uobject_t@gsoner@acl@@@std@@@2@@std@@QEAAPEAU?$_Tree_node@U?$pair@$$CBV?$basic_string@DU?$char_traits@D@std@@V?$allocator@D@2@@std@@Uobject_t@gsoner@acl@@@std@@PEAX@1@AEAU?$pair@$$CBV?$basic_string@DU?$char_traits@D@std@@V?$allocator@D@2@@std@@Uobject_t@gsoner@acl@@@1@@Z 00000001800220c0 f i acl_stdafx.obj
 0001:000211a0       ??$_Buynode@AEBUfield_t@gsoner@acl@@@?$_List_buy@Ufield_t@gsoner@acl@@V?$allocator@Ufield_t@gsoner@acl@@@std@@@std@@QEAAPEAU?$_List_node@Ufield_t@gsoner@acl@@PEAX@1@PEAU21@0AEBUfield_t@gsoner@acl@@@Z 00000001800221a0 f i acl_stdafx.obj
 0001:00021280       ??$_Buynode@AEBUparent_obj_t@gsoner@acl@@@?$_List_buy@Uparent_obj_t@gsoner@acl@@V?$allocator@Uparent_obj_t@gsoner@acl@@@std@@@std@@QEAAPEAU?$_List_node@Uparent_obj_t@gsoner@acl@@PEAX@1@PEAU21@0AEBUparent_obj_t@gsoner@acl@@@Z 0000000180022280 f i acl_stdafx.obj
 0001:00021360       ??$_Buynode@AEBV?$basic_string@DU?$char_traits@D@std@@V?$allocator@D@2@@std@@@?$_List_buy@V?$basic_string@DU?$char_traits@D@std@@V?$allocator@D@2@@std@@V?$allocator@V?$basic_string@DU?$char_traits@D@std@@V?$allocator@D@2@@std@@@2@@std@@QEAAPEAU?$_List_node@V?$basic_string@DU?$char_traits@D@std@@V?$allocator@D@2@@std@@PEAX@1@PEAU21@0AEBV?$basic_string@DU?$char_traits@D@std@@V?$allocator@D@2@@1@@Z 0000000180022360 f i acl_stdafx.obj
 0001:00021440       ??$_Buynode@AEBVstring@acl@@@?$_List_buy@Vstring@acl@@V?$allocator@Vstring@acl@@@std@@@std@@QEAAPEAU?$_List_node@Vstring@acl@@PEAX@1@PEAU21@0AEBVstring@acl@@@Z 0000000180022440 f i acl_stdafx.obj
 0001:00021520       ??$_Copy@U?$integral_constant@_N$0A@@std@@@?$_Tree@V?$_Tmap_traits@V?$basic_string@DU?$char_traits@D@std@@V?$allocator@D@2@@std@@Uobject_t@gsoner@acl@@U?$less@V?$basic_string@DU?$char_traits@D@std@@V?$allocator@D@2@@std@@@2@V?$allocator@U?$pair@$$CBV?$basic_string@DU?$char_traits@D@std@@V?$allocator@D@2@@std@@Uobject_t@gsoner@acl@@@std@@@2@$0A@@std@@@std@@IEAAXAEBV01@U?$integral_constant@_N$0A@@1@@Z 0000000180022520 f i acl_stdafx.obj
 0001:00021680       ??$_Copy_impl@PEAPEAVredis_slot@acl@@PEAPEAV12@@std@@YAPEAPEAVredis_slot@acl@@PEAPEAV12@00@Z 0000000180022680 f i acl_stdafx.obj
 0001:00021700       ??$_Copy_impl@PEAPEAVredis_slot@acl@@PEAPEAV12@@std@@YAPEAPEAVredis_slot@acl@@PEAPEAV12@00U_Scalar_ptr_iterator_tag@0@@Z 0000000180022700 f i acl_stdafx.obj
 0001:000217a0       ??$_Copy_impl@PEAVredis_role4slave@acl@@PEAV12@@std@@YAPEAVredis_role4slave@acl@@PEAV12@00@Z 00000001800227a0 f i acl_stdafx.obj
 0001:00021820       ??$_Copy_impl@PEAVredis_role4slave@acl@@PEAV12@@std@@YAPEAVredis_role4slave@acl@@PEAV12@00U_Nonscalar_ptr_iterator_tag@0@@Z 0000000180022820 f i acl_stdafx.obj
 0001:000218c0       ??$_Copy_nodes@U?$integral_constant@_N$0A@@std@@@?$_Tree@V?$_Tmap_traits@V?$basic_string@DU?$char_traits@D@std@@V?$allocator@D@2@@std@@Uobject_t@gsoner@acl@@U?$less@V?$basic_string@DU?$char_traits@D@std@@V?$allocator@D@2@@std@@@2@V?$allocator@U?$pair@$$CBV?$basic_string@DU?$char_traits@D@std@@V?$allocator@D@2@@std@@Uobject_t@gsoner@acl@@@std@@@2@$0A@@std@@@std@@IEAAPEAU?$_Tree_node@U?$pair@$$CBV?$basic_string@DU?$char_traits@D@std@@V?$allocator@D@2@@std@@Uobject_t@gsoner@acl@@@std@@PEAX@1@PEAU21@0U?$integral_constant@_N$0A@@1@@Z 00000001800228c0 f i acl_stdafx.obj
 0001:00021b00       ??$_Copy_or_move@U?$integral_constant@_N$0A@@std@@U?$integral_constant@_N$00@2@U12@H@?$_Tree@V?$_Tmap_traits@V?$basic_string@DU?$char_traits@D@std@@V?$allocator@D@2@@std@@Uobject_t@gsoner@acl@@U?$less@V?$basic_string@DU?$char_traits@D@std@@V?$allocator@D@2@@std@@@2@V?$allocator@U?$pair@$$CBV?$basic_string@DU?$char_traits@D@std@@V?$allocator@D@2@@std@@Uobject_t@gsoner@acl@@@std@@@2@$0A@@std@@@std@@IEAAPEAU?$_Tree_node@U?$pair@$$CBV?$basic_string@DU?$char_traits@D@std@@V?$allocator@D@2@@std@@Uobject_t@gsoner@acl@@@std@@PEAX@1@PEAU21@U?$integral_constant@_N$0A@@1@U?$integral_constant@_N$00@1@1H@Z 0000000180022b00 f i acl_stdafx.obj
 0001:00021b60       ??$_Debug_pointer@D@std@@YAXPEBDPEB_WI@Z 0000000180022b60 f i acl_stdafx.obj
 0001:00021bc0       ??$_Debug_pointer@PEAVredis_slot@acl@@@std@@YAXPEAPEAVredis_slot@acl@@PEB_WI@Z 0000000180022bc0 f i acl_stdafx.obj
 0001:00021c20       ??$_Debug_pointer@Vredis_role4slave@acl@@@std@@YAXPEAVredis_role4slave@acl@@PEB_WI@Z 0000000180022c20 f i acl_stdafx.obj
 0001:00021c80       ??$_Debug_pointer@Vredis_role4slave@acl@@@std@@YAXPEBVredis_role4slave@acl@@PEB_WI@Z 0000000180022c80 f i acl_stdafx.obj
 0001:00021ce0       ??$_Debug_range2@PEAPEAVredis_slot@acl@@@std@@YAXPEAPEAVredis_slot@acl@@0PEB_WIUrandom_access_iterator_tag@0@@Z 0000000180022ce0 f i acl_stdafx.obj
 0001:00021d90       ??$_Debug_range2@PEAVredis_role4slave@acl@@@std@@YAXPEAVredis_role4slave@acl@@0PEB_WIUrandom_access_iterator_tag@0@@Z 0000000180022d90 f i acl_stdafx.obj
 0001:00021e40       ??$_Debug_range2@PEBVredis_role4slave@acl@@@std@@YAXPEBVredis_role4slave@acl@@0PEB_WIUrandom_access_iterator_tag@0@@Z 0000000180022e40 f i acl_stdafx.obj
 0001:00021ef0       ??$_Debug_range2@V?$_List_const_iterator@V?$_List_val@U?$_List_simple_types@Ufield_t@gsoner@acl@@@std@@@std@@@std@@@std@@YAXV?$_List_const_iterator@V?$_List_val@U?$_List_simple_types@Ufield_t@gsoner@acl@@@std@@@std@@@0@0PEB_WIUinput_iterator_tag@0@@Z 0000000180022ef0 f i acl_stdafx.obj
 0001:00021f80       ??$_Debug_range2@V?$_List_const_iterator@V?$_List_val@U?$_List_simple_types@Uparent_obj_t@gsoner@acl@@@std@@@std@@@std@@@std@@YAXV?$_List_const_iterator@V?$_List_val@U?$_List_simple_types@Uparent_obj_t@gsoner@acl@@@std@@@std@@@0@0PEB_WIUinput_iterator_tag@0@@Z 0000000180022f80 f i acl_stdafx.obj
 0001:00022010       ??$_Debug_range2@V?$_List_const_iterator@V?$_List_val@U?$_List_simple_types@V?$basic_string@DU?$char_traits@D@std@@V?$allocator@D@2@@std@@@std@@@std@@@std@@@std@@YAXV?$_List_const_iterator@V?$_List_val@U?$_List_simple_types@V?$basic_string@DU?$char_traits@D@std@@V?$allocator@D@2@@std@@@std@@@std@@@0@0PEB_WIUinput_iterator_tag@0@@Z 0000000180023010 f i acl_stdafx.obj
 0001:000220a0       ??$_Debug_range2@V?$_List_const_iterator@V?$_List_val@U?$_List_simple_types@Vstring@acl@@@std@@@std@@@std@@@std@@YAXV?$_List_const_iterator@V?$_List_val@U?$_List_simple_types@Vstring@acl@@@std@@@std@@@0@0PEB_WIUinput_iterator_tag@0@@Z 00000001800230a0 f i acl_stdafx.obj
 0001:00022130       ??$_Debug_range@PEAPEAVredis_slot@acl@@@std@@YAXPEAPEAVredis_slot@acl@@0PEB_WI@Z 0000000180023130 f i acl_stdafx.obj
 0001:000221b0       ??$_Debug_range@PEAVredis_role4slave@acl@@@std@@YAXPEAVredis_role4slave@acl@@0PEB_WI@Z 00000001800231b0 f i acl_stdafx.obj
 0001:00022230       ??$_Debug_range@PEBVredis_role4slave@acl@@@std@@YAXPEBVredis_role4slave@acl@@0PEB_WI@Z 0000000180023230 f i acl_stdafx.obj
 0001:000222b0       ??$_Debug_range@V?$_List_const_iterator@V?$_List_val@U?$_List_simple_types@Ufield_t@gsoner@acl@@@std@@@std@@@std@@@std@@YAXV?$_List_const_iterator@V?$_List_val@U?$_List_simple_types@Ufield_t@gsoner@acl@@@std@@@std@@@0@0PEB_WI@Z 00000001800232b0 f i acl_stdafx.obj
 0001:000223f0       ??$_Debug_range@V?$_List_const_iterator@V?$_List_val@U?$_List_simple_types@Uparent_obj_t@gsoner@acl@@@std@@@std@@@std@@@std@@YAXV?$_List_const_iterator@V?$_List_val@U?$_List_simple_types@Uparent_obj_t@gsoner@acl@@@std@@@std@@@0@0PEB_WI@Z 00000001800233f0 f i acl_stdafx.obj
 0001:00022530       ??$_Debug_range@V?$_List_const_iterator@V?$_List_val@U?$_List_simple_types@V?$basic_string@DU?$char_traits@D@std@@V?$allocator@D@2@@std@@@std@@@std@@@std@@@std@@YAXV?$_List_const_iterator@V?$_List_val@U?$_List_simple_types@V?$basic_string@DU?$char_traits@D@std@@V?$allocator@D@2@@std@@@std@@@std@@@0@0PEB_WI@Z 0000000180023530 f i acl_stdafx.obj
 0001:00022670       ??$_Debug_range@V?$_List_const_iterator@V?$_List_val@U?$_List_simple_types@Vstring@acl@@@std@@@std@@@std@@@std@@YAXV?$_List_const_iterator@V?$_List_val@U?$_List_simple_types@Vstring@acl@@@std@@@std@@@0@0PEB_WI@Z 0000000180023670 f i acl_stdafx.obj
 0001:000227b0       ??$_Destroy_range@U?$_Wrap_alloc@V?$allocator@PEAVredis_slot@acl@@@std@@@std@@@std@@YAXPEAPEAVredis_slot@acl@@0AEAU?$_Wrap_alloc@V?$allocator@PEAVredis_slot@acl@@@std@@@0@@Z 00000001800237b0 f i acl_stdafx.obj
 0001:00022830       ??$_Destroy_range@U?$_Wrap_alloc@V?$allocator@PEAVredis_slot@acl@@@std@@@std@@@std@@YAXPEAPEAVredis_slot@acl@@0AEAU?$_Wrap_alloc@V?$allocator@PEAVredis_slot@acl@@@std@@@0@U_Scalar_ptr_iterator_tag@0@@Z 0000000180023830 f i acl_stdafx.obj
 0001:00022850       ??$_Destroy_range@U?$_Wrap_alloc@V?$allocator@Vredis_role4slave@acl@@@std@@@std@@@std@@YAXPEAVredis_role4slave@acl@@0AEAU?$_Wrap_alloc@V?$allocator@Vredis_role4slave@acl@@@std@@@0@@Z 0000000180023850 f i acl_stdafx.obj
 0001:000228d0       ??$_Destroy_range@U?$_Wrap_alloc@V?$allocator@Vredis_role4slave@acl@@@std@@@std@@@std@@YAXPEAVredis_role4slave@acl@@0AEAU?$_Wrap_alloc@V?$allocator@Vredis_role4slave@acl@@@std@@@0@U_Nonscalar_ptr_iterator_tag@0@@Z 00000001800238d0 f i acl_stdafx.obj
 0001:00022950       ??$_Destroy_range@U?$_Wrap_alloc@V?$allocator@Vstring@acl@@@std@@@std@@@std@@YAXPEAVstring@acl@@0AEAU?$_Wrap_alloc@V?$allocator@Vstring@acl@@@std@@@0@@Z 0000000180023950 f i acl_stdafx.obj
 0001:000229d0       ??$_Destroy_range@U?$_Wrap_alloc@V?$allocator@Vstring@acl@@@std@@@std@@@std@@YAXPEAVstring@acl@@0AEAU?$_Wrap_alloc@V?$allocator@Vstring@acl@@@std@@@0@U_Nonscalar_ptr_iterator_tag@0@@Z 00000001800239d0 f i acl_stdafx.obj
 0001:00022a50       ??$_Insert@AEBUfield_t@gsoner@acl@@@?$list@Ufield_t@gsoner@acl@@V?$allocator@Ufield_t@gsoner@acl@@@std@@@std@@QEAAXV?$_List_unchecked_const_iterator@V?$_List_val@U?$_List_simple_types@Ufield_t@gsoner@acl@@@std@@@std@@U_Iterator_base0@2@@1@AEBUfield_t@gsoner@acl@@@Z 0000000180023a50 f i acl_stdafx.obj
 0001:00022b30       ??$_Insert@AEBUparent_obj_t@gsoner@acl@@@?$list@Uparent_obj_t@gsoner@acl@@V?$allocator@Uparent_obj_t@gsoner@acl@@@std@@@std@@QEAAXV?$_List_unchecked_const_iterator@V?$_List_val@U?$_List_simple_types@Uparent_obj_t@gsoner@acl@@@std@@@std@@U_Iterator_base0@2@@1@AEBUparent_obj_t@gsoner@acl@@@Z 0000000180023b30 f i acl_stdafx.obj
 0001:00022c10       ??$_Insert@AEBV?$basic_string@DU?$char_traits@D@std@@V?$allocator@D@2@@std@@@?$list@V?$basic_string@DU?$char_traits@D@std@@V?$allocator@D@2@@std@@V?$allocator@V?$basic_string@DU?$char_traits@D@std@@V?$allocator@D@2@@std@@@2@@std@@QEAAXV?$_List_unchecked_const_iterator@V?$_List_val@U?$_List_simple_types@V?$basic_string@DU?$char_traits@D@std@@V?$allocator@D@2@@std@@@std@@@std@@U_Iterator_base0@2@@1@AEBV?$basic_string@DU?$char_traits@D@std@@V?$allocator@D@2@@1@@Z 0000000180023c10 f i acl_stdafx.obj
 0001:00022cf0       ??$_Insert@AEBVstring@acl@@@?$list@Vstring@acl@@V?$allocator@Vstring@acl@@@std@@@std@@QEAAXV?$_List_unchecked_const_iterator@V?$_List_val@U?$_List_simple_types@Vstring@acl@@@std@@@std@@U_Iterator_base0@2@@1@AEBVstring@acl@@@Z 0000000180023cf0 f i acl_stdafx.obj
 0001:00022dd0       ??$_Insert_range@V?$_List_const_iterator@V?$_List_val@U?$_List_simple_types@Ufield_t@gsoner@acl@@@std@@@std@@@std@@@?$list@Ufield_t@gsoner@acl@@V?$allocator@Ufield_t@gsoner@acl@@@std@@@std@@QEAAXV?$_List_unchecked_const_iterator@V?$_List_val@U?$_List_simple_types@Ufield_t@gsoner@acl@@@std@@@std@@U_Iterator_base0@2@@1@V?$_List_const_iterator@V?$_List_val@U?$_List_simple_types@Ufield_t@gsoner@acl@@@std@@@std@@@1@1Uforward_iterator_tag@1@@Z 0000000180023dd0 f i acl_stdafx.obj
 0001:00022fc0       ??$_Insert_range@V?$_List_const_iterator@V?$_List_val@U?$_List_simple_types@Uparent_obj_t@gsoner@acl@@@std@@@std@@@std@@@?$list@Uparent_obj_t@gsoner@acl@@V?$allocator@Uparent_obj_t@gsoner@acl@@@std@@@std@@QEAAXV?$_List_unchecked_const_iterator@V?$_List_val@U?$_List_simple_types@Uparent_obj_t@gsoner@acl@@@std@@@std@@U_Iterator_base0@2@@1@V?$_List_const_iterator@V?$_List_val@U?$_List_simple_types@Uparent_obj_t@gsoner@acl@@@std@@@std@@@1@1Uforward_iterator_tag@1@@Z 0000000180023fc0 f i acl_stdafx.obj
 0001:000231b0       ??$_Insert_range@V?$_List_const_iterator@V?$_List_val@U?$_List_simple_types@V?$basic_string@DU?$char_traits@D@std@@V?$allocator@D@2@@std@@@std@@@std@@@std@@@?$list@V?$basic_string@DU?$char_traits@D@std@@V?$allocator@D@2@@std@@V?$allocator@V?$basic_string@DU?$char_traits@D@std@@V?$allocator@D@2@@std@@@2@@std@@QEAAXV?$_List_unchecked_const_iterator@V?$_List_val@U?$_List_simple_types@V?$basic_string@DU?$char_traits@D@std@@V?$allocator@D@2@@std@@@std@@@std@@U_Iterator_base0@2@@1@V?$_List_const_iterator@V?$_List_val@U?$_List_simple_types@V?$basic_string@DU?$char_traits@D@std@@V?$allocator@D@2@@std@@@std@@@std@@@1@1Uforward_iterator_tag@1@@Z 00000001800241b0 f i acl_stdafx.obj
 0001:000233a0       ??$_Insert_range@V?$_List_const_iterator@V?$_List_val@U?$_List_simple_types@Vstring@acl@@@std@@@std@@@std@@@?$list@Vstring@acl@@V?$allocator@Vstring@acl@@@std@@@std@@QEAAXV?$_List_unchecked_const_iterator@V?$_List_val@U?$_List_simple_types@Vstring@acl@@@std@@@std@@U_Iterator_base0@2@@1@V?$_List_const_iterator@V?$_List_val@U?$_List_simple_types@Vstring@acl@@@std@@@std@@@1@1Uforward_iterator_tag@1@@Z 00000001800243a0 f i acl_stdafx.obj
 0001:00023590       ??$_Iter_cat@PEAPEAVredis_slot@acl@@@std@@YA?AUrandom_access_iterator_tag@0@AEBQEAPEAVredis_slot@acl@@@Z 0000000180024590 f i acl_stdafx.obj
 0001:00023600       ??$_Iter_cat@PEAVredis_role4slave@acl@@@std@@YA?AUrandom_access_iterator_tag@0@AEBQEAVredis_role4slave@acl@@@Z 0000000180024600 f i acl_stdafx.obj
 0001:00023670       ??$_Iter_cat@PEBVredis_role4slave@acl@@@std@@YA?AUrandom_access_iterator_tag@0@AEBQEBVredis_role4slave@acl@@@Z 0000000180024670 f i acl_stdafx.obj
 0001:000236e0       ??$_Iter_cat@V?$_List_const_iterator@V?$_List_val@U?$_List_simple_types@Ufield_t@gsoner@acl@@@std@@@std@@@std@@@std@@YA?AUbidirectional_iterator_tag@0@AEBV?$_List_const_iterator@V?$_List_val@U?$_List_simple_types@Ufield_t@gsoner@acl@@@std@@@std@@@0@@Z 00000001800246e0 f i acl_stdafx.obj
 0001:00023750       ??$_Iter_cat@V?$_List_const_iterator@V?$_List_val@U?$_List_simple_types@Uparent_obj_t@gsoner@acl@@@std@@@std@@@std@@@std@@YA?AUbidirectional_iterator_tag@0@AEBV?$_List_const_iterator@V?$_List_val@U?$_List_simple_types@Uparent_obj_t@gsoner@acl@@@std@@@std@@@0@@Z 0000000180024750 f i acl_stdafx.obj
 0001:000237c0       ??$_Iter_cat@V?$_List_const_iterator@V?$_List_val@U?$_List_simple_types@V?$basic_string@DU?$char_traits@D@std@@V?$allocator@D@2@@std@@@std@@@std@@@std@@@std@@YA?AUbidirectional_iterator_tag@0@AEBV?$_List_const_iterator@V?$_List_val@U?$_List_simple_types@V?$basic_string@DU?$char_traits@D@std@@V?$allocator@D@2@@std@@@std@@@std@@@0@@Z 00000001800247c0 f i acl_stdafx.obj
 0001:00023830       ??$_Iter_cat@V?$_List_const_iterator@V?$_List_val@U?$_List_simple_types@Vstring@acl@@@std@@@std@@@std@@@std@@YA?AUbidirectional_iterator_tag@0@AEBV?$_List_const_iterator@V?$_List_val@U?$_List_simple_types@Vstring@acl@@@std@@@std@@@0@@Z 0000000180024830 f i acl_stdafx.obj
 0001:000238a0       ??$_Move@AEAD@std@@YA$$QEADAEAD@Z 00000001800248a0 f i acl_stdafx.obj
 0001:000238b0       ??$_Ptr_cat@PEAVredis_slot@acl@@PEAV12@@std@@YA?AU_Scalar_ptr_iterator_tag@0@PEAPEAVredis_slot@acl@@0@Z 00000001800248b0 f i acl_stdafx.obj
 0001:00023910       ??$_Ptr_cat@Vredis_role4slave@acl@@V12@@std@@YA?AU_Nonscalar_ptr_iterator_tag@0@PEAVredis_role4slave@acl@@0@Z 0000000180024910 f i acl_stdafx.obj
 0001:00023970       ??$_Ptr_cat@Vredis_role4slave@acl@@V12@@std@@YA?AU_Nonscalar_ptr_iterator_tag@0@PEBVredis_role4slave@acl@@PEAV23@@Z 0000000180024970 f i acl_stdafx.obj
 0001:000239d0       ??$_Ptr_cat@Vstring@acl@@V12@@std@@YA?AU_Nonscalar_ptr_iterator_tag@0@PEAVstring@acl@@0@Z 00000001800249d0 f i acl_stdafx.obj
 0001:00023a30       ??$_Rechecked@PEAPEAVredis_slot@acl@@PEAPEAV12@@std@@YAAEAPEAPEAVredis_slot@acl@@AEAPEAPEAV12@PEAPEAV12@@Z 0000000180024a30 f i acl_stdafx.obj
 0001:00023a60       ??$_Rechecked@PEAVredis_role4slave@acl@@PEAV12@@std@@YAAEAPEAVredis_role4slave@acl@@AEAPEAV12@PEAV12@@Z 0000000180024a60 f i acl_stdafx.obj
 0001:00023a90       ??$_Reusenode@AEBUfield_t@gsoner@acl@@@?$list@Ufield_t@gsoner@acl@@V?$allocator@Ufield_t@gsoner@acl@@@std@@@std@@QEAAXV?$_List_iterator@V?$_List_val@U?$_List_simple_types@Ufield_t@gsoner@acl@@@std@@@std@@@1@AEBUfield_t@gsoner@acl@@@Z 0000000180024a90 f i acl_stdafx.obj
 0001:00023bc0       ??$_Reusenode@AEBUparent_obj_t@gsoner@acl@@@?$list@Uparent_obj_t@gsoner@acl@@V?$allocator@Uparent_obj_t@gsoner@acl@@@std@@@std@@QEAAXV?$_List_iterator@V?$_List_val@U?$_List_simple_types@Uparent_obj_t@gsoner@acl@@@std@@@std@@@1@AEBUparent_obj_t@gsoner@acl@@@Z 0000000180024bc0 f i acl_stdafx.obj
 0001:00023cf0       ??$_Reusenode@AEBV?$basic_string@DU?$char_traits@D@std@@V?$allocator@D@2@@std@@@?$list@V?$basic_string@DU?$char_traits@D@std@@V?$allocator@D@2@@std@@V?$allocator@V?$basic_string@DU?$char_traits@D@std@@V?$allocator@D@2@@std@@@2@@std@@QEAAXV?$_List_iterator@V?$_List_val@U?$_List_simple_types@V?$basic_string@DU?$char_traits@D@std@@V?$allocator@D@2@@std@@@std@@@std@@@1@AEBV?$basic_string@DU?$char_traits@D@std@@V?$allocator@D@2@@1@@Z 0000000180024cf0 f i acl_stdafx.obj
 0001:00023e20       ??$_Reusenode@AEBVstring@acl@@@?$list@Vstring@acl@@V?$allocator@Vstring@acl@@@std@@@std@@QEAAXV?$_List_iterator@V?$_List_val@U?$_List_simple_types@Vstring@acl@@@std@@@std@@@1@AEBVstring@acl@@@Z 0000000180024e20 f i acl_stdafx.obj
 0001:00023f50       ??$_Ucopy@PEAPEAVredis_slot@acl@@@?$vector@PEAVredis_slot@acl@@V?$allocator@PEAVredis_slot@acl@@@std@@@std@@IEAAPEAPEAVredis_slot@acl@@PEAPEAV23@00@Z 0000000180024f50 f i acl_stdafx.obj
 0001:00023fe0       ??$_Ucopy@PEAVredis_role4slave@acl@@@?$vector@Vredis_role4slave@acl@@V?$allocator@Vredis_role4slave@acl@@@std@@@std@@IEAAPEAVredis_role4slave@acl@@PEAV23@00@Z 0000000180024fe0 f i acl_stdafx.obj
 0001:00024070       ??$_Ucopy@V?$_Vector_const_iterator@V?$_Vector_val@U?$_Simple_types@Vredis_role4slave@acl@@@std@@@std@@@std@@@?$vector@Vredis_role4slave@acl@@V?$allocator@Vredis_role4slave@acl@@@std@@@std@@IEAAPEAVredis_role4slave@acl@@V?$_Vector_const_iterator@V?$_Vector_val@U?$_Simple_types@Vredis_role4slave@acl@@@std@@@std@@@1@0PEAV23@@Z 0000000180025070 f i acl_stdafx.obj
 0001:000241d0       ??$_Umove@PEAVredis_role4slave@acl@@@?$vector@Vredis_role4slave@acl@@V?$allocator@Vredis_role4slave@acl@@@std@@@std@@IEAAPEAVredis_role4slave@acl@@PEAV23@00@Z 00000001800251d0 f i acl_stdafx.obj
 0001:00024260       ??$_Unchecked@PEAPEAVredis_slot@acl@@@std@@YAPEAPEAVredis_slot@acl@@PEAPEAV12@@Z 0000000180025260 f i acl_stdafx.obj
 0001:00024270       ??$_Unchecked@PEAVredis_role4slave@acl@@@std@@YAPEAVredis_role4slave@acl@@PEAV12@@Z 0000000180025270 f i acl_stdafx.obj
 0001:00024280       ??$_Unchecked@V?$_Vector_val@U?$_Simple_types@Vredis_role4slave@acl@@@std@@@std@@@std@@YAPEBVredis_role4slave@acl@@V?$_Vector_const_iterator@V?$_Vector_val@U?$_Simple_types@Vredis_role4slave@acl@@@std@@@std@@@0@@Z 0000000180025280 f i acl_stdafx.obj
 0001:000242e0       ??$_Uninit_copy@PEAPEAVredis_slot@acl@@PEAPEAV12@U?$_Wrap_alloc@V?$allocator@PEAVredis_slot@acl@@@std@@@std@@@std@@YAPEAPEAVredis_slot@acl@@PEAPEAV12@00AEAU?$_Wrap_alloc@V?$allocator@PEAVredis_slot@acl@@@std@@@0@@Z 00000001800252e0 f i acl_stdafx.obj
 0001:00024370       ??$_Uninit_copy@PEAVredis_role4slave@acl@@PEAV12@U?$_Wrap_alloc@V?$allocator@Vredis_role4slave@acl@@@std@@@std@@@std@@YAPEAVredis_role4slave@acl@@PEAV12@00AEAU?$_Wrap_alloc@V?$allocator@Vredis_role4slave@acl@@@std@@@0@@Z 0000000180025370 f i acl_stdafx.obj
 0001:00024400       ??$_Uninit_copy@PEAVredis_role4slave@acl@@PEAV12@V?$allocator@Vredis_role4slave@acl@@@std@@@std@@YAPEAVredis_role4slave@acl@@PEAV12@00AEAU?$_Wrap_alloc@V?$allocator@Vredis_role4slave@acl@@@std@@@0@U_Nonscalar_ptr_iterator_tag@0@@Z 0000000180025400 f i acl_stdafx.obj
 0001:00024500       ??$_Uninit_copy@PEAVredis_slot@acl@@PEAV12@@std@@YAPEAPEAVredis_slot@acl@@PEAPEAV12@00AEAU?$_Wrap_alloc@V?$allocator@PEAVredis_slot@acl@@@std@@@0@U_Scalar_ptr_iterator_tag@0@@Z 0000000180025500 f i acl_stdafx.obj
 0001:000245d0       ??$_Uninit_copy@PEBVredis_role4slave@acl@@PEAV12@U?$_Wrap_alloc@V?$allocator@Vredis_role4slave@acl@@@std@@@std@@@std@@YAPEAVredis_role4slave@acl@@PEBV12@0PEAV12@AEAU?$_Wrap_alloc@V?$allocator@Vredis_role4slave@acl@@@std@@@0@@Z 00000001800255d0 f i acl_stdafx.obj
 0001:00024660       ??$_Uninit_copy@PEBVredis_role4slave@acl@@PEAV12@V?$allocator@Vredis_role4slave@acl@@@std@@@std@@YAPEAVredis_role4slave@acl@@PEBV12@0PEAV12@AEAU?$_Wrap_alloc@V?$allocator@Vredis_role4slave@acl@@@std@@@0@U_Nonscalar_ptr_iterator_tag@0@@Z 0000000180025660 f i acl_stdafx.obj
 0001:00024760       ??$_Uninit_move@PEAVredis_role4slave@acl@@PEAV12@U?$_Wrap_alloc@V?$allocator@Vredis_role4slave@acl@@@std@@@std@@@std@@YAPEAVredis_role4slave@acl@@PEAV12@00AEAU?$_Wrap_alloc@V?$allocator@Vredis_role4slave@acl@@@std@@@0@@Z 0000000180025760 f i acl_stdafx.obj
 0001:00024800       ??$_Uninit_move@PEAVredis_role4slave@acl@@PEAV12@V?$allocator@Vredis_role4slave@acl@@@std@@V12@@std@@YAPEAVredis_role4slave@acl@@PEAV12@00AEAU?$_Wrap_alloc@V?$allocator@Vredis_role4slave@acl@@@std@@@0@0U_Nonscalar_ptr_iterator_tag@0@@Z 0000000180025800 f i acl_stdafx.obj
 0001:00024900       ??$_Uninitialized_copy@PEAPEAVredis_slot@acl@@PEAPEAV12@U?$_Wrap_alloc@V?$allocator@PEAVredis_slot@acl@@@std@@@std@@@std@@YAPEAPEAVredis_slot@acl@@PEAPEAV12@00AEAU?$_Wrap_alloc@V?$allocator@PEAVredis_slot@acl@@@std@@@0@@Z 0000000180025900 f i acl_stdafx.obj
 0001:000249b0       ??$_Uninitialized_copy@PEAVredis_role4slave@acl@@PEAV12@U?$_Wrap_alloc@V?$allocator@Vredis_role4slave@acl@@@std@@@std@@@std@@YAPEAVredis_role4slave@acl@@PEAV12@00AEAU?$_Wrap_alloc@V?$allocator@Vredis_role4slave@acl@@@std@@@0@@Z 00000001800259b0 f i acl_stdafx.obj
 0001:00024a60       ??$_Uninitialized_copy@V?$_Vector_const_iterator@V?$_Vector_val@U?$_Simple_types@Vredis_role4slave@acl@@@std@@@std@@@std@@PEAVredis_role4slave@acl@@U?$_Wrap_alloc@V?$allocator@Vredis_role4slave@acl@@@std@@@2@@std@@YAPEAVredis_role4slave@acl@@V?$_Vector_const_iterator@V?$_Vector_val@U?$_Simple_types@Vredis_role4slave@acl@@@std@@@std@@@0@0PEAV12@AEAU?$_Wrap_alloc@V?$allocator@Vredis_role4slave@acl@@@std@@@0@@Z 0000000180025a60 f i acl_stdafx.obj
 0001:00024bc0       ??$_Uninitialized_move@PEAVredis_role4slave@acl@@PEAV12@U?$_Wrap_alloc@V?$allocator@Vredis_role4slave@acl@@@std@@@std@@@std@@YAPEAVredis_role4slave@acl@@PEAV12@00AEAU?$_Wrap_alloc@V?$allocator@Vredis_role4slave@acl@@@std@@@0@@Z 0000000180025bc0 f i acl_stdafx.obj
 0001:00024c70       ??$_Val_type@PEAVredis_role4slave@acl@@@std@@YAPEAVredis_role4slave@acl@@PEAV12@@Z 0000000180025c70 f i acl_stdafx.obj
 0001:00024c80       ??$addressof@$$CBVredis_role4slave@acl@@@std@@YAPEBVredis_role4slave@acl@@AEBV12@@Z 0000000180025c80 f i acl_stdafx.obj
 0001:00024c90       ??$addressof@D@std@@YAPEADAEAD@Z 0000000180025c90 f i acl_stdafx.obj
 0001:00024ca0       ??$addressof@PEAU?$_List_node@Ufield_t@gsoner@acl@@PEAX@std@@@std@@YAPEAPEAU?$_List_node@Ufield_t@gsoner@acl@@PEAX@0@AEAPEAU10@@Z 0000000180025ca0 f i acl_stdafx.obj
 0001:00024cb0       ??$addressof@PEAU?$_List_node@Uparent_obj_t@gsoner@acl@@PEAX@std@@@std@@YAPEAPEAU?$_List_node@Uparent_obj_t@gsoner@acl@@PEAX@0@AEAPEAU10@@Z 0000000180025cb0 f i acl_stdafx.obj
 0001:00024cc0       ??$addressof@PEAU?$_List_node@V?$basic_string@DU?$char_traits@D@std@@V?$allocator@D@2@@std@@PEAX@std@@@std@@YAPEAPEAU?$_List_node@V?$basic_string@DU?$char_traits@D@std@@V?$allocator@D@2@@std@@PEAX@0@AEAPEAU10@@Z 0000000180025cc0 f i acl_stdafx.obj
 0001:00024cd0       ??$addressof@PEAU?$_List_node@Vstring@acl@@PEAX@std@@@std@@YAPEAPEAU?$_List_node@Vstring@acl@@PEAX@0@AEAPEAU10@@Z 0000000180025cd0 f i acl_stdafx.obj
 0001:00024ce0       ??$addressof@PEAU?$_Tree_node@U?$pair@$$CBV?$basic_string@DU?$char_traits@D@std@@V?$allocator@D@2@@std@@Uobject_t@gsoner@acl@@@std@@PEAX@std@@@std@@YAPEAPEAU?$_Tree_node@U?$pair@$$CBV?$basic_string@DU?$char_traits@D@std@@V?$allocator@D@2@@std@@Uobject_t@gsoner@acl@@@std@@PEAX@0@AEAPEAU10@@Z 0000000180025ce0 f i acl_stdafx.obj
 0001:00024cf0       ??$addressof@U?$pair@$$CBV?$basic_string@DU?$char_traits@D@std@@V?$allocator@D@2@@std@@Uobject_t@gsoner@acl@@@std@@@std@@YAPEAU?$pair@$$CBV?$basic_string@DU?$char_traits@D@std@@V?$allocator@D@2@@std@@Uobject_t@gsoner@acl@@@0@AEAU10@@Z 0000000180025cf0 f i acl_stdafx.obj
 0001:00024d00       ??$addressof@Ufield_t@gsoner@acl@@@std@@YAPEAUfield_t@gsoner@acl@@AEAU123@@Z 0000000180025d00 f i acl_stdafx.obj
 0001:00024d10       ??$addressof@Uparent_obj_t@gsoner@acl@@@std@@YAPEAUparent_obj_t@gsoner@acl@@AEAU123@@Z 0000000180025d10 f i acl_stdafx.obj
 0001:00024d20       ??$addressof@V?$basic_string@DU?$char_traits@D@std@@V?$allocator@D@2@@std@@@std@@YAPEAV?$basic_string@DU?$char_traits@D@std@@V?$allocator@D@2@@0@AEAV10@@Z 0000000180025d20 f i acl_stdafx.obj
 0001:00024d30       ??$addressof@Vstring@acl@@@std@@YAPEAVstring@acl@@AEAV12@@Z 0000000180025d30 f i acl_stdafx.obj
 0001:00024d40       ??$assign@V?$_List_const_iterator@V?$_List_val@U?$_List_simple_types@Ufield_t@gsoner@acl@@@std@@@std@@@std@@@?$list@Ufield_t@gsoner@acl@@V?$allocator@Ufield_t@gsoner@acl@@@std@@@std@@QEAAXV?$_List_const_iterator@V?$_List_val@U?$_List_simple_types@Ufield_t@gsoner@acl@@@std@@@std@@@1@0@Z 0000000180025d40 f i acl_stdafx.obj
 0001:00025170       ??$assign@V?$_List_const_iterator@V?$_List_val@U?$_List_simple_types@Uparent_obj_t@gsoner@acl@@@std@@@std@@@std@@@?$list@Uparent_obj_t@gsoner@acl@@V?$allocator@Uparent_obj_t@gsoner@acl@@@std@@@std@@QEAAXV?$_List_const_iterator@V?$_List_val@U?$_List_simple_types@Uparent_obj_t@gsoner@acl@@@std@@@std@@@1@0@Z 0000000180026170 f i acl_stdafx.obj
 0001:000255a0       ??$assign@V?$_List_const_iterator@V?$_List_val@U?$_List_simple_types@V?$basic_string@DU?$char_traits@D@std@@V?$allocator@D@2@@std@@@std@@@std@@@std@@@?$list@V?$basic_string@DU?$char_traits@D@std@@V?$allocator@D@2@@std@@V?$allocator@V?$basic_string@DU?$char_traits@D@std@@V?$allocator@D@2@@std@@@2@@std@@QEAAXV?$_List_const_iterator@V?$_List_val@U?$_List_simple_types@V?$basic_string@DU?$char_traits@D@std@@V?$allocator@D@2@@std@@@std@@@std@@@1@0@Z 00000001800265a0 f i acl_stdafx.obj
 0001:000259d0       ??$assign@V?$_List_const_iterator@V?$_List_val@U?$_List_simple_types@Vstring@acl@@@std@@@std@@@std@@@?$list@Vstring@acl@@V?$allocator@Vstring@acl@@@std@@@std@@QEAAXV?$_List_const_iterator@V?$_List_val@U?$_List_simple_types@Vstring@acl@@@std@@@std@@@1@0@Z 00000001800269d0 f i acl_stdafx.obj
 0001:00025e00       ??$construct@PEADAEAPEAD@?$_Wrap_alloc@V?$allocator@D@std@@@std@@QEAAXPEAPEADAEAPEAD@Z 0000000180026e00 f i acl_stdafx.obj
 0001:00025e60       ??$construct@PEADAEAPEAD@?$allocator@D@std@@QEAAXPEAPEADAEAPEAD@Z 0000000180026e60 f i acl_stdafx.obj
 0001:00025f10       ??$construct@PEADAEAPEAD@?$allocator_traits@V?$allocator@D@std@@@std@@SAXAEAV?$allocator@D@1@PEAPEADAEAPEAD@Z 0000000180026f10 f i acl_stdafx.obj
 0001:00025f70       ??$construct@PEAU?$_List_node@Ufield_t@gsoner@acl@@PEAX@std@@AEAPEAU12@@?$_Wrap_alloc@V?$allocator@U?$_List_node@Ufield_t@gsoner@acl@@PEAX@std@@@std@@@std@@QEAAXPEAPEAU?$_List_node@Ufield_t@gsoner@acl@@PEAX@1@AEAPEAU21@@Z 0000000180026f70 f i acl_stdafx.obj
 0001:00025fd0       ??$construct@PEAU?$_List_node@Ufield_t@gsoner@acl@@PEAX@std@@AEAPEAU12@@?$allocator@U?$_List_node@Ufield_t@gsoner@acl@@PEAX@std@@@std@@QEAAXPEAPEAU?$_List_node@Ufield_t@gsoner@acl@@PEAX@1@AEAPEAU21@@Z 0000000180026fd0 f i acl_stdafx.obj
 0001:00026080       ??$construct@PEAU?$_List_node@Ufield_t@gsoner@acl@@PEAX@std@@AEAPEAU12@@?$allocator_traits@V?$allocator@U?$_List_node@Ufield_t@gsoner@acl@@PEAX@std@@@std@@@std@@SAXAEAV?$allocator@U?$_List_node@Ufield_t@gsoner@acl@@PEAX@std@@@1@PEAPEAU?$_List_node@Ufield_t@gsoner@acl@@PEAX@1@AEAPEAU31@@Z 0000000180027080 f i acl_stdafx.obj
 0001:000260e0       ??$construct@PEAU?$_List_node@Uparent_obj_t@gsoner@acl@@PEAX@std@@AEAPEAU12@@?$_Wrap_alloc@V?$allocator@U?$_List_node@Uparent_obj_t@gsoner@acl@@PEAX@std@@@std@@@std@@QEAAXPEAPEAU?$_List_node@Uparent_obj_t@gsoner@acl@@PEAX@1@AEAPEAU21@@Z 00000001800270e0 f i acl_stdafx.obj
 0001:00026140       ??$construct@PEAU?$_List_node@Uparent_obj_t@gsoner@acl@@PEAX@std@@AEAPEAU12@@?$allocator@U?$_List_node@Uparent_obj_t@gsoner@acl@@PEAX@std@@@std@@QEAAXPEAPEAU?$_List_node@Uparent_obj_t@gsoner@acl@@PEAX@1@AEAPEAU21@@Z 0000000180027140 f i acl_stdafx.obj
 0001:000261f0       ??$construct@PEAU?$_List_node@Uparent_obj_t@gsoner@acl@@PEAX@std@@AEAPEAU12@@?$allocator_traits@V?$allocator@U?$_List_node@Uparent_obj_t@gsoner@acl@@PEAX@std@@@std@@@std@@SAXAEAV?$allocator@U?$_List_node@Uparent_obj_t@gsoner@acl@@PEAX@std@@@1@PEAPEAU?$_List_node@Uparent_obj_t@gsoner@acl@@PEAX@1@AEAPEAU31@@Z 00000001800271f0 f i acl_stdafx.obj
 0001:00026250       ??$construct@PEAU?$_List_node@V?$basic_string@DU?$char_traits@D@std@@V?$allocator@D@2@@std@@PEAX@std@@AEAPEAU12@@?$_Wrap_alloc@V?$allocator@U?$_List_node@V?$basic_string@DU?$char_traits@D@std@@V?$allocator@D@2@@std@@PEAX@std@@@std@@@std@@QEAAXPEAPEAU?$_List_node@V?$basic_string@DU?$char_traits@D@std@@V?$allocator@D@2@@std@@PEAX@1@AEAPEAU21@@Z 0000000180027250 f i acl_stdafx.obj
 0001:000262b0       ??$construct@PEAU?$_List_node@V?$basic_string@DU?$char_traits@D@std@@V?$allocator@D@2@@std@@PEAX@std@@AEAPEAU12@@?$allocator@U?$_List_node@V?$basic_string@DU?$char_traits@D@std@@V?$allocator@D@2@@std@@PEAX@std@@@std@@QEAAXPEAPEAU?$_List_node@V?$basic_string@DU?$char_traits@D@std@@V?$allocator@D@2@@std@@PEAX@1@AEAPEAU21@@Z 00000001800272b0 f i acl_stdafx.obj
 0001:00026360       ??$construct@PEAU?$_List_node@V?$basic_string@DU?$char_traits@D@std@@V?$allocator@D@2@@std@@PEAX@std@@AEAPEAU12@@?$allocator_traits@V?$allocator@U?$_List_node@V?$basic_string@DU?$char_traits@D@std@@V?$allocator@D@2@@std@@PEAX@std@@@std@@@std@@SAXAEAV?$allocator@U?$_List_node@V?$basic_string@DU?$char_traits@D@std@@V?$allocator@D@2@@std@@PEAX@std@@@1@PEAPEAU?$_List_node@V?$basic_string@DU?$char_traits@D@std@@V?$allocator@D@2@@std@@PEAX@1@AEAPEAU31@@Z 0000000180027360 f i acl_stdafx.obj
 0001:000263c0       ??$construct@PEAU?$_List_node@Vstring@acl@@PEAX@std@@AEAPEAU12@@?$_Wrap_alloc@V?$allocator@U?$_List_node@Vstring@acl@@PEAX@std@@@std@@@std@@QEAAXPEAPEAU?$_List_node@Vstring@acl@@PEAX@1@AEAPEAU21@@Z 00000001800273c0 f i acl_stdafx.obj
 0001:00026420       ??$construct@PEAU?$_List_node@Vstring@acl@@PEAX@std@@AEAPEAU12@@?$allocator@U?$_List_node@Vstring@acl@@PEAX@std@@@std@@QEAAXPEAPEAU?$_List_node@Vstring@acl@@PEAX@1@AEAPEAU21@@Z 0000000180027420 f i acl_stdafx.obj
 0001:000264d0       ??$construct@PEAU?$_List_node@Vstring@acl@@PEAX@std@@AEAPEAU12@@?$allocator_traits@V?$allocator@U?$_List_node@Vstring@acl@@PEAX@std@@@std@@@std@@SAXAEAV?$allocator@U?$_List_node@Vstring@acl@@PEAX@std@@@1@PEAPEAU?$_List_node@Vstring@acl@@PEAX@1@AEAPEAU31@@Z 00000001800274d0 f i acl_stdafx.obj
 0001:00026530       ??$construct@PEAU?$_Tree_node@U?$pair@$$CBV?$basic_string@DU?$char_traits@D@std@@V?$allocator@D@2@@std@@Uobject_t@gsoner@acl@@@std@@PEAX@std@@AEAPEAU12@@?$_Wrap_alloc@V?$allocator@U?$_Tree_node@U?$pair@$$CBV?$basic_string@DU?$char_traits@D@std@@V?$allocator@D@2@@std@@Uobject_t@gsoner@acl@@@std@@PEAX@std@@@std@@@std@@QEAAXPEAPEAU?$_Tree_node@U?$pair@$$CBV?$basic_string@DU?$char_traits@D@std@@V?$allocator@D@2@@std@@Uobject_t@gsoner@acl@@@std@@PEAX@1@AEAPEAU21@@Z 0000000180027530 f i acl_stdafx.obj
 0001:00026590       ??$construct@PEAU?$_Tree_node@U?$pair@$$CBV?$basic_string@DU?$char_traits@D@std@@V?$allocator@D@2@@std@@Uobject_t@gsoner@acl@@@std@@PEAX@std@@AEAPEAU12@@?$allocator@U?$_Tree_node@U?$pair@$$CBV?$basic_string@DU?$char_traits@D@std@@V?$allocator@D@2@@std@@Uobject_t@gsoner@acl@@@std@@PEAX@std@@@std@@QEAAXPEAPEAU?$_Tree_node@U?$pair@$$CBV?$basic_string@DU?$char_traits@D@std@@V?$allocator@D@2@@std@@Uobject_t@gsoner@acl@@@std@@PEAX@1@AEAPEAU21@@Z 0000000180027590 f i acl_stdafx.obj
 0001:00026640       ??$construct@PEAU?$_Tree_node@U?$pair@$$CBV?$basic_string@DU?$char_traits@D@std@@V?$allocator@D@2@@std@@Uobject_t@gsoner@acl@@@std@@PEAX@std@@AEAPEAU12@@?$allocator_traits@V?$allocator@U?$_Tree_node@U?$pair@$$CBV?$basic_string@DU?$char_traits@D@std@@V?$allocator@D@2@@std@@Uobject_t@gsoner@acl@@@std@@PEAX@std@@@std@@@std@@SAXAEAV?$allocator@U?$_Tree_node@U?$pair@$$CBV?$basic_string@DU?$char_traits@D@std@@V?$allocator@D@2@@std@@Uobject_t@gsoner@acl@@@std@@PEAX@std@@@1@PEAPEAU?$_Tree_node@U?$pair@$$CBV?$basic_string@DU?$char_traits@D@std@@V?$allocator@D@2@@std@@Uobject_t@gsoner@acl@@@std@@PEAX@1@AEAPEAU31@@Z 0000000180027640 f i acl_stdafx.obj
 0001:000266a0       ??$construct@U?$pair@$$CBV?$basic_string@DU?$char_traits@D@std@@V?$allocator@D@2@@std@@Uobject_t@gsoner@acl@@@std@@AEAU12@@?$_Wrap_alloc@V?$allocator@U?$_Tree_node@U?$pair@$$CBV?$basic_string@DU?$char_traits@D@std@@V?$allocator@D@2@@std@@Uobject_t@gsoner@acl@@@std@@PEAX@std@@@std@@@std@@QEAAXPEAU?$pair@$$CBV?$basic_string@DU?$char_traits@D@std@@V?$allocator@D@2@@std@@Uobject_t@gsoner@acl@@@1@AEAU21@@Z 00000001800276a0 f i acl_stdafx.obj
 0001:00026700       ??$construct@U?$pair@$$CBV?$basic_string@DU?$char_traits@D@std@@V?$allocator@D@2@@std@@Uobject_t@gsoner@acl@@@std@@AEAU12@@?$allocator@U?$_Tree_node@U?$pair@$$CBV?$basic_string@DU?$char_traits@D@std@@V?$allocator@D@2@@std@@Uobject_t@gsoner@acl@@@std@@PEAX@std@@@std@@QEAAXPEAU?$pair@$$CBV?$basic_string@DU?$char_traits@D@std@@V?$allocator@D@2@@std@@Uobject_t@gsoner@acl@@@1@AEAU21@@Z 0000000180027700 f i acl_stdafx.obj
 0001:000267b0       ??$construct@U?$pair@$$CBV?$basic_string@DU?$char_traits@D@std@@V?$allocator@D@2@@std@@Uobject_t@gsoner@acl@@@std@@AEAU12@@?$allocator_traits@V?$allocator@U?$_Tree_node@U?$pair@$$CBV?$basic_string@DU?$char_traits@D@std@@V?$allocator@D@2@@std@@Uobject_t@gsoner@acl@@@std@@PEAX@std@@@std@@@std@@SAXAEAV?$allocator@U?$_Tree_node@U?$pair@$$CBV?$basic_string@DU?$char_traits@D@std@@V?$allocator@D@2@@std@@Uobject_t@gsoner@acl@@@std@@PEAX@std@@@1@PEAU?$pair@$$CBV?$basic_string@DU?$char_traits@D@std@@V?$allocator@D@2@@std@@Uobject_t@gsoner@acl@@@1@AEAU31@@Z 00000001800277b0 f i acl_stdafx.obj
 0001:00026810       ??$construct@U_Container_proxy@std@@U12@@?$_Wrap_alloc@V?$allocator@U_Container_proxy@std@@@std@@@std@@QEAAXPEAU_Container_proxy@1@$$QEAU21@@Z 0000000180027810 f i acl_stdafx.obj
 0001:00026870       ??$construct@U_Container_proxy@std@@U12@@?$allocator@U_Container_proxy@std@@@std@@QEAAXPEAU_Container_proxy@1@$$QEAU21@@Z 0000000180027870 f i acl_stdafx.obj
 0001:00026920       ??$construct@U_Container_proxy@std@@U12@@?$allocator_traits@V?$allocator@U_Container_proxy@std@@@std@@@std@@SAXAEAV?$allocator@U_Container_proxy@std@@@1@PEAU_Container_proxy@1@$$QEAU31@@Z 0000000180027920 f i acl_stdafx.obj
 0001:00026980       ??$construct@Ufield_t@gsoner@acl@@AEBU123@@?$_Wrap_alloc@V?$allocator@U?$_List_node@Ufield_t@gsoner@acl@@PEAX@std@@@std@@@std@@QEAAXPEAUfield_t@gsoner@acl@@AEBU234@@Z 0000000180027980 f i acl_stdafx.obj
 0001:000269e0       ??$construct@Ufield_t@gsoner@acl@@AEBU123@@?$allocator@U?$_List_node@Ufield_t@gsoner@acl@@PEAX@std@@@std@@QEAAXPEAUfield_t@gsoner@acl@@AEBU234@@Z 00000001800279e0 f i acl_stdafx.obj
 0001:00026a90       ??$construct@Ufield_t@gsoner@acl@@AEBU123@@?$allocator_traits@V?$allocator@U?$_List_node@Ufield_t@gsoner@acl@@PEAX@std@@@std@@@std@@SAXAEAV?$allocator@U?$_List_node@Ufield_t@gsoner@acl@@PEAX@std@@@1@PEAUfield_t@gsoner@acl@@AEBU345@@Z 0000000180027a90 f i acl_stdafx.obj
 0001:00026af0       ??$construct@Uparent_obj_t@gsoner@acl@@AEBU123@@?$_Wrap_alloc@V?$allocator@U?$_List_node@Uparent_obj_t@gsoner@acl@@PEAX@std@@@std@@@std@@QEAAXPEAUparent_obj_t@gsoner@acl@@AEBU234@@Z 0000000180027af0 f i acl_stdafx.obj
 0001:00026b50       ??$construct@Uparent_obj_t@gsoner@acl@@AEBU123@@?$allocator@U?$_List_node@Uparent_obj_t@gsoner@acl@@PEAX@std@@@std@@QEAAXPEAUparent_obj_t@gsoner@acl@@AEBU234@@Z 0000000180027b50 f i acl_stdafx.obj
 0001:00026c00       ??$construct@Uparent_obj_t@gsoner@acl@@AEBU123@@?$allocator_traits@V?$allocator@U?$_List_node@Uparent_obj_t@gsoner@acl@@PEAX@std@@@std@@@std@@SAXAEAV?$allocator@U?$_List_node@Uparent_obj_t@gsoner@acl@@PEAX@std@@@1@PEAUparent_obj_t@gsoner@acl@@AEBU345@@Z 0000000180027c00 f i acl_stdafx.obj
 0001:00026c60       ??$construct@V?$basic_string@DU?$char_traits@D@std@@V?$allocator@D@2@@std@@AEBV12@@?$_Wrap_alloc@V?$allocator@U?$_List_node@V?$basic_string@DU?$char_traits@D@std@@V?$allocator@D@2@@std@@PEAX@std@@@std@@@std@@QEAAXPEAV?$basic_string@DU?$char_traits@D@std@@V?$allocator@D@2@@1@AEBV21@@Z 0000000180027c60 f i acl_stdafx.obj
 0001:00026cc0       ??$construct@V?$basic_string@DU?$char_traits@D@std@@V?$allocator@D@2@@std@@AEBV12@@?$allocator@U?$_List_node@V?$basic_string@DU?$char_traits@D@std@@V?$allocator@D@2@@std@@PEAX@std@@@std@@QEAAXPEAV?$basic_string@DU?$char_traits@D@std@@V?$allocator@D@2@@1@AEBV21@@Z 0000000180027cc0 f i acl_stdafx.obj
 0001:00026d70       ??$construct@V?$basic_string@DU?$char_traits@D@std@@V?$allocator@D@2@@std@@AEBV12@@?$allocator_traits@V?$allocator@U?$_List_node@V?$basic_string@DU?$char_traits@D@std@@V?$allocator@D@2@@std@@PEAX@std@@@std@@@std@@SAXAEAV?$allocator@U?$_List_node@V?$basic_string@DU?$char_traits@D@std@@V?$allocator@D@2@@std@@PEAX@std@@@1@PEAV?$basic_string@DU?$char_traits@D@std@@V?$allocator@D@2@@1@AEBV31@@Z 0000000180027d70 f i acl_stdafx.obj
 0001:00026dd0       ??$construct@Vredis_role4slave@acl@@AEAV12@@?$_Wrap_alloc@V?$allocator@Vredis_role4slave@acl@@@std@@@std@@QEAAXPEAVredis_role4slave@acl@@AEAV23@@Z 0000000180027dd0 f i acl_stdafx.obj
 0001:00026e30       ??$construct@Vredis_role4slave@acl@@AEAV12@@?$allocator@Vredis_role4slave@acl@@@std@@QEAAXPEAVredis_role4slave@acl@@AEAV23@@Z 0000000180027e30 f i acl_stdafx.obj
 0001:00026ee0       ??$construct@Vredis_role4slave@acl@@AEAV12@@?$allocator_traits@V?$allocator@Vredis_role4slave@acl@@@std@@@std@@SAXAEAV?$allocator@Vredis_role4slave@acl@@@1@PEAVredis_role4slave@acl@@AEAV34@@Z 0000000180027ee0 f i acl_stdafx.obj
 0001:00026f40       ??$construct@Vredis_role4slave@acl@@AEBV12@@?$_Wrap_alloc@V?$allocator@Vredis_role4slave@acl@@@std@@@std@@QEAAXPEAVredis_role4slave@acl@@AEBV23@@Z 0000000180027f40 f i acl_stdafx.obj
 0001:00026fa0       ??$construct@Vredis_role4slave@acl@@AEBV12@@?$allocator_traits@V?$allocator@Vredis_role4slave@acl@@@std@@@std@@SAXAEAV?$allocator@Vredis_role4slave@acl@@@1@PEAVredis_role4slave@acl@@AEBV34@@Z 0000000180027fa0 f i acl_stdafx.obj
 0001:00027000       ??$construct@Vredis_role4slave@acl@@V12@@?$_Wrap_alloc@V?$allocator@Vredis_role4slave@acl@@@std@@@std@@QEAAXPEAVredis_role4slave@acl@@$$QEAV23@@Z 0000000180028000 f i acl_stdafx.obj
 0001:00027060       ??$construct@Vredis_role4slave@acl@@V12@@?$allocator@Vredis_role4slave@acl@@@std@@QEAAXPEAVredis_role4slave@acl@@$$QEAV23@@Z 0000000180028060 f i acl_stdafx.obj
 0001:00027110       ??$construct@Vredis_role4slave@acl@@V12@@?$allocator_traits@V?$allocator@Vredis_role4slave@acl@@@std@@@std@@SAXAEAV?$allocator@Vredis_role4slave@acl@@@1@PEAVredis_role4slave@acl@@$$QEAV34@@Z 0000000180028110 f i acl_stdafx.obj
 0001:00027170       ??$construct@Vstring@acl@@AEBV12@@?$_Wrap_alloc@V?$allocator@U?$_List_node@Vstring@acl@@PEAX@std@@@std@@@std@@QEAAXPEAVstring@acl@@AEBV23@@Z 0000000180028170 f i acl_stdafx.obj
 0001:000271d0       ??$construct@Vstring@acl@@AEBV12@@?$allocator@U?$_List_node@Vstring@acl@@PEAX@std@@@std@@QEAAXPEAVstring@acl@@AEBV23@@Z 00000001800281d0 f i acl_stdafx.obj
 0001:00027280       ??$construct@Vstring@acl@@AEBV12@@?$allocator_traits@V?$allocator@U?$_List_node@Vstring@acl@@PEAX@std@@@std@@@std@@SAXAEAV?$allocator@U?$_List_node@Vstring@acl@@PEAX@std@@@1@PEAVstring@acl@@AEBV34@@Z 0000000180028280 f i acl_stdafx.obj
 0001:000272e0       ??$destroy@PEAD@?$_Wrap_alloc@V?$allocator@D@std@@@std@@QEAAXPEAPEAD@Z 00000001800282e0 f i acl_stdafx.obj
 0001:00027330       ??$destroy@PEAD@?$allocator@D@std@@QEAAXPEAPEAD@Z 0000000180028330 f i acl_stdafx.obj
 0001:00027340       ??$destroy@PEAD@?$allocator_traits@V?$allocator@D@std@@@std@@SAXAEAV?$allocator@D@1@PEAPEAD@Z 0000000180028340 f i acl_stdafx.obj
 0001:00027390       ??$destroy@PEAU?$_List_node@Ufield_t@gsoner@acl@@PEAX@std@@@?$_Wrap_alloc@V?$allocator@U?$_List_node@Ufield_t@gsoner@acl@@PEAX@std@@@std@@@std@@QEAAXPEAPEAU?$_List_node@Ufield_t@gsoner@acl@@PEAX@1@@Z 0000000180028390 f i acl_stdafx.obj
 0001:000273e0       ??$destroy@PEAU?$_List_node@Ufield_t@gsoner@acl@@PEAX@std@@@?$allocator@U?$_List_node@Ufield_t@gsoner@acl@@PEAX@std@@@std@@QEAAXPEAPEAU?$_List_node@Ufield_t@gsoner@acl@@PEAX@1@@Z 00000001800283e0 f i acl_stdafx.obj
 0001:000273f0       ??$destroy@PEAU?$_List_node@Ufield_t@gsoner@acl@@PEAX@std@@@?$allocator_traits@V?$allocator@U?$_List_node@Ufield_t@gsoner@acl@@PEAX@std@@@std@@@std@@SAXAEAV?$allocator@U?$_List_node@Ufield_t@gsoner@acl@@PEAX@std@@@1@PEAPEAU?$_List_node@Ufield_t@gsoner@acl@@PEAX@1@@Z 00000001800283f0 f i acl_stdafx.obj
 0001:00027440       ??$destroy@PEAU?$_List_node@Uparent_obj_t@gsoner@acl@@PEAX@std@@@?$_Wrap_alloc@V?$allocator@U?$_List_node@Uparent_obj_t@gsoner@acl@@PEAX@std@@@std@@@std@@QEAAXPEAPEAU?$_List_node@Uparent_obj_t@gsoner@acl@@PEAX@1@@Z 0000000180028440 f i acl_stdafx.obj
 0001:00027490       ??$destroy@PEAU?$_List_node@Uparent_obj_t@gsoner@acl@@PEAX@std@@@?$allocator@U?$_List_node@Uparent_obj_t@gsoner@acl@@PEAX@std@@@std@@QEAAXPEAPEAU?$_List_node@Uparent_obj_t@gsoner@acl@@PEAX@1@@Z 0000000180028490 f i acl_stdafx.obj
 0001:000274a0       ??$destroy@PEAU?$_List_node@Uparent_obj_t@gsoner@acl@@PEAX@std@@@?$allocator_traits@V?$allocator@U?$_List_node@Uparent_obj_t@gsoner@acl@@PEAX@std@@@std@@@std@@SAXAEAV?$allocator@U?$_List_node@Uparent_obj_t@gsoner@acl@@PEAX@std@@@1@PEAPEAU?$_List_node@Uparent_obj_t@gsoner@acl@@PEAX@1@@Z 00000001800284a0 f i acl_stdafx.obj
 0001:000274f0       ??$destroy@PEAU?$_List_node@V?$basic_string@DU?$char_traits@D@std@@V?$allocator@D@2@@std@@PEAX@std@@@?$_Wrap_alloc@V?$allocator@U?$_List_node@V?$basic_string@DU?$char_traits@D@std@@V?$allocator@D@2@@std@@PEAX@std@@@std@@@std@@QEAAXPEAPEAU?$_List_node@V?$basic_string@DU?$char_traits@D@std@@V?$allocator@D@2@@std@@PEAX@1@@Z 00000001800284f0 f i acl_stdafx.obj
 0001:00027540       ??$destroy@PEAU?$_List_node@V?$basic_string@DU?$char_traits@D@std@@V?$allocator@D@2@@std@@PEAX@std@@@?$allocator@U?$_List_node@V?$basic_string@DU?$char_traits@D@std@@V?$allocator@D@2@@std@@PEAX@std@@@std@@QEAAXPEAPEAU?$_List_node@V?$basic_string@DU?$char_traits@D@std@@V?$allocator@D@2@@std@@PEAX@1@@Z 0000000180028540 f i acl_stdafx.obj
 0001:00027550       ??$destroy@PEAU?$_List_node@V?$basic_string@DU?$char_traits@D@std@@V?$allocator@D@2@@std@@PEAX@std@@@?$allocator_traits@V?$allocator@U?$_List_node@V?$basic_string@DU?$char_traits@D@std@@V?$allocator@D@2@@std@@PEAX@std@@@std@@@std@@SAXAEAV?$allocator@U?$_List_node@V?$basic_string@DU?$char_traits@D@std@@V?$allocator@D@2@@std@@PEAX@std@@@1@PEAPEAU?$_List_node@V?$basic_string@DU?$char_traits@D@std@@V?$allocator@D@2@@std@@PEAX@1@@Z 0000000180028550 f i acl_stdafx.obj
 0001:000275a0       ??$destroy@PEAU?$_List_node@Vstring@acl@@PEAX@std@@@?$_Wrap_alloc@V?$allocator@U?$_List_node@Vstring@acl@@PEAX@std@@@std@@@std@@QEAAXPEAPEAU?$_List_node@Vstring@acl@@PEAX@1@@Z 00000001800285a0 f i acl_stdafx.obj
 0001:000275f0       ??$destroy@PEAU?$_List_node@Vstring@acl@@PEAX@std@@@?$allocator@U?$_List_node@Vstring@acl@@PEAX@std@@@std@@QEAAXPEAPEAU?$_List_node@Vstring@acl@@PEAX@1@@Z 00000001800285f0 f i acl_stdafx.obj
 0001:00027600       ??$destroy@PEAU?$_List_node@Vstring@acl@@PEAX@std@@@?$allocator_traits@V?$allocator@U?$_List_node@Vstring@acl@@PEAX@std@@@std@@@std@@SAXAEAV?$allocator@U?$_List_node@Vstring@acl@@PEAX@std@@@1@PEAPEAU?$_List_node@Vstring@acl@@PEAX@1@@Z 0000000180028600 f i acl_stdafx.obj
 0001:00027650       ??$destroy@PEAU?$_Tree_node@U?$pair@$$CBV?$basic_string@DU?$char_traits@D@std@@V?$allocator@D@2@@std@@Uobject_t@gsoner@acl@@@std@@PEAX@std@@@?$_Wrap_alloc@V?$allocator@U?$_Tree_node@U?$pair@$$CBV?$basic_string@DU?$char_traits@D@std@@V?$allocator@D@2@@std@@Uobject_t@gsoner@acl@@@std@@PEAX@std@@@std@@@std@@QEAAXPEAPEAU?$_Tree_node@U?$pair@$$CBV?$basic_string@DU?$char_traits@D@std@@V?$allocator@D@2@@std@@Uobject_t@gsoner@acl@@@std@@PEAX@1@@Z 0000000180028650 f i acl_stdafx.obj
 0001:000276a0       ??$destroy@PEAU?$_Tree_node@U?$pair@$$CBV?$basic_string@DU?$char_traits@D@std@@V?$allocator@D@2@@std@@Uobject_t@gsoner@acl@@@std@@PEAX@std@@@?$allocator@U?$_Tree_node@U?$pair@$$CBV?$basic_string@DU?$char_traits@D@std@@V?$allocator@D@2@@std@@Uobject_t@gsoner@acl@@@std@@PEAX@std@@@std@@QEAAXPEAPEAU?$_Tree_node@U?$pair@$$CBV?$basic_string@DU?$char_traits@D@std@@V?$allocator@D@2@@std@@Uobject_t@gsoner@acl@@@std@@PEAX@1@@Z 00000001800286a0 f i acl_stdafx.obj
 0001:000276b0       ??$destroy@PEAU?$_Tree_node@U?$pair@$$CBV?$basic_string@DU?$char_traits@D@std@@V?$allocator@D@2@@std@@Uobject_t@gsoner@acl@@@std@@PEAX@std@@@?$allocator_traits@V?$allocator@U?$_Tree_node@U?$pair@$$CBV?$basic_string@DU?$char_traits@D@std@@V?$allocator@D@2@@std@@Uobject_t@gsoner@acl@@@std@@PEAX@std@@@std@@@std@@SAXAEAV?$allocator@U?$_Tree_node@U?$pair@$$CBV?$basic_string@DU?$char_traits@D@std@@V?$allocator@D@2@@std@@Uobject_t@gsoner@acl@@@std@@PEAX@std@@@1@PEAPEAU?$_Tree_node@U?$pair@$$CBV?$basic_string@DU?$char_traits@D@std@@V?$allocator@D@2@@std@@Uobject_t@gsoner@acl@@@std@@PEAX@1@@Z 00000001800286b0 f i acl_stdafx.obj
 0001:00027700       ??$destroy@U?$pair@$$CBV?$basic_string@DU?$char_traits@D@std@@V?$allocator@D@2@@std@@Uobject_t@gsoner@acl@@@std@@@?$_Wrap_alloc@V?$allocator@U?$_Tree_node@U?$pair@$$CBV?$basic_string@DU?$char_traits@D@std@@V?$allocator@D@2@@std@@Uobject_t@gsoner@acl@@@std@@PEAX@std@@@std@@@std@@QEAAXPEAU?$pair@$$CBV?$basic_string@DU?$char_traits@D@std@@V?$allocator@D@2@@std@@Uobject_t@gsoner@acl@@@1@@Z 0000000180028700 f i acl_stdafx.obj
 0001:00027750       ??$destroy@U?$pair@$$CBV?$basic_string@DU?$char_traits@D@std@@V?$allocator@D@2@@std@@Uobject_t@gsoner@acl@@@std@@@?$allocator@U?$_Tree_node@U?$pair@$$CBV?$basic_string@DU?$char_traits@D@std@@V?$allocator@D@2@@std@@Uobject_t@gsoner@acl@@@std@@PEAX@std@@@std@@QEAAXPEAU?$pair@$$CBV?$basic_string@DU?$char_traits@D@std@@V?$allocator@D@2@@std@@Uobject_t@gsoner@acl@@@1@@Z 0000000180028750 f i acl_stdafx.obj
 0001:000277a0       ??$destroy@U?$pair@$$CBV?$basic_string@DU?$char_traits@D@std@@V?$allocator@D@2@@std@@Uobject_t@gsoner@acl@@@std@@@?$allocator_traits@V?$allocator@U?$_Tree_node@U?$pair@$$CBV?$basic_string@DU?$char_traits@D@std@@V?$allocator@D@2@@std@@Uobject_t@gsoner@acl@@@std@@PEAX@std@@@std@@@std@@SAXAEAV?$allocator@U?$_Tree_node@U?$pair@$$CBV?$basic_string@DU?$char_traits@D@std@@V?$allocator@D@2@@std@@Uobject_t@gsoner@acl@@@std@@PEAX@std@@@1@PEAU?$pair@$$CBV?$basic_string@DU?$char_traits@D@std@@V?$allocator@D@2@@std@@Uobject_t@gsoner@acl@@@1@@Z 00000001800287a0 f i acl_stdafx.obj
 0001:000277f0       ??$destroy@U_Container_proxy@std@@@?$_Wrap_alloc@V?$allocator@U_Container_proxy@std@@@std@@@std@@QEAAXPEAU_Container_proxy@1@@Z 00000001800287f0 f i acl_stdafx.obj
 0001:00027840       ??$destroy@U_Container_proxy@std@@@?$allocator@U_Container_proxy@std@@@std@@QEAAXPEAU_Container_proxy@1@@Z 0000000180028840 f i acl_stdafx.obj
 0001:00027850       ??$destroy@U_Container_proxy@std@@@?$allocator_traits@V?$allocator@U_Container_proxy@std@@@std@@@std@@SAXAEAV?$allocator@U_Container_proxy@std@@@1@PEAU_Container_proxy@1@@Z 0000000180028850 f i acl_stdafx.obj
 0001:000278a0       ??$destroy@Ufield_t@gsoner@acl@@@?$_Wrap_alloc@V?$allocator@U?$_List_node@Ufield_t@gsoner@acl@@PEAX@std@@@std@@@std@@QEAAXPEAUfield_t@gsoner@acl@@@Z 00000001800288a0 f i acl_stdafx.obj
 0001:000278f0       ??$destroy@Ufield_t@gsoner@acl@@@?$allocator@U?$_List_node@Ufield_t@gsoner@acl@@PEAX@std@@@std@@QEAAXPEAUfield_t@gsoner@acl@@@Z 00000001800288f0 f i acl_stdafx.obj
 0001:00027940       ??$destroy@Ufield_t@gsoner@acl@@@?$allocator_traits@V?$allocator@U?$_List_node@Ufield_t@gsoner@acl@@PEAX@std@@@std@@@std@@SAXAEAV?$allocator@U?$_List_node@Ufield_t@gsoner@acl@@PEAX@std@@@1@PEAUfield_t@gsoner@acl@@@Z 0000000180028940 f i acl_stdafx.obj
 0001:00027990       ??$destroy@Uparent_obj_t@gsoner@acl@@@?$_Wrap_alloc@V?$allocator@U?$_List_node@Uparent_obj_t@gsoner@acl@@PEAX@std@@@std@@@std@@QEAAXPEAUparent_obj_t@gsoner@acl@@@Z 0000000180028990 f i acl_stdafx.obj
 0001:000279e0       ??$destroy@Uparent_obj_t@gsoner@acl@@@?$allocator@U?$_List_node@Uparent_obj_t@gsoner@acl@@PEAX@std@@@std@@QEAAXPEAUparent_obj_t@gsoner@acl@@@Z 00000001800289e0 f i acl_stdafx.obj
 0001:00027a30       ??$destroy@Uparent_obj_t@gsoner@acl@@@?$allocator_traits@V?$allocator@U?$_List_node@Uparent_obj_t@gsoner@acl@@PEAX@std@@@std@@@std@@SAXAEAV?$allocator@U?$_List_node@Uparent_obj_t@gsoner@acl@@PEAX@std@@@1@PEAUparent_obj_t@gsoner@acl@@@Z 0000000180028a30 f i acl_stdafx.obj
 0001:00027a80       ??$destroy@V?$basic_string@DU?$char_traits@D@std@@V?$allocator@D@2@@std@@@?$_Wrap_alloc@V?$allocator@U?$_List_node@V?$basic_string@DU?$char_traits@D@std@@V?$allocator@D@2@@std@@PEAX@std@@@std@@@std@@QEAAXPEAV?$basic_string@DU?$char_traits@D@std@@V?$allocator@D@2@@1@@Z 0000000180028a80 f i acl_stdafx.obj
 0001:00027ad0       ??$destroy@V?$basic_string@DU?$char_traits@D@std@@V?$allocator@D@2@@std@@@?$allocator@U?$_List_node@V?$basic_string@DU?$char_traits@D@std@@V?$allocator@D@2@@std@@PEAX@std@@@std@@QEAAXPEAV?$basic_string@DU?$char_traits@D@std@@V?$allocator@D@2@@1@@Z 0000000180028ad0 f i acl_stdafx.obj
 0001:00027b20       ??$destroy@V?$basic_string@DU?$char_traits@D@std@@V?$allocator@D@2@@std@@@?$allocator_traits@V?$allocator@U?$_List_node@V?$basic_string@DU?$char_traits@D@std@@V?$allocator@D@2@@std@@PEAX@std@@@std@@@std@@SAXAEAV?$allocator@U?$_List_node@V?$basic_string@DU?$char_traits@D@std@@V?$allocator@D@2@@std@@PEAX@std@@@1@PEAV?$basic_string@DU?$char_traits@D@std@@V?$allocator@D@2@@1@@Z 0000000180028b20 f i acl_stdafx.obj
 0001:00027b70       ??$destroy@Vredis_role4slave@acl@@@?$_Wrap_alloc@V?$allocator@Vredis_role4slave@acl@@@std@@@std@@QEAAXPEAVredis_role4slave@acl@@@Z 0000000180028b70 f i acl_stdafx.obj
 0001:00027bc0       ??$destroy@Vredis_role4slave@acl@@@?$allocator@Vredis_role4slave@acl@@@std@@QEAAXPEAVredis_role4slave@acl@@@Z 0000000180028bc0 f i acl_stdafx.obj
 0001:00027c10       ??$destroy@Vredis_role4slave@acl@@@?$allocator_traits@V?$allocator@Vredis_role4slave@acl@@@std@@@std@@SAXAEAV?$allocator@Vredis_role4slave@acl@@@1@PEAVredis_role4slave@acl@@@Z 0000000180028c10 f i acl_stdafx.obj
 0001:00027c60       ??$destroy@Vstring@acl@@@?$_Wrap_alloc@V?$allocator@U?$_List_node@Vstring@acl@@PEAX@std@@@std@@@std@@QEAAXPEAVstring@acl@@@Z 0000000180028c60 f i acl_stdafx.obj
 0001:00027cb0       ??$destroy@Vstring@acl@@@?$_Wrap_alloc@V?$allocator@Vstring@acl@@@std@@@std@@QEAAXPEAVstring@acl@@@Z 0000000180028cb0 f i acl_stdafx.obj
 0001:00027d00       ??$destroy@Vstring@acl@@@?$allocator@U?$_List_node@Vstring@acl@@PEAX@std@@@std@@QEAAXPEAVstring@acl@@@Z 0000000180028d00 f i acl_stdafx.obj
 0001:00027d50       ??$destroy@Vstring@acl@@@?$allocator@Vstring@acl@@@std@@QEAAXPEAVstring@acl@@@Z 0000000180028d50 f i acl_stdafx.obj
 0001:00027da0       ??$destroy@Vstring@acl@@@?$allocator_traits@V?$allocator@U?$_List_node@Vstring@acl@@PEAX@std@@@std@@@std@@SAXAEAV?$allocator@U?$_List_node@Vstring@acl@@PEAX@std@@@1@PEAVstring@acl@@@Z 0000000180028da0 f i acl_stdafx.obj
 0001:00027df0       ??$destroy@Vstring@acl@@@?$allocator_traits@V?$allocator@Vstring@acl@@@std@@@std@@SAXAEAV?$allocator@Vstring@acl@@@1@PEAVstring@acl@@@Z 0000000180028df0 f i acl_stdafx.obj
 0001:00027e40       ??$forward@AEAPEAD@std@@YAAEAPEADAEAPEAD@Z 0000000180028e40 f i acl_stdafx.obj
 0001:00027e50       ??$forward@AEAPEAU?$_List_node@Ufield_t@gsoner@acl@@PEAX@std@@@std@@YAAEAPEAU?$_List_node@Ufield_t@gsoner@acl@@PEAX@0@AEAPEAU10@@Z 0000000180028e50 f i acl_stdafx.obj
 0001:00027e60       ??$forward@AEAPEAU?$_List_node@Uparent_obj_t@gsoner@acl@@PEAX@std@@@std@@YAAEAPEAU?$_List_node@Uparent_obj_t@gsoner@acl@@PEAX@0@AEAPEAU10@@Z 0000000180028e60 f i acl_stdafx.obj
 0001:00027e70       ??$forward@AEAPEAU?$_List_node@V?$basic_string@DU?$char_traits@D@std@@V?$allocator@D@2@@std@@PEAX@std@@@std@@YAAEAPEAU?$_List_node@V?$basic_string@DU?$char_traits@D@std@@V?$allocator@D@2@@std@@PEAX@0@AEAPEAU10@@Z 0000000180028e70 f i acl_stdafx.obj
 0001:00027e80       ??$forward@AEAPEAU?$_List_node@Vstring@acl@@PEAX@std@@@std@@YAAEAPEAU?$_List_node@Vstring@acl@@PEAX@0@AEAPEAU10@@Z 0000000180028e80 f i acl_stdafx.obj
 0001:00027e90       ??$forward@AEAPEAU?$_Tree_node@U?$pair@$$CBV?$basic_string@DU?$char_traits@D@std@@V?$allocator@D@2@@std@@Uobject_t@gsoner@acl@@@std@@PEAX@std@@@std@@YAAEAPEAU?$_Tree_node@U?$pair@$$CBV?$basic_string@DU?$char_traits@D@std@@V?$allocator@D@2@@std@@Uobject_t@gsoner@acl@@@std@@PEAX@0@AEAPEAU10@@Z 0000000180028e90 f i acl_stdafx.obj
 0001:00027ea0       ??$forward@AEAU?$pair@$$CBV?$basic_string@DU?$char_traits@D@std@@V?$allocator@D@2@@std@@Uobject_t@gsoner@acl@@@std@@@std@@YAAEAU?$pair@$$CBV?$basic_string@DU?$char_traits@D@std@@V?$allocator@D@2@@std@@Uobject_t@gsoner@acl@@@0@AEAU10@@Z 0000000180028ea0 f i acl_stdafx.obj
 0001:00027eb0       ??$forward@AEAVredis_role4slave@acl@@@std@@YAAEAVredis_role4slave@acl@@AEAV12@@Z 0000000180028eb0 f i acl_stdafx.obj
 0001:00027ec0       ??$forward@AEBUfield_t@gsoner@acl@@@std@@YAAEBUfield_t@gsoner@acl@@AEBU123@@Z 0000000180028ec0 f i acl_stdafx.obj
 0001:00027ed0       ??$forward@AEBUparent_obj_t@gsoner@acl@@@std@@YAAEBUparent_obj_t@gsoner@acl@@AEBU123@@Z 0000000180028ed0 f i acl_stdafx.obj
 0001:00027ee0       ??$forward@AEBV?$basic_string@DU?$char_traits@D@std@@V?$allocator@D@2@@std@@@std@@YAAEBV?$basic_string@DU?$char_traits@D@std@@V?$allocator@D@2@@0@AEBV10@@Z 0000000180028ee0 f i acl_stdafx.obj
 0001:00027ef0       ??$forward@AEBVredis_role4slave@acl@@@std@@YAAEBVredis_role4slave@acl@@AEBV12@@Z 0000000180028ef0 f i acl_stdafx.obj
 0001:00027f00       ??$forward@AEBVstring@acl@@@std@@YAAEBVstring@acl@@AEBV12@@Z 0000000180028f00 f i acl_stdafx.obj
 0001:00027f10       ??$forward@U_Container_proxy@std@@@std@@YA$$QEAU_Container_proxy@0@AEAU10@@Z 0000000180028f10 f i acl_stdafx.obj
 0001:00027f20       ??$forward@Vredis_role4slave@acl@@@std@@YA$$QEAVredis_role4slave@acl@@AEAV12@@Z 0000000180028f20 f i acl_stdafx.obj
 0001:00027f30       ??$insert@V?$_List_const_iterator@V?$_List_val@U?$_List_simple_types@Ufield_t@gsoner@acl@@@std@@@std@@@std@@@?$list@Ufield_t@gsoner@acl@@V?$allocator@Ufield_t@gsoner@acl@@@std@@@std@@QEAA?AV?$_List_iterator@V?$_List_val@U?$_List_simple_types@Ufield_t@gsoner@acl@@@std@@@std@@@1@V?$_List_const_iterator@V?$_List_val@U?$_List_simple_types@Ufield_t@gsoner@acl@@@std@@@std@@@1@00@Z 0000000180028f30 f i acl_stdafx.obj
 0001:00028430       ??$insert@V?$_List_const_iterator@V?$_List_val@U?$_List_simple_types@Uparent_obj_t@gsoner@acl@@@std@@@std@@@std@@@?$list@Uparent_obj_t@gsoner@acl@@V?$allocator@Uparent_obj_t@gsoner@acl@@@std@@@std@@QEAA?AV?$_List_iterator@V?$_List_val@U?$_List_simple_types@Uparent_obj_t@gsoner@acl@@@std@@@std@@@1@V?$_List_const_iterator@V?$_List_val@U?$_List_simple_types@Uparent_obj_t@gsoner@acl@@@std@@@std@@@1@00@Z 0000000180029430 f i acl_stdafx.obj
 0001:00028930       ??$insert@V?$_List_const_iterator@V?$_List_val@U?$_List_simple_types@V?$basic_string@DU?$char_traits@D@std@@V?$allocator@D@2@@std@@@std@@@std@@@std@@@?$list@V?$basic_string@DU?$char_traits@D@std@@V?$allocator@D@2@@std@@V?$allocator@V?$basic_string@DU?$char_traits@D@std@@V?$allocator@D@2@@std@@@2@@std@@QEAA?AV?$_List_iterator@V?$_List_val@U?$_List_simple_types@V?$basic_string@DU?$char_traits@D@std@@V?$allocator@D@2@@std@@@std@@@std@@@1@V?$_List_const_iterator@V?$_List_val@U?$_List_simple_types@V?$basic_string@DU?$char_traits@D@std@@V?$allocator@D@2@@std@@@std@@@std@@@1@00@Z 0000000180029930 f i acl_stdafx.obj
 0001:00028e30       ??$insert@V?$_List_const_iterator@V?$_List_val@U?$_List_simple_types@Vstring@acl@@@std@@@std@@@std@@@?$list@Vstring@acl@@V?$allocator@Vstring@acl@@@std@@@std@@QEAA?AV?$_List_iterator@V?$_List_val@U?$_List_simple_types@Vstring@acl@@@std@@@std@@@1@V?$_List_const_iterator@V?$_List_val@U?$_List_simple_types@Vstring@acl@@@std@@@std@@@1@00@Z 0000000180029e30 f i acl_stdafx.obj
 0001:00029330       ??$swap@D@std@@YAXAEAD0@Z  000000018002a330 f i acl_stdafx.obj
 0001:000293c0       ??0?$_Iterator012@Ubidirectional_iterator_tag@std@@U?$pair@$$CBV?$basic_string@DU?$char_traits@D@std@@V?$allocator@D@2@@std@@Uobject_t@gsoner@acl@@@2@_JPEBU32@AEBU32@U_Iterator_base12@2@@std@@QEAA@AEBU01@@Z 000000018002a3c0 f i acl_stdafx.obj
 0001:00029410       ??0?$_Iterator012@Ubidirectional_iterator_tag@std@@U?$pair@$$CBV?$basic_string@DU?$char_traits@D@std@@V?$allocator@D@2@@std@@Uobject_t@gsoner@acl@@@2@_JPEBU32@AEBU32@U_Iterator_base12@2@@std@@QEAA@XZ 000000018002a410 f i acl_stdafx.obj
 0001:00029450       ??0?$_Iterator012@Ubidirectional_iterator_tag@std@@Ufield_t@gsoner@acl@@_JPEBU345@AEBU345@U_Iterator_base12@2@@std@@QEAA@AEBU01@@Z 000000018002a450 f i acl_stdafx.obj
 0001:000294a0       ??0?$_Iterator012@Ubidirectional_iterator_tag@std@@Ufield_t@gsoner@acl@@_JPEBU345@AEBU345@U_Iterator_base12@2@@std@@QEAA@XZ 000000018002a4a0 f i acl_stdafx.obj
 0001:000294e0       ??0?$_Iterator012@Ubidirectional_iterator_tag@std@@Uparent_obj_t@gsoner@acl@@_JPEBU345@AEBU345@U_Iterator_base12@2@@std@@QEAA@AEBU01@@Z 000000018002a4e0 f i acl_stdafx.obj
 0001:00029530       ??0?$_Iterator012@Ubidirectional_iterator_tag@std@@Uparent_obj_t@gsoner@acl@@_JPEBU345@AEBU345@U_Iterator_base12@2@@std@@QEAA@XZ 000000018002a530 f i acl_stdafx.obj
 0001:00029570       ??0?$_Iterator012@Ubidirectional_iterator_tag@std@@V?$basic_string@DU?$char_traits@D@std@@V?$allocator@D@2@@2@_JPEBV32@AEBV32@U_Iterator_base12@2@@std@@QEAA@AEBU01@@Z 000000018002a570 f i acl_stdafx.obj
 0001:000295c0       ??0?$_Iterator012@Ubidirectional_iterator_tag@std@@V?$basic_string@DU?$char_traits@D@std@@V?$allocator@D@2@@2@_JPEBV32@AEBV32@U_Iterator_base12@2@@std@@QEAA@XZ 000000018002a5c0 f i acl_stdafx.obj
 0001:00029600       ??0?$_Iterator012@Ubidirectional_iterator_tag@std@@Vstring@acl@@_JPEBV34@AEBV34@U_Iterator_base12@2@@std@@QEAA@AEBU01@@Z 000000018002a600 f i acl_stdafx.obj
 0001:00029650       ??0?$_Iterator012@Ubidirectional_iterator_tag@std@@Vstring@acl@@_JPEBV34@AEBV34@U_Iterator_base12@2@@std@@QEAA@XZ 000000018002a650 f i acl_stdafx.obj
 0001:00029690       ??0?$_Iterator012@Urandom_access_iterator_tag@std@@Vredis_role4slave@acl@@_JPEBV34@AEBV34@U_Iterator_base12@2@@std@@QEAA@AEBU01@@Z 000000018002a690 f i acl_stdafx.obj
 0001:000296e0       ??0?$_Iterator012@Urandom_access_iterator_tag@std@@Vredis_role4slave@acl@@_JPEBV34@AEBV34@U_Iterator_base12@2@@std@@QEAA@XZ 000000018002a6e0 f i acl_stdafx.obj
 0001:00029720       ??0?$_List_alloc@$0A@U?$_List_base_types@Ufield_t@gsoner@acl@@V?$allocator@Ufield_t@gsoner@acl@@@std@@@std@@@std@@QEAA@AEBV?$allocator@Ufield_t@gsoner@acl@@@1@@Z 000000018002a720 f i acl_stdafx.obj
 0001:000297a0       ??0?$_List_alloc@$0A@U?$_List_base_types@Uparent_obj_t@gsoner@acl@@V?$allocator@Uparent_obj_t@gsoner@acl@@@std@@@std@@@std@@QEAA@AEBV?$allocator@Uparent_obj_t@gsoner@acl@@@1@@Z 000000018002a7a0 f i acl_stdafx.obj
 0001:00029820       ??0?$_List_alloc@$0A@U?$_List_base_types@V?$basic_string@DU?$char_traits@D@std@@V?$allocator@D@2@@std@@V?$allocator@V?$basic_string@DU?$char_traits@D@std@@V?$allocator@D@2@@std@@@2@@std@@@std@@QEAA@AEBV?$allocator@V?$basic_string@DU?$char_traits@D@std@@V?$allocator@D@2@@std@@@1@@Z 000000018002a820 f i acl_stdafx.obj
 0001:000298a0       ??0?$_List_alloc@$0A@U?$_List_base_types@Vstring@acl@@V?$allocator@Vstring@acl@@@std@@@std@@@std@@QEAA@AEBV?$allocator@Vstring@acl@@@1@@Z 000000018002a8a0 f i acl_stdafx.obj
 0001:00029920       ??0?$_List_buy@Ufield_t@gsoner@acl@@V?$allocator@Ufield_t@gsoner@acl@@@std@@@std@@QEAA@AEBV?$allocator@Ufield_t@gsoner@acl@@@1@@Z 000000018002a920 f i acl_stdafx.obj
 0001:00029970       ??0?$_List_buy@Uparent_obj_t@gsoner@acl@@V?$allocator@Uparent_obj_t@gsoner@acl@@@std@@@std@@QEAA@AEBV?$allocator@Uparent_obj_t@gsoner@acl@@@1@@Z 000000018002a970 f i acl_stdafx.obj
 0001:000299c0       ??0?$_List_buy@V?$basic_string@DU?$char_traits@D@std@@V?$allocator@D@2@@std@@V?$allocator@V?$basic_string@DU?$char_traits@D@std@@V?$allocator@D@2@@std@@@2@@std@@QEAA@AEBV?$allocator@V?$basic_string@DU?$char_traits@D@std@@V?$allocator@D@2@@std@@@1@@Z 000000018002a9c0 f i acl_stdafx.obj
 0001:00029a10       ??0?$_List_buy@Vstring@acl@@V?$allocator@Vstring@acl@@@std@@@std@@QEAA@AEBV?$allocator@Vstring@acl@@@1@@Z 000000018002aa10 f i acl_stdafx.obj
 0001:00029a60       ??0?$_List_const_iterator@V?$_List_val@U?$_List_simple_types@Ufield_t@gsoner@acl@@@std@@@std@@@std@@QEAA@AEBV01@@Z 000000018002aa60 f i acl_stdafx.obj
 0001:00029ab0       ??0?$_List_const_iterator@V?$_List_val@U?$_List_simple_types@Ufield_t@gsoner@acl@@@std@@@std@@@std@@QEAA@PEAU?$_List_node@Ufield_t@gsoner@acl@@PEAX@1@PEBV?$_List_val@U?$_List_simple_types@Ufield_t@gsoner@acl@@@std@@@1@@Z 000000018002aab0 f i acl_stdafx.obj
 0001:00029b10       ??0?$_List_const_iterator@V?$_List_val@U?$_List_simple_types@Uparent_obj_t@gsoner@acl@@@std@@@std@@@std@@QEAA@AEBV01@@Z 000000018002ab10 f i acl_stdafx.obj
 0001:00029b60       ??0?$_List_const_iterator@V?$_List_val@U?$_List_simple_types@Uparent_obj_t@gsoner@acl@@@std@@@std@@@std@@QEAA@PEAU?$_List_node@Uparent_obj_t@gsoner@acl@@PEAX@1@PEBV?$_List_val@U?$_List_simple_types@Uparent_obj_t@gsoner@acl@@@std@@@1@@Z 000000018002ab60 f i acl_stdafx.obj
 0001:00029bc0       ??0?$_List_const_iterator@V?$_List_val@U?$_List_simple_types@V?$basic_string@DU?$char_traits@D@std@@V?$allocator@D@2@@std@@@std@@@std@@@std@@QEAA@AEBV01@@Z 000000018002abc0 f i acl_stdafx.obj
 0001:00029c10       ??0?$_List_const_iterator@V?$_List_val@U?$_List_simple_types@V?$basic_string@DU?$char_traits@D@std@@V?$allocator@D@2@@std@@@std@@@std@@@std@@QEAA@PEAU?$_List_node@V?$basic_string@DU?$char_traits@D@std@@V?$allocator@D@2@@std@@PEAX@1@PEBV?$_List_val@U?$_List_simple_types@V?$basic_string@DU?$char_traits@D@std@@V?$allocator@D@2@@std@@@std@@@1@@Z 000000018002ac10 f i acl_stdafx.obj
 0001:00029c70       ??0?$_List_const_iterator@V?$_List_val@U?$_List_simple_types@Vstring@acl@@@std@@@std@@@std@@QEAA@AEBV01@@Z 000000018002ac70 f i acl_stdafx.obj
 0001:00029cc0       ??0?$_List_const_iterator@V?$_List_val@U?$_List_simple_types@Vstring@acl@@@std@@@std@@@std@@QEAA@PEAU?$_List_node@Vstring@acl@@PEAX@1@PEBV?$_List_val@U?$_List_simple_types@Vstring@acl@@@std@@@1@@Z 000000018002acc0 f i acl_stdafx.obj
 0001:00029d20       ??0?$_List_iterator@V?$_List_val@U?$_List_simple_types@Ufield_t@gsoner@acl@@@std@@@std@@@std@@QEAA@AEBV01@@Z 000000018002ad20 f i acl_stdafx.obj
 0001:00029d70       ??0?$_List_iterator@V?$_List_val@U?$_List_simple_types@Ufield_t@gsoner@acl@@@std@@@std@@@std@@QEAA@PEAU?$_List_node@Ufield_t@gsoner@acl@@PEAX@1@PEBV?$_List_val@U?$_List_simple_types@Ufield_t@gsoner@acl@@@std@@@1@@Z 000000018002ad70 f i acl_stdafx.obj
 0001:00029dd0       ??0?$_List_iterator@V?$_List_val@U?$_List_simple_types@Uparent_obj_t@gsoner@acl@@@std@@@std@@@std@@QEAA@AEBV01@@Z 000000018002add0 f i acl_stdafx.obj
 0001:00029e20       ??0?$_List_iterator@V?$_List_val@U?$_List_simple_types@Uparent_obj_t@gsoner@acl@@@std@@@std@@@std@@QEAA@PEAU?$_List_node@Uparent_obj_t@gsoner@acl@@PEAX@1@PEBV?$_List_val@U?$_List_simple_types@Uparent_obj_t@gsoner@acl@@@std@@@1@@Z 000000018002ae20 f i acl_stdafx.obj
 0001:00029e80       ??0?$_List_iterator@V?$_List_val@U?$_List_simple_types@V?$basic_string@DU?$char_traits@D@std@@V?$allocator@D@2@@std@@@std@@@std@@@std@@QEAA@AEBV01@@Z 000000018002ae80 f i acl_stdafx.obj
 0001:00029ed0       ??0?$_List_iterator@V?$_List_val@U?$_List_simple_types@V?$basic_string@DU?$char_traits@D@std@@V?$allocator@D@2@@std@@@std@@@std@@@std@@QEAA@PEAU?$_List_node@V?$basic_string@DU?$char_traits@D@std@@V?$allocator@D@2@@std@@PEAX@1@PEBV?$_List_val@U?$_List_simple_types@V?$basic_string@DU?$char_traits@D@std@@V?$allocator@D@2@@std@@@std@@@1@@Z 000000018002aed0 f i acl_stdafx.obj
 0001:00029f30       ??0?$_List_iterator@V?$_List_val@U?$_List_simple_types@Vstring@acl@@@std@@@std@@@std@@QEAA@AEBV01@@Z 000000018002af30 f i acl_stdafx.obj
 0001:00029f80       ??0?$_List_iterator@V?$_List_val@U?$_List_simple_types@Vstring@acl@@@std@@@std@@@std@@QEAA@PEAU?$_List_node@Vstring@acl@@PEAX@1@PEBV?$_List_val@U?$_List_simple_types@Vstring@acl@@@std@@@1@@Z 000000018002af80 f i acl_stdafx.obj
 0001:00029fe0       ??0?$_List_unchecked_const_iterator@V?$_List_val@U?$_List_simple_types@Ufield_t@gsoner@acl@@@std@@@std@@U_Iterator_base0@2@@std@@QEAA@PEAU?$_List_node@Ufield_t@gsoner@acl@@PEAX@1@PEBV?$_List_val@U?$_List_simple_types@Ufield_t@gsoner@acl@@@std@@@1@@Z 000000018002afe0 f i acl_stdafx.obj
 0001:0002a050       ??0?$_List_unchecked_const_iterator@V?$_List_val@U?$_List_simple_types@Ufield_t@gsoner@acl@@@std@@@std@@U_Iterator_base12@2@@std@@QEAA@AEBV01@@Z 000000018002b050 f i acl_stdafx.obj
 0001:0002a0c0       ??0?$_List_unchecked_const_iterator@V?$_List_val@U?$_List_simple_types@Ufield_t@gsoner@acl@@@std@@@std@@U_Iterator_base12@2@@std@@QEAA@PEAU?$_List_node@Ufield_t@gsoner@acl@@PEAX@1@PEBV?$_List_val@U?$_List_simple_types@Ufield_t@gsoner@acl@@@std@@@1@@Z 000000018002b0c0 f i acl_stdafx.obj
 0001:0002a140       ??0?$_List_unchecked_const_iterator@V?$_List_val@U?$_List_simple_types@Uparent_obj_t@gsoner@acl@@@std@@@std@@U_Iterator_base0@2@@std@@QEAA@PEAU?$_List_node@Uparent_obj_t@gsoner@acl@@PEAX@1@PEBV?$_List_val@U?$_List_simple_types@Uparent_obj_t@gsoner@acl@@@std@@@1@@Z 000000018002b140 f i acl_stdafx.obj
 0001:0002a1b0       ??0?$_List_unchecked_const_iterator@V?$_List_val@U?$_List_simple_types@Uparent_obj_t@gsoner@acl@@@std@@@std@@U_Iterator_base12@2@@std@@QEAA@AEBV01@@Z 000000018002b1b0 f i acl_stdafx.obj
 0001:0002a220       ??0?$_List_unchecked_const_iterator@V?$_List_val@U?$_List_simple_types@Uparent_obj_t@gsoner@acl@@@std@@@std@@U_Iterator_base12@2@@std@@QEAA@PEAU?$_List_node@Uparent_obj_t@gsoner@acl@@PEAX@1@PEBV?$_List_val@U?$_List_simple_types@Uparent_obj_t@gsoner@acl@@@std@@@1@@Z 000000018002b220 f i acl_stdafx.obj
 0001:0002a2a0       ??0?$_List_unchecked_const_iterator@V?$_List_val@U?$_List_simple_types@V?$basic_string@DU?$char_traits@D@std@@V?$allocator@D@2@@std@@@std@@@std@@U_Iterator_base0@2@@std@@QEAA@PEAU?$_List_node@V?$basic_string@DU?$char_traits@D@std@@V?$allocator@D@2@@std@@PEAX@1@PEBV?$_List_val@U?$_List_simple_types@V?$basic_string@DU?$char_traits@D@std@@V?$allocator@D@2@@std@@@std@@@1@@Z 000000018002b2a0 f i acl_stdafx.obj
 0001:0002a310       ??0?$_List_unchecked_const_iterator@V?$_List_val@U?$_List_simple_types@V?$basic_string@DU?$char_traits@D@std@@V?$allocator@D@2@@std@@@std@@@std@@U_Iterator_base12@2@@std@@QEAA@AEBV01@@Z 000000018002b310 f i acl_stdafx.obj
 0001:0002a380       ??0?$_List_unchecked_const_iterator@V?$_List_val@U?$_List_simple_types@V?$basic_string@DU?$char_traits@D@std@@V?$allocator@D@2@@std@@@std@@@std@@U_Iterator_base12@2@@std@@QEAA@PEAU?$_List_node@V?$basic_string@DU?$char_traits@D@std@@V?$allocator@D@2@@std@@PEAX@1@PEBV?$_List_val@U?$_List_simple_types@V?$basic_string@DU?$char_traits@D@std@@V?$allocator@D@2@@std@@@std@@@1@@Z 000000018002b380 f i acl_stdafx.obj
 0001:0002a400       ??0?$_List_unchecked_const_iterator@V?$_List_val@U?$_List_simple_types@Vstring@acl@@@std@@@std@@U_Iterator_base0@2@@std@@QEAA@PEAU?$_List_node@Vstring@acl@@PEAX@1@PEBV?$_List_val@U?$_List_simple_types@Vstring@acl@@@std@@@1@@Z 000000018002b400 f i acl_stdafx.obj
 0001:0002a470       ??0?$_List_unchecked_const_iterator@V?$_List_val@U?$_List_simple_types@Vstring@acl@@@std@@@std@@U_Iterator_base12@2@@std@@QEAA@AEBV01@@Z 000000018002b470 f i acl_stdafx.obj
 0001:0002a4e0       ??0?$_List_unchecked_const_iterator@V?$_List_val@U?$_List_simple_types@Vstring@acl@@@std@@@std@@U_Iterator_base12@2@@std@@QEAA@PEAU?$_List_node@Vstring@acl@@PEAX@1@PEBV?$_List_val@U?$_List_simple_types@Vstring@acl@@@std@@@1@@Z 000000018002b4e0 f i acl_stdafx.obj
 0001:0002a560       ??0?$_List_unchecked_iterator@V?$_List_val@U?$_List_simple_types@Ufield_t@gsoner@acl@@@std@@@std@@@std@@QEAA@PEAU?$_List_node@Ufield_t@gsoner@acl@@PEAX@1@PEBV?$_List_val@U?$_List_simple_types@Ufield_t@gsoner@acl@@@std@@@1@@Z 000000018002b560 f i acl_stdafx.obj
 0001:0002a5c0       ??0?$_List_unchecked_iterator@V?$_List_val@U?$_List_simple_types@Uparent_obj_t@gsoner@acl@@@std@@@std@@@std@@QEAA@PEAU?$_List_node@Uparent_obj_t@gsoner@acl@@PEAX@1@PEBV?$_List_val@U?$_List_simple_types@Uparent_obj_t@gsoner@acl@@@std@@@1@@Z 000000018002b5c0 f i acl_stdafx.obj
 0001:0002a620       ??0?$_List_unchecked_iterator@V?$_List_val@U?$_List_simple_types@V?$basic_string@DU?$char_traits@D@std@@V?$allocator@D@2@@std@@@std@@@std@@@std@@QEAA@PEAU?$_List_node@V?$basic_string@DU?$char_traits@D@std@@V?$allocator@D@2@@std@@PEAX@1@PEBV?$_List_val@U?$_List_simple_types@V?$basic_string@DU?$char_traits@D@std@@V?$allocator@D@2@@std@@@std@@@1@@Z 000000018002b620 f i acl_stdafx.obj
 0001:0002a680       ??0?$_List_unchecked_iterator@V?$_List_val@U?$_List_simple_types@Vstring@acl@@@std@@@std@@@std@@QEAA@PEAU?$_List_node@Vstring@acl@@PEAX@1@PEBV?$_List_val@U?$_List_simple_types@Vstring@acl@@@std@@@1@@Z 000000018002b680 f i acl_stdafx.obj
 0001:0002a6e0       ??0?$_List_val@U?$_List_simple_types@Ufield_t@gsoner@acl@@@std@@@std@@QEAA@XZ 000000018002b6e0 f i acl_stdafx.obj
 0001:0002a750       ??0?$_List_val@U?$_List_simple_types@Uparent_obj_t@gsoner@acl@@@std@@@std@@QEAA@XZ 000000018002b750 f i acl_stdafx.obj
 0001:0002a7c0       ??0?$_List_val@U?$_List_simple_types@V?$basic_string@DU?$char_traits@D@std@@V?$allocator@D@2@@std@@@std@@@std@@QEAA@XZ 000000018002b7c0 f i acl_stdafx.obj
 0001:0002a830       ??0?$_List_val@U?$_List_simple_types@Vstring@acl@@@std@@@std@@QEAA@XZ 000000018002b830 f i acl_stdafx.obj
 0001:0002a8a0       ??0?$_String_alloc@$0A@U?$_String_base_types@DV?$allocator@D@std@@@std@@@std@@QEAA@AEBV?$allocator@D@1@@Z 000000018002b8a0 f i acl_stdafx.obj
 0001:0002a900       ??0?$_String_val@U?$_Simple_types@D@std@@@std@@QEAA@XZ 000000018002b900 f i acl_stdafx.obj
 0001:0002a970       ??0?$_Tree@V?$_Tmap_traits@V?$basic_string@DU?$char_traits@D@std@@V?$allocator@D@2@@std@@Uobject_t@gsoner@acl@@U?$less@V?$basic_string@DU?$char_traits@D@std@@V?$allocator@D@2@@std@@@2@V?$allocator@U?$pair@$$CBV?$basic_string@DU?$char_traits@D@std@@V?$allocator@D@2@@std@@Uobject_t@gsoner@acl@@@std@@@2@$0A@@std@@@std@@QEAA@AEBV01@AEBV?$allocator@U?$pair@$$CBV?$basic_string@DU?$char_traits@D@std@@V?$allocator@D@2@@std@@Uobject_t@gsoner@acl@@@std@@@1@@Z 000000018002b970 f i acl_stdafx.obj
 0001:0002aa20       ??0?$_Tree_alloc@$0A@U?$_Tree_base_types@U?$pair@$$CBV?$basic_string@DU?$char_traits@D@std@@V?$allocator@D@2@@std@@Uobject_t@gsoner@acl@@@std@@V?$allocator@U?$pair@$$CBV?$basic_string@DU?$char_traits@D@std@@V?$allocator@D@2@@std@@Uobject_t@gsoner@acl@@@std@@@2@@std@@@std@@QEAA@AEBV?$allocator@U?$pair@$$CBV?$basic_string@DU?$char_traits@D@std@@V?$allocator@D@2@@std@@Uobject_t@gsoner@acl@@@std@@@1@@Z 000000018002ba20 f i acl_stdafx.obj
 0001:0002aaa0       ??0?$_Tree_buy@U?$pair@$$CBV?$basic_string@DU?$char_traits@D@std@@V?$allocator@D@2@@std@@Uobject_t@gsoner@acl@@@std@@V?$allocator@U?$pair@$$CBV?$basic_string@DU?$char_traits@D@std@@V?$allocator@D@2@@std@@Uobject_t@gsoner@acl@@@std@@@2@@std@@QEAA@AEBV?$allocator@U?$pair@$$CBV?$basic_string@DU?$char_traits@D@std@@V?$allocator@D@2@@std@@Uobject_t@gsoner@acl@@@std@@@1@@Z 000000018002baa0 f i acl_stdafx.obj
 0001:0002aaf0       ??0?$_Tree_comp@$0A@V?$_Tmap_traits@V?$basic_string@DU?$char_traits@D@std@@V?$allocator@D@2@@std@@Uobject_t@gsoner@acl@@U?$less@V?$basic_string@DU?$char_traits@D@std@@V?$allocator@D@2@@std@@@2@V?$allocator@U?$pair@$$CBV?$basic_string@DU?$char_traits@D@std@@V?$allocator@D@2@@std@@Uobject_t@gsoner@acl@@@std@@@2@$0A@@std@@@std@@QEAA@AEBU?$less@V?$basic_string@DU?$char_traits@D@std@@V?$allocator@D@2@@std@@@1@AEBV?$allocator@U?$pair@$$CBV?$basic_string@DU?$char_traits@D@std@@V?$allocator@D@2@@std@@Uobject_t@gsoner@acl@@@std@@@1@@Z 000000018002baf0 f i acl_stdafx.obj
 0001:0002ab50       ??0?$_Tree_const_iterator@V?$_Tree_val@U?$_Tree_simple_types@U?$pair@$$CBV?$basic_string@DU?$char_traits@D@std@@V?$allocator@D@2@@std@@Uobject_t@gsoner@acl@@@std@@@std@@@std@@@std@@QEAA@AEBV01@@Z 000000018002bb50 f i acl_stdafx.obj
 0001:0002aba0       ??0?$_Tree_const_iterator@V?$_Tree_val@U?$_Tree_simple_types@U?$pair@$$CBV?$basic_string@DU?$char_traits@D@std@@V?$allocator@D@2@@std@@Uobject_t@gsoner@acl@@@std@@@std@@@std@@@std@@QEAA@PEAU?$_Tree_node@U?$pair@$$CBV?$basic_string@DU?$char_traits@D@std@@V?$allocator@D@2@@std@@Uobject_t@gsoner@acl@@@std@@PEAX@1@PEBV?$_Tree_val@U?$_Tree_simple_types@U?$pair@$$CBV?$basic_string@DU?$char_traits@D@std@@V?$allocator@D@2@@std@@Uobject_t@gsoner@acl@@@std@@@std@@@1@@Z 000000018002bba0 f i acl_stdafx.obj
 0001:0002ac00       ??0?$_Tree_iterator@V?$_Tree_val@U?$_Tree_simple_types@U?$pair@$$CBV?$basic_string@DU?$char_traits@D@std@@V?$allocator@D@2@@std@@Uobject_t@gsoner@acl@@@std@@@std@@@std@@@std@@QEAA@PEAU?$_Tree_node@U?$pair@$$CBV?$basic_string@DU?$char_traits@D@std@@V?$allocator@D@2@@std@@Uobject_t@gsoner@acl@@@std@@PEAX@1@PEBV?$_Tree_val@U?$_Tree_simple_types@U?$pair@$$CBV?$basic_string@DU?$char_traits@D@std@@V?$allocator@D@2@@std@@Uobject_t@gsoner@acl@@@std@@@std@@@1@@Z 000000018002bc00 f i acl_stdafx.obj
 0001:0002ac60       ??0?$_Tree_unchecked_const_iterator@V?$_Tree_val@U?$_Tree_simple_types@U?$pair@$$CBV?$basic_string@DU?$char_traits@D@std@@V?$allocator@D@2@@std@@Uobject_t@gsoner@acl@@@std@@@std@@@std@@U_Iterator_base12@2@@std@@QEAA@AEBV01@@Z 000000018002bc60 f i acl_stdafx.obj
 0001:0002acd0       ??0?$_Tree_unchecked_const_iterator@V?$_Tree_val@U?$_Tree_simple_types@U?$pair@$$CBV?$basic_string@DU?$char_traits@D@std@@V?$allocator@D@2@@std@@Uobject_t@gsoner@acl@@@std@@@std@@@std@@U_Iterator_base12@2@@std@@QEAA@PEAU?$_Tree_node@U?$pair@$$CBV?$basic_string@DU?$char_traits@D@std@@V?$allocator@D@2@@std@@Uobject_t@gsoner@acl@@@std@@PEAX@1@PEBV?$_Tree_val@U?$_Tree_simple_types@U?$pair@$$CBV?$basic_string@DU?$char_traits@D@std@@V?$allocator@D@2@@std@@Uobject_t@gsoner@acl@@@std@@@std@@@1@@Z 000000018002bcd0 f i acl_stdafx.obj
 0001:0002ad50       ??0?$_Tree_val@U?$_Tree_simple_types@U?$pair@$$CBV?$basic_string@DU?$char_traits@D@std@@V?$allocator@D@2@@std@@Uobject_t@gsoner@acl@@@std@@@std@@@std@@QEAA@XZ 000000018002bd50 f i acl_stdafx.obj
 0001:0002adc0       ??0?$_Vector_alloc@$0A@U?$_Vec_base_types@Vredis_role4slave@acl@@V?$allocator@Vredis_role4slave@acl@@@std@@@std@@@std@@QEAA@AEBV?$allocator@Vredis_role4slave@acl@@@1@@Z 000000018002bdc0 f i acl_stdafx.obj
 0001:0002ae20       ??0?$_Vector_const_iterator@V?$_Vector_val@U?$_Simple_types@Vredis_role4slave@acl@@@std@@@std@@@std@@QEAA@AEBV01@@Z 000000018002be20 f i acl_stdafx.obj
 0001:0002ae90       ??0?$_Vector_const_iterator@V?$_Vector_val@U?$_Simple_types@Vredis_role4slave@acl@@@std@@@std@@@std@@QEAA@PEAVredis_role4slave@acl@@PEBU_Container_base12@1@@Z 000000018002be90 f i acl_stdafx.obj
 0001:0002af10       ??0?$_Vector_val@U?$_Simple_types@Vredis_role4slave@acl@@@std@@@std@@QEAA@XZ 000000018002bf10 f i acl_stdafx.obj
 0001:0002af90       ??0?$_Wrap_alloc@V?$allocator@D@std@@@std@@QEAA@AEBV?$allocator@D@1@@Z 000000018002bf90 f i acl_stdafx.obj
 0001:0002afe0       ??0?$_Wrap_alloc@V?$allocator@D@std@@@std@@QEAA@XZ 000000018002bfe0 f i acl_stdafx.obj
 0001:0002b020       ??0?$_Wrap_alloc@V?$allocator@PEAVredis_slot@acl@@@std@@@std@@QEAA@XZ 000000018002c020 f i acl_stdafx.obj
 0001:0002b060       ??0?$_Wrap_alloc@V?$allocator@U?$_List_node@Ufield_t@gsoner@acl@@PEAX@std@@@std@@@std@@QEAA@AEBV?$allocator@U?$_List_node@Ufield_t@gsoner@acl@@PEAX@std@@@1@@Z 000000018002c060 f i acl_stdafx.obj
 0001:0002b0b0       ??0?$_Wrap_alloc@V?$allocator@U?$_List_node@Ufield_t@gsoner@acl@@PEAX@std@@@std@@@std@@QEAA@XZ 000000018002c0b0 f i acl_stdafx.obj
 0001:0002b0f0       ??0?$_Wrap_alloc@V?$allocator@U?$_List_node@Uparent_obj_t@gsoner@acl@@PEAX@std@@@std@@@std@@QEAA@AEBV?$allocator@U?$_List_node@Uparent_obj_t@gsoner@acl@@PEAX@std@@@1@@Z 000000018002c0f0 f i acl_stdafx.obj
 0001:0002b140       ??0?$_Wrap_alloc@V?$allocator@U?$_List_node@Uparent_obj_t@gsoner@acl@@PEAX@std@@@std@@@std@@QEAA@XZ 000000018002c140 f i acl_stdafx.obj
 0001:0002b180       ??0?$_Wrap_alloc@V?$allocator@U?$_List_node@V?$basic_string@DU?$char_traits@D@std@@V?$allocator@D@2@@std@@PEAX@std@@@std@@@std@@QEAA@AEBV?$allocator@U?$_List_node@V?$basic_string@DU?$char_traits@D@std@@V?$allocator@D@2@@std@@PEAX@std@@@1@@Z 000000018002c180 f i acl_stdafx.obj
 0001:0002b1d0       ??0?$_Wrap_alloc@V?$allocator@U?$_List_node@V?$basic_string@DU?$char_traits@D@std@@V?$allocator@D@2@@std@@PEAX@std@@@std@@@std@@QEAA@XZ 000000018002c1d0 f i acl_stdafx.obj
 0001:0002b210       ??0?$_Wrap_alloc@V?$allocator@U?$_List_node@Vstring@acl@@PEAX@std@@@std@@@std@@QEAA@AEBV?$allocator@U?$_List_node@Vstring@acl@@PEAX@std@@@1@@Z 000000018002c210 f i acl_stdafx.obj
 0001:0002b260       ??0?$_Wrap_alloc@V?$allocator@U?$_List_node@Vstring@acl@@PEAX@std@@@std@@@std@@QEAA@XZ 000000018002c260 f i acl_stdafx.obj
 0001:0002b2a0       ??0?$_Wrap_alloc@V?$allocator@U?$_Tree_node@U?$pair@$$CBV?$basic_string@DU?$char_traits@D@std@@V?$allocator@D@2@@std@@Uobject_t@gsoner@acl@@@std@@PEAX@std@@@std@@@std@@QEAA@AEBV?$allocator@U?$_Tree_node@U?$pair@$$CBV?$basic_string@DU?$char_traits@D@std@@V?$allocator@D@2@@std@@Uobject_t@gsoner@acl@@@std@@PEAX@std@@@1@@Z 000000018002c2a0 f i acl_stdafx.obj
 0001:0002b2f0       ??0?$_Wrap_alloc@V?$allocator@U?$_Tree_node@U?$pair@$$CBV?$basic_string@DU?$char_traits@D@std@@V?$allocator@D@2@@std@@Uobject_t@gsoner@acl@@@std@@PEAX@std@@@std@@@std@@QEAA@XZ 000000018002c2f0 f i acl_stdafx.obj
 0001:0002b330       ??0?$_Wrap_alloc@V?$allocator@U_Container_proxy@std@@@std@@@std@@QEAA@XZ 000000018002c330 f i acl_stdafx.obj
 0001:0002b370       ??0?$_Wrap_alloc@V?$allocator@Vredis_role4slave@acl@@@std@@@std@@QEAA@AEBV?$allocator@Vredis_role4slave@acl@@@1@@Z 000000018002c370 f i acl_stdafx.obj
 0001:0002b3c0       ??0?$_Wrap_alloc@V?$allocator@Vredis_role4slave@acl@@@std@@@std@@QEAA@XZ 000000018002c3c0 f i acl_stdafx.obj
 0001:0002b400       ??0?$_Wrap_alloc@V?$allocator@Vstring@acl@@@std@@@std@@QEAA@XZ 000000018002c400 f i acl_stdafx.obj
 0001:0002b440       ??0?$allocator@D@std@@QEAA@AEBV01@@Z 000000018002c440 f i acl_stdafx.obj
 0001:0002b460       ??0?$allocator@D@std@@QEAA@XZ 000000018002c460 f i acl_stdafx.obj
 0001:0002b470       ??0?$allocator@PEAVredis_slot@acl@@@std@@QEAA@AEBV01@@Z 000000018002c470 f i acl_stdafx.obj
 0001:0002b490       ??0?$allocator@PEAVredis_slot@acl@@@std@@QEAA@XZ 000000018002c490 f i acl_stdafx.obj
 0001:0002b4a0       ??0?$allocator@U?$_List_node@Ufield_t@gsoner@acl@@PEAX@std@@@std@@QEAA@AEBV01@@Z 000000018002c4a0 f i acl_stdafx.obj
 0001:0002b4c0       ??0?$allocator@U?$_List_node@Ufield_t@gsoner@acl@@PEAX@std@@@std@@QEAA@XZ 000000018002c4c0 f i acl_stdafx.obj
 0001:0002b4d0       ??0?$allocator@U?$_List_node@Uparent_obj_t@gsoner@acl@@PEAX@std@@@std@@QEAA@AEBV01@@Z 000000018002c4d0 f i acl_stdafx.obj
 0001:0002b4f0       ??0?$allocator@U?$_List_node@Uparent_obj_t@gsoner@acl@@PEAX@std@@@std@@QEAA@XZ 000000018002c4f0 f i acl_stdafx.obj
 0001:0002b500       ??0?$allocator@U?$_List_node@V?$basic_string@DU?$char_traits@D@std@@V?$allocator@D@2@@std@@PEAX@std@@@std@@QEAA@AEBV01@@Z 000000018002c500 f i acl_stdafx.obj
 0001:0002b520       ??0?$allocator@U?$_List_node@V?$basic_string@DU?$char_traits@D@std@@V?$allocator@D@2@@std@@PEAX@std@@@std@@QEAA@XZ 000000018002c520 f i acl_stdafx.obj
 0001:0002b530       ??0?$allocator@U?$_List_node@Vstring@acl@@PEAX@std@@@std@@QEAA@AEBV01@@Z 000000018002c530 f i acl_stdafx.obj
 0001:0002b550       ??0?$allocator@U?$_List_node@Vstring@acl@@PEAX@std@@@std@@QEAA@XZ 000000018002c550 f i acl_stdafx.obj
 0001:0002b560       ??0?$allocator@U?$_Tree_node@U?$pair@$$CBV?$basic_string@DU?$char_traits@D@std@@V?$allocator@D@2@@std@@Uobject_t@gsoner@acl@@@std@@PEAX@std@@@std@@QEAA@AEBV01@@Z 000000018002c560 f i acl_stdafx.obj
 0001:0002b580       ??0?$allocator@U?$_Tree_node@U?$pair@$$CBV?$basic_string@DU?$char_traits@D@std@@V?$allocator@D@2@@std@@Uobject_t@gsoner@acl@@@std@@PEAX@std@@@std@@QEAA@XZ 000000018002c580 f i acl_stdafx.obj
 0001:0002b590       ??0?$allocator@U_Container_proxy@std@@@std@@QEAA@XZ 000000018002c590 f i acl_stdafx.obj
 0001:0002b5a0       ??0?$allocator@Vredis_role4slave@acl@@@std@@QEAA@AEBV01@@Z 000000018002c5a0 f i acl_stdafx.obj
 0001:0002b5c0       ??0?$allocator@Vredis_role4slave@acl@@@std@@QEAA@XZ 000000018002c5c0 f i acl_stdafx.obj
 0001:0002b5d0       ??0?$allocator@Vstring@acl@@@std@@QEAA@XZ 000000018002c5d0 f i acl_stdafx.obj
 0001:0002b5e0       ??0?$basic_string@DU?$char_traits@D@std@@V?$allocator@D@2@@std@@QEAA@AEBV01@@Z 000000018002c5e0 f i acl_stdafx.obj
 0001:0002b690       ??0?$basic_string@DU?$char_traits@D@std@@V?$allocator@D@2@@std@@QEAA@PEBD@Z 000000018002c690 f i acl_stdafx.obj
 0001:0002b720       ??0?$list@Ufield_t@gsoner@acl@@V?$allocator@Ufield_t@gsoner@acl@@@std@@@std@@QEAA@AEBV01@@Z 000000018002c720 f i acl_stdafx.obj
 0001:0002b920       ??0?$list@Uparent_obj_t@gsoner@acl@@V?$allocator@Uparent_obj_t@gsoner@acl@@@std@@@std@@QEAA@AEBV01@@Z 000000018002c920 f i acl_stdafx.obj
 0001:0002bb20       ??0?$list@V?$basic_string@DU?$char_traits@D@std@@V?$allocator@D@2@@std@@V?$allocator@V?$basic_string@DU?$char_traits@D@std@@V?$allocator@D@2@@std@@@2@@std@@QEAA@AEBV01@@Z 000000018002cb20 f i acl_stdafx.obj
 0001:0002bd20       ??0?$list@Vstring@acl@@V?$allocator@Vstring@acl@@@std@@@std@@QEAA@AEBV01@@Z 000000018002cd20 f i acl_stdafx.obj
 0001:0002bf20       ??0?$list@Vstring@acl@@V?$allocator@Vstring@acl@@@std@@@std@@QEAA@XZ 000000018002cf20 f i acl_stdafx.obj
 0001:0002bf70       ??0?$map@V?$basic_string@DU?$char_traits@D@std@@V?$allocator@D@2@@std@@Uobject_t@gsoner@acl@@U?$less@V?$basic_string@DU?$char_traits@D@std@@V?$allocator@D@2@@std@@@2@V?$allocator@U?$pair@$$CBV?$basic_string@DU?$char_traits@D@std@@V?$allocator@D@2@@std@@Uobject_t@gsoner@acl@@@std@@@2@@std@@QEAA@AEBV01@@Z 000000018002cf70 f i acl_stdafx.obj
 0001:0002c000       ??0?$pair@$$CBV?$basic_string@DU?$char_traits@D@std@@V?$allocator@D@2@@std@@Uobject_t@gsoner@acl@@@std@@QEAA@AEBU01@@Z 000000018002d000 f i acl_stdafx.obj
 0001:0002c080       ??0?$vector@Vredis_role4slave@acl@@V?$allocator@Vredis_role4slave@acl@@@std@@@std@@QEAA@AEBV01@@Z 000000018002d080 f i acl_stdafx.obj
 0001:0002c1f0       ??0?$vector@Vredis_role4slave@acl@@V?$allocator@Vredis_role4slave@acl@@@std@@@std@@QEAA@XZ 000000018002d1f0 f i acl_stdafx.obj
 0001:0002c240       ??0_Container_proxy@std@@QEAA@XZ 000000018002d240 f i acl_stdafx.obj
 0001:0002c270       ??0_Generic_error_category@std@@QEAA@XZ 000000018002d270 f i acl_stdafx.obj
 0001:0002c2d0       ??0_Ignore@std@@QEAA@XZ    000000018002d2d0 f i acl_stdafx.obj
 0001:0002c2e0       ??0_Iostream_error_category@std@@QEAA@XZ 000000018002d2e0 f i acl_stdafx.obj
 0001:0002c340       ??0_Iterator_base12@std@@QEAA@AEBU01@@Z 000000018002d340 f i acl_stdafx.obj
 0001:0002c3b0       ??0_Iterator_base12@std@@QEAA@XZ 000000018002d3b0 f i acl_stdafx.obj
 0001:0002c3e0       ??0_System_error_category@std@@QEAA@XZ 000000018002d3e0 f i acl_stdafx.obj
 0001:0002c440       ??0aio_accept_callback@acl@@QEAA@XZ 000000018002d440 f i acl_stdafx.obj
 0001:0002c4a0       ??0aio_callback@acl@@QEAA@XZ 000000018002d4a0 f i acl_stdafx.obj
 0001:0002c500       ??0aio_open_callback@acl@@QEAA@XZ 000000018002d500 f i acl_stdafx.obj
 0001:0002c560       ??0aio_timer_reader@acl@@QEAA@XZ 000000018002d560 f i acl_stdafx.obj
 0001:0002c5c0       ??0connect_client@acl@@QEAA@XZ 000000018002d5c0 f i acl_stdafx.obj
 0001:0002c640       ??0connect_guard@acl@@QEAA@AEAVconnect_pool@1@@Z 000000018002d640 f i acl_stdafx.obj
 0001:0002c6d0       ??0db_cursor@acl@@QEAA@XZ  000000018002d6d0 f i acl_stdafx.obj
 0001:0002c730       ??0db_guard@acl@@QEAA@AEAVdb_pool@1@@Z 000000018002d730 f i acl_stdafx.obj
 0001:0002c790       ??0db_query@acl@@QEAA@AEBV01@@Z 000000018002d790 f i acl_stdafx.obj
 0001:0002c7c0       ??0db_query@acl@@QEAA@XZ   000000018002d7c0 f i acl_stdafx.obj
 0001:0002c7f0       ??0disque_node@acl@@QEAA@AEBV01@@Z 000000018002d7f0 f i acl_stdafx.obj
 0001:0002c8b0       ??0disque_node@acl@@QEAA@XZ 000000018002d8b0 f i acl_stdafx.obj
 0001:0002c940       ??0dns_res@acl@@QEAA@AEBV01@@Z 000000018002d940 f i acl_stdafx.obj
 0001:0002c9c0       ??0dns_res@acl@@QEAA@PEBD@Z 000000018002d9c0 f i acl_stdafx.obj
 0001:0002ca40       ??0dns_result_callback@acl@@QEAA@AEBV01@@Z 000000018002da40 f i acl_stdafx.obj
 0001:0002cab0       ??0dns_result_callback@acl@@QEAA@PEBD@Z 000000018002dab0 f i acl_stdafx.obj
 0001:0002cb20       ??0error_category@std@@QEAA@XZ 000000018002db20 f i acl_stdafx.obj
 0001:0002cb50       ??0error_condition@std@@QEAA@HAEBVerror_category@1@@Z 000000018002db50 f i acl_stdafx.obj
 0001:0002cb90       ??0field_t@gsoner@acl@@QEAA@AEBU012@@Z 000000018002db90 f i acl_stdafx.obj
 0001:0002cc30       ??0gsoner@acl@@QEAA@AEBV01@@Z 000000018002dc30 f i acl_stdafx.obj
 0001:0002cf40       ??0http_utils@acl@@QEAA@XZ 000000018002df40 f i acl_stdafx.obj
 0001:0002cf50       ??0ifstream@acl@@QEAA@XZ   000000018002df50 f i acl_stdafx.obj
 0001:0002d040       ??0istream@acl@@QEAA@XZ    000000018002e040 f i acl_stdafx.obj
 0001:0002d0f0       ??0mail_attach@acl@@QEAA@AEBV01@@Z 000000018002e0f0 f i acl_stdafx.obj
 0001:0002d1f0       ??0mime_body@acl@@QEAA@PEBDPEBUMIME_NODE@@_N20J@Z 000000018002e1f0 f i acl_stdafx.obj
 0001:0002d2a0       ??0mime_image@acl@@QEAA@PEBDPEBUMIME_NODE@@_N0J@Z 000000018002e2a0 f i acl_stdafx.obj
 0001:0002d330       ??0noncopyable@acl@@IEAA@XZ 000000018002e330 f i acl_stdafx.obj
 0001:0002d340       ??0object_t@gsoner@acl@@QEAA@AEBU012@@Z 000000018002e340 f i acl_stdafx.obj
 0001:0002d3e0       ??0ostream@acl@@QEAA@XZ    000000018002e3e0 f i acl_stdafx.obj
 0001:0002d4c0       ??0parent_obj_t@gsoner@acl@@QEAA@AEBU012@@Z 000000018002e4c0 f i acl_stdafx.obj
 0001:0002d530       ??0pipe_stream@acl@@QEAA@XZ 000000018002e530 f i acl_stdafx.obj
 0001:0002d590       ??0redis_master@acl@@QEAA@AEBV01@@Z 000000018002e590 f i acl_stdafx.obj
 0001:0002d830       ??0redis_role4master@acl@@QEAA@AEBV01@@Z 000000018002e830 f i acl_stdafx.obj
 0001:0002d8a0       ??0redis_role4master@acl@@QEAA@XZ 000000018002e8a0 f i acl_stdafx.obj
 0001:0002d900       ??0redis_role4slave@acl@@QEAA@AEBV01@@Z 000000018002e900 f i acl_stdafx.obj
 0001:0002d9b0       ??0redis_role4slave@acl@@QEAA@XZ 000000018002e9b0 f i acl_stdafx.obj
 0001:0002da40       ??0redis_slave@acl@@QEAA@AEBV01@@Z 000000018002ea40 f i acl_stdafx.obj
 0001:0002dcf0       ??0session_string@acl@@QEAA@AEBV01@@Z 000000018002ecf0 f i acl_stdafx.obj
 0001:0002dd70       ??0session_string@acl@@QEAA@AEBVstring@1@@Z 000000018002ed70 f i acl_stdafx.obj
 0001:0002dde0       ??0session_string@acl@@QEAA@PEBD@Z 000000018002ede0 f i acl_stdafx.obj
 0001:0002de50       ??0session_string@acl@@QEAA@_K@Z 000000018002ee50 f i acl_stdafx.obj
 0001:0002dec0       ??0stream_hook@acl@@QEAA@XZ 000000018002eec0 f i acl_stdafx.obj
 0001:0002df20       ??0thread_job@acl@@QEAA@XZ 000000018002ef20 f i acl_stdafx.obj
 0001:0002df80       ??0thread_qitem@acl@@QEAA@XZ 000000018002ef80 f i acl_stdafx.obj
 0001:0002dfe0       ??0xml_attr@acl@@IEAA@PEAVxml_node@1@@Z 000000018002efe0 f i acl_stdafx.obj
 0001:0002e050       ??1?$_Iterator012@Ubidirectional_iterator_tag@std@@U?$pair@$$CBV?$basic_string@DU?$char_traits@D@std@@V?$allocator@D@2@@std@@Uobject_t@gsoner@acl@@@2@_JPEBU32@AEBU32@U_Iterator_base12@2@@std@@QEAA@XZ 000000018002f050 f i acl_stdafx.obj
 0001:0002e090       ??1?$_Iterator012@Ubidirectional_iterator_tag@std@@Ufield_t@gsoner@acl@@_JPEBU345@AEBU345@U_Iterator_base12@2@@std@@QEAA@XZ 000000018002f090 f i acl_stdafx.obj
 0001:0002e0d0       ??1?$_Iterator012@Ubidirectional_iterator_tag@std@@Uparent_obj_t@gsoner@acl@@_JPEBU345@AEBU345@U_Iterator_base12@2@@std@@QEAA@XZ 000000018002f0d0 f i acl_stdafx.obj
 0001:0002e110       ??1?$_Iterator012@Ubidirectional_iterator_tag@std@@V?$basic_string@DU?$char_traits@D@std@@V?$allocator@D@2@@2@_JPEBV32@AEBV32@U_Iterator_base12@2@@std@@QEAA@XZ 000000018002f110 f i acl_stdafx.obj
 0001:0002e150       ??1?$_Iterator012@Ubidirectional_iterator_tag@std@@Vstring@acl@@_JPEBV34@AEBV34@U_Iterator_base12@2@@std@@QEAA@XZ 000000018002f150 f i acl_stdafx.obj
 0001:0002e190       ??1?$_Iterator012@Urandom_access_iterator_tag@std@@Vredis_role4slave@acl@@_JPEBV34@AEBV34@U_Iterator_base12@2@@std@@QEAA@XZ 000000018002f190 f i acl_stdafx.obj
 0001:0002e1d0       ??1?$_List_alloc@$0A@U?$_List_base_types@Ufield_t@gsoner@acl@@V?$allocator@Ufield_t@gsoner@acl@@@std@@@std@@@std@@QEAA@XZ 000000018002f1d0 f i acl_stdafx.obj
 0001:0002e230       ??1?$_List_alloc@$0A@U?$_List_base_types@Uparent_obj_t@gsoner@acl@@V?$allocator@Uparent_obj_t@gsoner@acl@@@std@@@std@@@std@@QEAA@XZ 000000018002f230 f i acl_stdafx.obj
 0001:0002e290       ??1?$_List_alloc@$0A@U?$_List_base_types@V?$basic_string@DU?$char_traits@D@std@@V?$allocator@D@2@@std@@V?$allocator@V?$basic_string@DU?$char_traits@D@std@@V?$allocator@D@2@@std@@@2@@std@@@std@@QEAA@XZ 000000018002f290 f i acl_stdafx.obj
 0001:0002e2f0       ??1?$_List_alloc@$0A@U?$_List_base_types@Vstring@acl@@V?$allocator@Vstring@acl@@@std@@@std@@@std@@QEAA@XZ 000000018002f2f0 f i acl_stdafx.obj
 0001:0002e350       ??1?$_List_buy@Ufield_t@gsoner@acl@@V?$allocator@Ufield_t@gsoner@acl@@@std@@@std@@QEAA@XZ 000000018002f350 f i acl_stdafx.obj
 0001:0002e390       ??1?$_List_buy@Uparent_obj_t@gsoner@acl@@V?$allocator@Uparent_obj_t@gsoner@acl@@@std@@@std@@QEAA@XZ 000000018002f390 f i acl_stdafx.obj
 0001:0002e3d0       ??1?$_List_buy@V?$basic_string@DU?$char_traits@D@std@@V?$allocator@D@2@@std@@V?$allocator@V?$basic_string@DU?$char_traits@D@std@@V?$allocator@D@2@@std@@@2@@std@@QEAA@XZ 000000018002f3d0 f i acl_stdafx.obj
 0001:0002e410       ??1?$_List_buy@Vstring@acl@@V?$allocator@Vstring@acl@@@std@@@std@@QEAA@XZ 000000018002f410 f i acl_stdafx.obj
 0001:0002e450       ??1?$_List_const_iterator@V?$_List_val@U?$_List_simple_types@Ufield_t@gsoner@acl@@@std@@@std@@@std@@QEAA@XZ 000000018002f450 f i acl_stdafx.obj
 0001:0002e490       ??1?$_List_const_iterator@V?$_List_val@U?$_List_simple_types@Uparent_obj_t@gsoner@acl@@@std@@@std@@@std@@QEAA@XZ 000000018002f490 f i acl_stdafx.obj
 0001:0002e4d0       ??1?$_List_const_iterator@V?$_List_val@U?$_List_simple_types@V?$basic_string@DU?$char_traits@D@std@@V?$allocator@D@2@@std@@@std@@@std@@@std@@QEAA@XZ 000000018002f4d0 f i acl_stdafx.obj
 0001:0002e510       ??1?$_List_const_iterator@V?$_List_val@U?$_List_simple_types@Vstring@acl@@@std@@@std@@@std@@QEAA@XZ 000000018002f510 f i acl_stdafx.obj
 0001:0002e550       ??1?$_List_iterator@V?$_List_val@U?$_List_simple_types@Ufield_t@gsoner@acl@@@std@@@std@@@std@@QEAA@XZ 000000018002f550 f i acl_stdafx.obj
 0001:0002e590       ??1?$_List_iterator@V?$_List_val@U?$_List_simple_types@Uparent_obj_t@gsoner@acl@@@std@@@std@@@std@@QEAA@XZ 000000018002f590 f i acl_stdafx.obj
 0001:0002e5d0       ??1?$_List_iterator@V?$_List_val@U?$_List_simple_types@V?$basic_string@DU?$char_traits@D@std@@V?$allocator@D@2@@std@@@std@@@std@@@std@@QEAA@XZ 000000018002f5d0 f i acl_stdafx.obj
 0001:0002e610       ??1?$_List_iterator@V?$_List_val@U?$_List_simple_types@Vstring@acl@@@std@@@std@@@std@@QEAA@XZ 000000018002f610 f i acl_stdafx.obj
 0001:0002e650       ??1?$_List_unchecked_const_iterator@V?$_List_val@U?$_List_simple_types@Ufield_t@gsoner@acl@@@std@@@std@@U_Iterator_base12@2@@std@@QEAA@XZ 000000018002f650 f i acl_stdafx.obj
 0001:0002e690       ??1?$_List_unchecked_const_iterator@V?$_List_val@U?$_List_simple_types@Uparent_obj_t@gsoner@acl@@@std@@@std@@U_Iterator_base12@2@@std@@QEAA@XZ 000000018002f690 f i acl_stdafx.obj
 0001:0002e6d0       ??1?$_List_unchecked_const_iterator@V?$_List_val@U?$_List_simple_types@V?$basic_string@DU?$char_traits@D@std@@V?$allocator@D@2@@std@@@std@@@std@@U_Iterator_base12@2@@std@@QEAA@XZ 000000018002f6d0 f i acl_stdafx.obj
 0001:0002e710       ??1?$_List_unchecked_const_iterator@V?$_List_val@U?$_List_simple_types@Vstring@acl@@@std@@@std@@U_Iterator_base12@2@@std@@QEAA@XZ 000000018002f710 f i acl_stdafx.obj
 0001:0002e750       ??1?$_List_val@U?$_List_simple_types@Ufield_t@gsoner@acl@@@std@@@std@@QEAA@XZ 000000018002f750 f i acl_stdafx.obj
 0001:0002e790       ??1?$_List_val@U?$_List_simple_types@Uparent_obj_t@gsoner@acl@@@std@@@std@@QEAA@XZ 000000018002f790 f i acl_stdafx.obj
 0001:0002e7d0       ??1?$_List_val@U?$_List_simple_types@V?$basic_string@DU?$char_traits@D@std@@V?$allocator@D@2@@std@@@std@@@std@@QEAA@XZ 000000018002f7d0 f i acl_stdafx.obj
 0001:0002e810       ??1?$_List_val@U?$_List_simple_types@Vstring@acl@@@std@@@std@@QEAA@XZ 000000018002f810 f i acl_stdafx.obj
 0001:0002e850       ??1?$_String_alloc@$0A@U?$_String_base_types@DV?$allocator@D@std@@@std@@@std@@QEAA@XZ 000000018002f850 f i acl_stdafx.obj
 0001:0002e8a0       ??1?$_String_val@U?$_Simple_types@D@std@@@std@@QEAA@XZ 000000018002f8a0 f i acl_stdafx.obj
 0001:0002e8e0       ??1?$_Tree@V?$_Tmap_traits@V?$basic_string@DU?$char_traits@D@std@@V?$allocator@D@2@@std@@Uobject_t@gsoner@acl@@U?$less@V?$basic_string@DU?$char_traits@D@std@@V?$allocator@D@2@@std@@@2@V?$allocator@U?$pair@$$CBV?$basic_string@DU?$char_traits@D@std@@V?$allocator@D@2@@std@@Uobject_t@gsoner@acl@@@std@@@2@$0A@@std@@@std@@QEAA@XZ 000000018002f8e0 f i acl_stdafx.obj
 0001:0002e930       ??1?$_Tree_alloc@$0A@U?$_Tree_base_types@U?$pair@$$CBV?$basic_string@DU?$char_traits@D@std@@V?$allocator@D@2@@std@@Uobject_t@gsoner@acl@@@std@@V?$allocator@U?$pair@$$CBV?$basic_string@DU?$char_traits@D@std@@V?$allocator@D@2@@std@@Uobject_t@gsoner@acl@@@std@@@2@@std@@@std@@QEAA@XZ 000000018002f930 f i acl_stdafx.obj
 0001:0002e990       ??1?$_Tree_buy@U?$pair@$$CBV?$basic_string@DU?$char_traits@D@std@@V?$allocator@D@2@@std@@Uobject_t@gsoner@acl@@@std@@V?$allocator@U?$pair@$$CBV?$basic_string@DU?$char_traits@D@std@@V?$allocator@D@2@@std@@Uobject_t@gsoner@acl@@@std@@@2@@std@@QEAA@XZ 000000018002f990 f i acl_stdafx.obj
 0001:0002e9d0       ??1?$_Tree_comp@$0A@V?$_Tmap_traits@V?$basic_string@DU?$char_traits@D@std@@V?$allocator@D@2@@std@@Uobject_t@gsoner@acl@@U?$less@V?$basic_string@DU?$char_traits@D@std@@V?$allocator@D@2@@std@@@2@V?$allocator@U?$pair@$$CBV?$basic_string@DU?$char_traits@D@std@@V?$allocator@D@2@@std@@Uobject_t@gsoner@acl@@@std@@@2@$0A@@std@@@std@@QEAA@XZ 000000018002f9d0 f i acl_stdafx.obj
 0001:0002ea10       ??1?$_Tree_const_iterator@V?$_Tree_val@U?$_Tree_simple_types@U?$pair@$$CBV?$basic_string@DU?$char_traits@D@std@@V?$allocator@D@2@@std@@Uobject_t@gsoner@acl@@@std@@@std@@@std@@@std@@QEAA@XZ 000000018002fa10 f i acl_stdafx.obj
 0001:0002ea50       ??1?$_Tree_iterator@V?$_Tree_val@U?$_Tree_simple_types@U?$pair@$$CBV?$basic_string@DU?$char_traits@D@std@@V?$allocator@D@2@@std@@Uobject_t@gsoner@acl@@@std@@@std@@@std@@@std@@QEAA@XZ 000000018002fa50 f i acl_stdafx.obj
 0001:0002ea90       ??1?$_Tree_unchecked_const_iterator@V?$_Tree_val@U?$_Tree_simple_types@U?$pair@$$CBV?$basic_string@DU?$char_traits@D@std@@V?$allocator@D@2@@std@@Uobject_t@gsoner@acl@@@std@@@std@@@std@@U_Iterator_base12@2@@std@@QEAA@XZ 000000018002fa90 f i acl_stdafx.obj
 0001:0002ead0       ??1?$_Tree_val@U?$_Tree_simple_types@U?$pair@$$CBV?$basic_string@DU?$char_traits@D@std@@V?$allocator@D@2@@std@@Uobject_t@gsoner@acl@@@std@@@std@@@std@@QEAA@XZ 000000018002fad0 f i acl_stdafx.obj
 0001:0002eb10       ??1?$_Vector_alloc@$0A@U?$_Vec_base_types@Vredis_role4slave@acl@@V?$allocator@Vredis_role4slave@acl@@@std@@@std@@@std@@QEAA@XZ 000000018002fb10 f i acl_stdafx.obj
 0001:0002eb60       ??1?$_Vector_alloc@$0A@U?$_Vec_base_types@Vstring@acl@@V?$allocator@Vstring@acl@@@std@@@std@@@std@@QEAA@XZ 000000018002fb60 f i acl_stdafx.obj
 0001:0002ebb0       ??1?$_Vector_const_iterator@V?$_Vector_val@U?$_Simple_types@Vredis_role4slave@acl@@@std@@@std@@@std@@QEAA@XZ 000000018002fbb0 f i acl_stdafx.obj
 0001:0002ebf0       ??1?$_Vector_val@U?$_Simple_types@Vredis_role4slave@acl@@@std@@@std@@QEAA@XZ 000000018002fbf0 f i acl_stdafx.obj
 0001:0002ec30       ??1?$_Vector_val@U?$_Simple_types@Vstring@acl@@@std@@@std@@QEAA@XZ 000000018002fc30 f i acl_stdafx.obj
 0001:0002ec70       ??1?$atomic@_J@acl@@UEAA@XZ 000000018002fc70 f i acl_stdafx.obj
 0001:0002ecd0       ??1?$basic_string@DU?$char_traits@D@std@@V?$allocator@D@2@@std@@QEAA@XZ 000000018002fcd0 f i acl_stdafx.obj
 0001:0002ed20       ??1?$list@Ufield_t@gsoner@acl@@V?$allocator@Ufield_t@gsoner@acl@@@std@@@std@@QEAA@XZ 000000018002fd20 f i acl_stdafx.obj
 0001:0002ed70       ??1?$list@Uparent_obj_t@gsoner@acl@@V?$allocator@Uparent_obj_t@gsoner@acl@@@std@@@std@@QEAA@XZ 000000018002fd70 f i acl_stdafx.obj
 0001:0002edc0       ??1?$list@V?$basic_string@DU?$char_traits@D@std@@V?$allocator@D@2@@std@@V?$allocator@V?$basic_string@DU?$char_traits@D@std@@V?$allocator@D@2@@std@@@2@@std@@QEAA@XZ 000000018002fdc0 f i acl_stdafx.obj
 0001:0002ee10       ??1?$list@Vstring@acl@@V?$allocator@Vstring@acl@@@std@@@std@@QEAA@XZ 000000018002fe10 f i acl_stdafx.obj
 0001:0002ee60       ??1?$map@V?$basic_string@DU?$char_traits@D@std@@V?$allocator@D@2@@std@@Uobject_t@gsoner@acl@@U?$less@V?$basic_string@DU?$char_traits@D@std@@V?$allocator@D@2@@std@@@2@V?$allocator@U?$pair@$$CBV?$basic_string@DU?$char_traits@D@std@@V?$allocator@D@2@@std@@Uobject_t@gsoner@acl@@@std@@@2@@std@@QEAA@XZ 000000018002fe60 f i acl_stdafx.obj
 0001:0002eea0       ??1?$pair@$$CBV?$basic_string@DU?$char_traits@D@std@@V?$allocator@D@2@@std@@Uobject_t@gsoner@acl@@@std@@QEAA@XZ 000000018002fea0 f i acl_stdafx.obj
 0001:0002ef00       ??1?$vector@Vredis_role4slave@acl@@V?$allocator@Vredis_role4slave@acl@@@std@@@std@@QEAA@XZ 000000018002ff00 f i acl_stdafx.obj
 0001:0002ef50       ??1?$vector@Vstring@acl@@V?$allocator@Vstring@acl@@@std@@@std@@QEAA@XZ 000000018002ff50 f i acl_stdafx.obj
 0001:0002efa0       ??1_Generic_error_category@std@@UEAA@XZ 000000018002ffa0 f i acl_stdafx.obj
 0001:0002efe0       ??1_Iostream_error_category@std@@UEAA@XZ 000000018002ffe0 f i acl_stdafx.obj
 0001:0002f020       ??1_Iterator_base12@std@@QEAA@XZ 0000000180030020 f i acl_stdafx.obj
 0001:0002f090       ??1_System_error_category@std@@UEAA@XZ 0000000180030090 f i acl_stdafx.obj
 0001:0002f0d0       ??1aio_accept_callback@acl@@UEAA@XZ 00000001800300d0 f i acl_stdafx.obj
 0001:0002f120       ??1aio_callback@acl@@UEAA@XZ 0000000180030120 f i acl_stdafx.obj
 0001:0002f180       ??1aio_open_callback@acl@@UEAA@XZ 0000000180030180 f i acl_stdafx.obj
 0001:0002f1d0       ??1aio_timer_reader@acl@@MEAA@XZ 00000001800301d0 f i acl_stdafx.obj
 0001:0002f220       ??1atomic_long@acl@@UEAA@XZ 0000000180030220 f i acl_stdafx.obj
 0001:0002f270       ??1check_client@acl@@EEAA@XZ 0000000180030270 f i acl_stdafx.obj
 0001:0002f2e0       ??1connect_client@acl@@UEAA@XZ 00000001800302e0 f i acl_stdafx.obj
 0001:0002f340       ??1connect_guard@acl@@UEAA@XZ 0000000180030340 f i acl_stdafx.obj
 0001:0002f3e0       ??1db_cursor@acl@@UEAA@XZ  00000001800303e0 f i acl_stdafx.obj
 0001:0002f440       ??1db_pool@acl@@UEAA@XZ    0000000180030440 f i acl_stdafx.obj
 0001:0002f490       ??1db_query@acl@@UEAA@XZ   0000000180030490 f i acl_stdafx.obj
 0001:0002f4b0       ??1dbuf_obj@acl@@UEAA@XZ   00000001800304b0 f i acl_stdafx.obj
 0001:0002f510       ??1disque_node@acl@@QEAA@XZ 0000000180030510 f i acl_stdafx.obj
 0001:0002f570       ??1dns_res@acl@@QEAA@XZ    0000000180030570 f i acl_stdafx.obj
 0001:0002f5e0       ??1dns_result_callback@acl@@MEAA@XZ 00000001800305e0 f i acl_stdafx.obj
 0001:0002f640       ??1error_category@std@@UEAA@XZ 0000000180030640 f i acl_stdafx.obj
 0001:0002f660       ??1gsoner@acl@@QEAA@XZ     0000000180030660 f i acl_stdafx.obj
 0001:0002f7c0       ??1http_utils@acl@@QEAA@XZ 00000001800307c0 f i acl_stdafx.obj
 0001:0002f7d0       ??1ifstream@acl@@UEAA@XZ   00000001800307d0 f i acl_stdafx.obj
 0001:0002f850       ??1istream@acl@@UEAA@XZ    0000000180030850 f i acl_stdafx.obj
 0001:0002f880       ??1mime_body@acl@@UEAA@XZ  0000000180030880 f i acl_stdafx.obj
 0001:0002f8d0       ??1mime_image@acl@@UEAA@XZ 00000001800308d0 f i acl_stdafx.obj
 0001:0002f920       ??1noncopyable@acl@@IEAA@XZ 0000000180030920 f i acl_stdafx.obj
 0001:0002f930       ??1object_t@gsoner@acl@@QEAA@XZ 0000000180030930 f i acl_stdafx.obj
 0001:0002f9a0       ??1ostream@acl@@UEAA@XZ    00000001800309a0 f i acl_stdafx.obj
 0001:0002fa20       ??1parent_obj_t@gsoner@acl@@QEAA@XZ 0000000180030a20 f i acl_stdafx.obj
 0001:0002fa70       ??1pipe_stream@acl@@UEAA@XZ 0000000180030a70 f i acl_stdafx.obj
 0001:0002fad0       ??1redis@acl@@UEAA@XZ      0000000180030ad0 f i acl_stdafx.obj
 0001:0002fca0       ??1redis_master@acl@@QEAA@XZ 0000000180030ca0 f i acl_stdafx.obj
 0001:0002fd50       ??1redis_role4master@acl@@QEAA@XZ 0000000180030d50 f i acl_stdafx.obj
 0001:0002fda0       ??1redis_role4slave@acl@@QEAA@XZ 0000000180030da0 f i acl_stdafx.obj
 0001:0002fe00       ??1redis_role@acl@@UEAA@XZ 0000000180030e00 f i acl_stdafx.obj
 0001:0002fed0       ??1redis_slave@acl@@QEAA@XZ 0000000180030ed0 f i acl_stdafx.obj
 0001:0002ffb0       ??1rpc_service@acl@@UEAA@XZ 0000000180030fb0 f i acl_stdafx.obj
 0001:00030000       ??1session_string@acl@@UEAA@XZ 0000000180031000 f i acl_stdafx.obj
 0001:00030050       ??1stream_hook@acl@@MEAA@XZ 0000000180031050 f i acl_stdafx.obj
 0001:000300b0       ??1tcp_reader@acl@@QEAA@XZ 00000001800310b0 f i acl_stdafx.obj
 0001:000300f0       ??1thread_job@acl@@UEAA@XZ 00000001800310f0 f i acl_stdafx.obj
 0001:00030150       ??1thread_qitem@acl@@UEAA@XZ 0000000180031150 f i acl_stdafx.obj
 0001:000301b0       ??1xml1_attr@acl@@MEAA@XZ  00000001800311b0 f i acl_stdafx.obj
 0001:00030200       ??1xml2_attr@acl@@MEAA@XZ  0000000180031200 f i acl_stdafx.obj
 0001:00030250       ??1xml_attr@acl@@MEAA@XZ   0000000180031250 f i acl_stdafx.obj
 0001:000302a0       ??2@YAPEAX_KPEAX@Z         00000001800312a0 f i acl_stdafx.obj
 0001:000302c0       ??3@YAXPEAX0@Z             00000001800312c0 f i acl_stdafx.obj
 0001:000302d0       ??4?$_Iterator012@Ubidirectional_iterator_tag@std@@Ufield_t@gsoner@acl@@_JPEBU345@AEBU345@U_Iterator_base12@2@@std@@QEAAAEAU01@AEBU01@@Z 00000001800312d0 f i acl_stdafx.obj
 0001:00030320       ??4?$_Iterator012@Ubidirectional_iterator_tag@std@@Uparent_obj_t@gsoner@acl@@_JPEBU345@AEBU345@U_Iterator_base12@2@@std@@QEAAAEAU01@AEBU01@@Z 0000000180031320 f i acl_stdafx.obj
 0001:00030370       ??4?$_Iterator012@Ubidirectional_iterator_tag@std@@V?$basic_string@DU?$char_traits@D@std@@V?$allocator@D@2@@2@_JPEBV32@AEBV32@U_Iterator_base12@2@@std@@QEAAAEAU01@AEBU01@@Z 0000000180031370 f i acl_stdafx.obj
 0001:000303c0       ??4?$_Iterator012@Ubidirectional_iterator_tag@std@@Vstring@acl@@_JPEBV34@AEBV34@U_Iterator_base12@2@@std@@QEAAAEAU01@AEBU01@@Z 00000001800313c0 f i acl_stdafx.obj
 0001:00030410       ??4?$_List_const_iterator@V?$_List_val@U?$_List_simple_types@Ufield_t@gsoner@acl@@@std@@@std@@@std@@QEAAAEAV01@AEBV01@@Z 0000000180031410 f i acl_stdafx.obj
 0001:00030460       ??4?$_List_const_iterator@V?$_List_val@U?$_List_simple_types@Uparent_obj_t@gsoner@acl@@@std@@@std@@@std@@QEAAAEAV01@AEBV01@@Z 0000000180031460 f i acl_stdafx.obj
 0001:000304b0       ??4?$_List_const_iterator@V?$_List_val@U?$_List_simple_types@V?$basic_string@DU?$char_traits@D@std@@V?$allocator@D@2@@std@@@std@@@std@@@std@@QEAAAEAV01@AEBV01@@Z 00000001800314b0 f i acl_stdafx.obj
 0001:00030500       ??4?$_List_const_iterator@V?$_List_val@U?$_List_simple_types@Vstring@acl@@@std@@@std@@@std@@QEAAAEAV01@AEBV01@@Z 0000000180031500 f i acl_stdafx.obj
 0001:00030550       ??4?$_List_unchecked_const_iterator@V?$_List_val@U?$_List_simple_types@Ufield_t@gsoner@acl@@@std@@@std@@U_Iterator_base12@2@@std@@QEAAAEAV01@AEBV01@@Z 0000000180031550 f i acl_stdafx.obj
 0001:000305c0       ??4?$_List_unchecked_const_iterator@V?$_List_val@U?$_List_simple_types@Uparent_obj_t@gsoner@acl@@@std@@@std@@U_Iterator_base12@2@@std@@QEAAAEAV01@AEBV01@@Z 00000001800315c0 f i acl_stdafx.obj
 0001:00030630       ??4?$_List_unchecked_const_iterator@V?$_List_val@U?$_List_simple_types@V?$basic_string@DU?$char_traits@D@std@@V?$allocator@D@2@@std@@@std@@@std@@U_Iterator_base12@2@@std@@QEAAAEAV01@AEBV01@@Z 0000000180031630 f i acl_stdafx.obj
 0001:000306a0       ??4?$_List_unchecked_const_iterator@V?$_List_val@U?$_List_simple_types@Vstring@acl@@@std@@@std@@U_Iterator_base12@2@@std@@QEAAAEAV01@AEBV01@@Z 00000001800316a0 f i acl_stdafx.obj
 0001:00030710       ??4?$_Tree@V?$_Tmap_traits@V?$basic_string@DU?$char_traits@D@std@@V?$allocator@D@2@@std@@Uobject_t@gsoner@acl@@U?$less@V?$basic_string@DU?$char_traits@D@std@@V?$allocator@D@2@@std@@@2@V?$allocator@U?$pair@$$CBV?$basic_string@DU?$char_traits@D@std@@V?$allocator@D@2@@std@@Uobject_t@gsoner@acl@@@std@@@2@$0A@@std@@@std@@QEAAAEAV01@AEBV01@@Z 0000000180031710 f i acl_stdafx.obj
 0001:00030830       ??4?$atomic@_J@acl@@QEAAAEAV01@AEBV01@@Z 0000000180031830 f i acl_stdafx.obj
 0001:00030860       ??4?$basic_string@DU?$char_traits@D@std@@V?$allocator@D@2@@std@@QEAAAEAV01@AEBV01@@Z 0000000180031860 f i acl_stdafx.obj
 0001:00030950       ??4?$list@Ufield_t@gsoner@acl@@V?$allocator@Ufield_t@gsoner@acl@@@std@@@std@@QEAAAEAV01@AEBV01@@Z 0000000180031950 f i acl_stdafx.obj
 0001:00030ac0       ??4?$list@Uparent_obj_t@gsoner@acl@@V?$allocator@Uparent_obj_t@gsoner@acl@@@std@@@std@@QEAAAEAV01@AEBV01@@Z 0000000180031ac0 f i acl_stdafx.obj
 0001:00030c30       ??4?$list@V?$basic_string@DU?$char_traits@D@std@@V?$allocator@D@2@@std@@V?$allocator@V?$basic_string@DU?$char_traits@D@std@@V?$allocator@D@2@@std@@@2@@std@@QEAAAEAV01@AEBV01@@Z 0000000180031c30 f i acl_stdafx.obj
 0001:00030da0       ??4?$list@Vstring@acl@@V?$allocator@Vstring@acl@@@std@@@std@@QEAAAEAV01@AEBV01@@Z 0000000180031da0 f i acl_stdafx.obj
 0001:00030f10       ??4?$map@V?$basic_string@DU?$char_traits@D@std@@V?$allocator@D@2@@std@@Uobject_t@gsoner@acl@@U?$less@V?$basic_string@DU?$char_traits@D@std@@V?$allocator@D@2@@std@@@2@V?$allocator@U?$pair@$$CBV?$basic_string@DU?$char_traits@D@std@@V?$allocator@D@2@@std@@Uobject_t@gsoner@acl@@@std@@@2@@std@@QEAAAEAV01@AEBV01@@Z 0000000180031f10 f i acl_stdafx.obj
 0001:00030f60       ??4?$vector@PEAVredis_slot@acl@@V?$allocator@PEAVredis_slot@acl@@@std@@@std@@QEAAAEAV01@AEBV01@@Z 0000000180031f60 f i acl_stdafx.obj
 0001:00031370       ??4?$vector@Vredis_role4slave@acl@@V?$allocator@Vredis_role4slave@acl@@@std@@@std@@QEAAAEAV01@AEBV01@@Z 0000000180032370 f i acl_stdafx.obj
 0001:00031790       ??4_Iterator_base12@std@@QEAAAEAU01@AEBU01@@Z 0000000180032790 f i acl_stdafx.obj
 0001:00031870       ??4atomic_long@acl@@QEAAXAEBV01@@Z 0000000180032870 f i acl_stdafx.obj
 0001:000318c0       ??4atomic_long@acl@@QEAAX_J@Z 00000001800328c0 f i acl_stdafx.obj
 0001:00031910       ??4db_query@acl@@QEAAAEAV01@AEBV01@@Z 0000000180032910 f i acl_stdafx.obj
 0001:00031930       ??4dbuf_guard@acl@@QEAAAEAV01@AEBV01@@Z 0000000180032930 f i acl_stdafx.obj
 0001:00031960       ??4dbuf_pool@acl@@QEAAAEAV01@AEBV01@@Z 0000000180032960 f i acl_stdafx.obj
 0001:00031990       ??4disque_node@acl@@QEAAAEAV01@AEBV01@@Z 0000000180032990 f i acl_stdafx.obj
 0001:00031a40       ??4dns_res@acl@@QEAAAEAV01@AEBV01@@Z 0000000180032a40 f i acl_stdafx.obj
 0001:00031ab0       ??4dns_result_callback@acl@@QEAAAEAV01@AEBV01@@Z 0000000180032ab0 f i acl_stdafx.obj
 0001:00031b10       ??4geo_member@acl@@QEAAAEAV01@AEBV01@@Z 0000000180032b10 f i acl_stdafx.obj
 0001:00031bd0       ??4gsoner@acl@@QEAAAEAV01@AEBV01@@Z 0000000180032bd0 f i acl_stdafx.obj
 0001:00031ed0       ??4hserror@acl@@QEAAAEAV01@AEBV01@@Z 0000000180032ed0 f i acl_stdafx.obj
 0001:00031ef0       ??4http_utils@acl@@QEAAAEAV01@AEBV01@@Z 0000000180032ef0 f i acl_stdafx.obj
 0001:00031f10       ??4log@acl@@QEAAAEAV01@AEBV01@@Z 0000000180032f10 f i acl_stdafx.obj
 0001:00031f30       ??4mail_attach@acl@@QEAAAEAV01@AEBV01@@Z 0000000180032f30 f i acl_stdafx.obj
 0001:00032020       ??4mysql_conf@acl@@QEAAAEAV01@AEBV01@@Z 0000000180033020 f i acl_stdafx.obj
 0001:00032050       ??4object_t@gsoner@acl@@QEAAAEAU012@AEBU012@@Z 0000000180033050 f i acl_stdafx.obj
 0001:000320f0       ??4pgsql_conf@acl@@QEAAAEAV01@AEBV01@@Z 00000001800330f0 f i acl_stdafx.obj
 0001:00032120       ??4redis_master@acl@@QEAAAEAV01@AEBV01@@Z 0000000180033120 f i acl_stdafx.obj
 0001:000323b0       ??4redis_role4master@acl@@QEAAAEAV01@AEBV01@@Z 00000001800333b0 f i acl_stdafx.obj
 0001:00032420       ??4redis_role4slave@acl@@QEAAAEAV01@AEBV01@@Z 0000000180033420 f i acl_stdafx.obj
 0001:000324c0       ??4redis_slave@acl@@QEAAAEAV01@AEBV01@@Z 00000001800334c0 f i acl_stdafx.obj
 0001:00032760       ??4redis_slot@acl@@QEAAAEAV01@AEBV01@@Z 0000000180033760 f i acl_stdafx.obj
 0001:00032860       ??4session_string@acl@@QEAAAEAV01@AEBV01@@Z 0000000180033860 f i acl_stdafx.obj
 0001:000328c0       ??8?$_List_const_iterator@V?$_List_val@U?$_List_simple_types@Ufield_t@gsoner@acl@@@std@@@std@@@std@@QEBA_NAEBV01@@Z 00000001800338c0 f i acl_stdafx.obj
 0001:00032a30       ??8?$_List_const_iterator@V?$_List_val@U?$_List_simple_types@Uparent_obj_t@gsoner@acl@@@std@@@std@@@std@@QEBA_NAEBV01@@Z 0000000180033a30 f i acl_stdafx.obj
 0001:00032ba0       ??8?$_List_const_iterator@V?$_List_val@U?$_List_simple_types@V?$basic_string@DU?$char_traits@D@std@@V?$allocator@D@2@@std@@@std@@@std@@@std@@QEBA_NAEBV01@@Z 0000000180033ba0 f i acl_stdafx.obj
 0001:00032d10       ??8?$_List_const_iterator@V?$_List_val@U?$_List_simple_types@Vstring@acl@@@std@@@std@@@std@@QEBA_NAEBV01@@Z 0000000180033d10 f i acl_stdafx.obj
 0001:00032e80       ??8?$_Tree_const_iterator@V?$_Tree_val@U?$_Tree_simple_types@U?$pair@$$CBV?$basic_string@DU?$char_traits@D@std@@V?$allocator@D@2@@std@@Uobject_t@gsoner@acl@@@std@@@std@@@std@@@std@@QEBA_NAEBV01@@Z 0000000180033e80 f i acl_stdafx.obj
 0001:00032ff0       ??8error_category@std@@QEBA_NAEBV01@@Z 0000000180033ff0 f i acl_stdafx.obj
 0001:00033050       ??8error_condition@std@@QEBA_NAEBV01@@Z 0000000180034050 f i acl_stdafx.obj
 0001:00033110       ??9?$_List_const_iterator@V?$_List_val@U?$_List_simple_types@Ufield_t@gsoner@acl@@@std@@@std@@@std@@QEBA_NAEBV01@@Z 0000000180034110 f i acl_stdafx.obj
 0001:00033180       ??9?$_List_const_iterator@V?$_List_val@U?$_List_simple_types@Uparent_obj_t@gsoner@acl@@@std@@@std@@@std@@QEBA_NAEBV01@@Z 0000000180034180 f i acl_stdafx.obj
 0001:000331f0       ??9?$_List_const_iterator@V?$_List_val@U?$_List_simple_types@V?$basic_string@DU?$char_traits@D@std@@V?$allocator@D@2@@std@@@std@@@std@@@std@@QEBA_NAEBV01@@Z 00000001800341f0 f i acl_stdafx.obj
 0001:00033260       ??9?$_List_const_iterator@V?$_List_val@U?$_List_simple_types@Vstring@acl@@@std@@@std@@@std@@QEBA_NAEBV01@@Z 0000000180034260 f i acl_stdafx.obj
 0001:000332d0       ??9?$_Tree_const_iterator@V?$_Tree_val@U?$_Tree_simple_types@U?$pair@$$CBV?$basic_string@DU?$char_traits@D@std@@V?$allocator@D@2@@std@@Uobject_t@gsoner@acl@@@std@@@std@@@std@@@std@@QEBA_NAEBV01@@Z 00000001800342d0 f i acl_stdafx.obj
 0001:00033340       ??Batomic_long@acl@@QEBA_JXZ 0000000180034340 f i acl_stdafx.obj
 0001:00033360       ??D?$_List_const_iterator@V?$_List_val@U?$_List_simple_types@Ufield_t@gsoner@acl@@@std@@@std@@@std@@QEBAAEBUfield_t@gsoner@acl@@XZ 0000000180034360 f i acl_stdafx.obj
 0001:000334a0       ??D?$_List_const_iterator@V?$_List_val@U?$_List_simple_types@Uparent_obj_t@gsoner@acl@@@std@@@std@@@std@@QEBAAEBUparent_obj_t@gsoner@acl@@XZ 00000001800344a0 f i acl_stdafx.obj
 0001:000335e0       ??D?$_List_const_iterator@V?$_List_val@U?$_List_simple_types@V?$basic_string@DU?$char_traits@D@std@@V?$allocator@D@2@@std@@@std@@@std@@@std@@QEBAAEBV?$basic_string@DU?$char_traits@D@std@@V?$allocator@D@2@@1@XZ 00000001800345e0 f i acl_stdafx.obj
 0001:00033720       ??D?$_List_const_iterator@V?$_List_val@U?$_List_simple_types@Vstring@acl@@@std@@@std@@@std@@QEBAAEBVstring@acl@@XZ 0000000180034720 f i acl_stdafx.obj
 0001:00033860       ??E?$_List_const_iterator@V?$_List_val@U?$_List_simple_types@Ufield_t@gsoner@acl@@@std@@@std@@@std@@QEAA?AV01@H@Z 0000000180034860 f i acl_stdafx.obj
 0001:00033920       ??E?$_List_const_iterator@V?$_List_val@U?$_List_simple_types@Ufield_t@gsoner@acl@@@std@@@std@@@std@@QEAAAEAV01@XZ 0000000180034920 f i acl_stdafx.obj
 0001:00033a70       ??E?$_List_const_iterator@V?$_List_val@U?$_List_simple_types@Uparent_obj_t@gsoner@acl@@@std@@@std@@@std@@QEAA?AV01@H@Z 0000000180034a70 f i acl_stdafx.obj
 0001:00033b30       ??E?$_List_const_iterator@V?$_List_val@U?$_List_simple_types@Uparent_obj_t@gsoner@acl@@@std@@@std@@@std@@QEAAAEAV01@XZ 0000000180034b30 f i acl_stdafx.obj
 0001:00033c80       ??E?$_List_const_iterator@V?$_List_val@U?$_List_simple_types@V?$basic_string@DU?$char_traits@D@std@@V?$allocator@D@2@@std@@@std@@@std@@@std@@QEAA?AV01@H@Z 0000000180034c80 f i acl_stdafx.obj
 0001:00033d40       ??E?$_List_const_iterator@V?$_List_val@U?$_List_simple_types@V?$basic_string@DU?$char_traits@D@std@@V?$allocator@D@2@@std@@@std@@@std@@@std@@QEAAAEAV01@XZ 0000000180034d40 f i acl_stdafx.obj
 0001:00033e90       ??E?$_List_const_iterator@V?$_List_val@U?$_List_simple_types@Vstring@acl@@@std@@@std@@@std@@QEAA?AV01@H@Z 0000000180034e90 f i acl_stdafx.obj
 0001:00033f50       ??E?$_List_const_iterator@V?$_List_val@U?$_List_simple_types@Vstring@acl@@@std@@@std@@@std@@QEAAAEAV01@XZ 0000000180034f50 f i acl_stdafx.obj
 0001:000340a0       ??E?$_List_iterator@V?$_List_val@U?$_List_simple_types@Ufield_t@gsoner@acl@@@std@@@std@@@std@@QEAAAEAV01@XZ 00000001800350a0 f i acl_stdafx.obj
 0001:000340e0       ??E?$_List_iterator@V?$_List_val@U?$_List_simple_types@Uparent_obj_t@gsoner@acl@@@std@@@std@@@std@@QEAAAEAV01@XZ 00000001800350e0 f i acl_stdafx.obj
 0001:00034120       ??E?$_List_iterator@V?$_List_val@U?$_List_simple_types@V?$basic_string@DU?$char_traits@D@std@@V?$allocator@D@2@@std@@@std@@@std@@@std@@QEAAAEAV01@XZ 0000000180035120 f i acl_stdafx.obj
 0001:00034160       ??E?$_List_iterator@V?$_List_val@U?$_List_simple_types@Vstring@acl@@@std@@@std@@@std@@QEAAAEAV01@XZ 0000000180035160 f i acl_stdafx.obj
 0001:000341a0       ??E?$_Tree_const_iterator@V?$_Tree_val@U?$_Tree_simple_types@U?$pair@$$CBV?$basic_string@DU?$char_traits@D@std@@V?$allocator@D@2@@std@@Uobject_t@gsoner@acl@@@std@@@std@@@std@@@std@@QEAA?AV01@H@Z 00000001800351a0 f i acl_stdafx.obj
 0001:00034260       ??E?$_Tree_const_iterator@V?$_Tree_val@U?$_Tree_simple_types@U?$pair@$$CBV?$basic_string@DU?$char_traits@D@std@@V?$allocator@D@2@@std@@Uobject_t@gsoner@acl@@@std@@@std@@@std@@@std@@QEAAAEAV01@XZ 0000000180035260 f i acl_stdafx.obj
 0001:000343a0       ??E?$_Tree_unchecked_const_iterator@V?$_Tree_val@U?$_Tree_simple_types@U?$pair@$$CBV?$basic_string@DU?$char_traits@D@std@@V?$allocator@D@2@@std@@Uobject_t@gsoner@acl@@@std@@@std@@@std@@U_Iterator_base12@2@@std@@QEAAAEAV01@XZ 00000001800353a0 f i acl_stdafx.obj
 0001:000344c0       ??Eatomic_long@acl@@QEAA_JH@Z 00000001800354c0 f i acl_stdafx.obj
 0001:00034510       ??Eatomic_long@acl@@QEAA_JXZ 0000000180035510 f i acl_stdafx.obj
 0001:00034550       ??F?$_List_const_iterator@V?$_List_val@U?$_List_simple_types@Ufield_t@gsoner@acl@@@std@@@std@@@std@@QEAAAEAV01@XZ 0000000180035550 f i acl_stdafx.obj
 0001:000346a0       ??F?$_List_const_iterator@V?$_List_val@U?$_List_simple_types@Uparent_obj_t@gsoner@acl@@@std@@@std@@@std@@QEAAAEAV01@XZ 00000001800356a0 f i acl_stdafx.obj
 0001:000347f0       ??F?$_List_const_iterator@V?$_List_val@U?$_List_simple_types@V?$basic_string@DU?$char_traits@D@std@@V?$allocator@D@2@@std@@@std@@@std@@@std@@QEAAAEAV01@XZ 00000001800357f0 f i acl_stdafx.obj
 0001:00034940       ??F?$_List_const_iterator@V?$_List_val@U?$_List_simple_types@Vstring@acl@@@std@@@std@@@std@@QEAAAEAV01@XZ 0000000180035940 f i acl_stdafx.obj
 0001:00034a90       ??F?$_List_iterator@V?$_List_val@U?$_List_simple_types@Ufield_t@gsoner@acl@@@std@@@std@@@std@@QEAAAEAV01@XZ 0000000180035a90 f i acl_stdafx.obj
 0001:00034ad0       ??F?$_List_iterator@V?$_List_val@U?$_List_simple_types@Uparent_obj_t@gsoner@acl@@@std@@@std@@@std@@QEAAAEAV01@XZ 0000000180035ad0 f i acl_stdafx.obj
 0001:00034b10       ??F?$_List_iterator@V?$_List_val@U?$_List_simple_types@V?$basic_string@DU?$char_traits@D@std@@V?$allocator@D@2@@std@@@std@@@std@@@std@@QEAAAEAV01@XZ 0000000180035b10 f i acl_stdafx.obj
 0001:00034b50       ??F?$_List_iterator@V?$_List_val@U?$_List_simple_types@Vstring@acl@@@std@@@std@@@std@@QEAAAEAV01@XZ 0000000180035b50 f i acl_stdafx.obj
 0001:00034b90       ??F?$_List_unchecked_const_iterator@V?$_List_val@U?$_List_simple_types@Ufield_t@gsoner@acl@@@std@@@std@@U_Iterator_base0@2@@std@@QEAAAEAV01@XZ 0000000180035b90 f i acl_stdafx.obj
 0001:00034bf0       ??F?$_List_unchecked_const_iterator@V?$_List_val@U?$_List_simple_types@Uparent_obj_t@gsoner@acl@@@std@@@std@@U_Iterator_base0@2@@std@@QEAAAEAV01@XZ 0000000180035bf0 f i acl_stdafx.obj
 0001:00034c50       ??F?$_List_unchecked_const_iterator@V?$_List_val@U?$_List_simple_types@V?$basic_string@DU?$char_traits@D@std@@V?$allocator@D@2@@std@@@std@@@std@@U_Iterator_base0@2@@std@@QEAAAEAV01@XZ 0000000180035c50 f i acl_stdafx.obj
 0001:00034cb0       ??F?$_List_unchecked_const_iterator@V?$_List_val@U?$_List_simple_types@Vstring@acl@@@std@@@std@@U_Iterator_base0@2@@std@@QEAAAEAV01@XZ 0000000180035cb0 f i acl_stdafx.obj
 0001:00034d10       ??Fatomic_long@acl@@QEAA_JH@Z 0000000180035d10 f i acl_stdafx.obj
 0001:00034d60       ??Fatomic_long@acl@@QEAA_JXZ 0000000180035d60 f i acl_stdafx.obj
 0001:00034db0       ??Yatomic_long@acl@@QEAA_JH@Z 0000000180035db0 f i acl_stdafx.obj
 0001:00034e00       ??Yatomic_long@acl@@QEAA_J_J@Z 0000000180035e00 f i acl_stdafx.obj
 0001:00034e50       ??Zatomic_long@acl@@QEAA_JH@Z 0000000180035e50 f i acl_stdafx.obj
 0001:00034ea0       ??Zatomic_long@acl@@QEAA_J_J@Z 0000000180035ea0 f i acl_stdafx.obj
 0001:00034ef0       ??_Daio_fstream@acl@@IEAAXXZ 0000000180035ef0 f i acl_stdafx.obj
 0001:00034f50       ??_Daio_istream@acl@@IEAAXXZ 0000000180035f50 f i acl_stdafx.obj
 0001:00034fb0       ??_Daio_ostream@acl@@IEAAXXZ 0000000180035fb0 f i acl_stdafx.obj
 0001:00035010       ??_Daio_socket_stream@acl@@IEAAXXZ 0000000180036010 f i acl_stdafx.obj
 0001:00035070       ??_Ddisque@acl@@QEAAXXZ    0000000180036070 f i acl_stdafx.obj
 0001:000350d0       ??_Dfstream@acl@@QEAAXXZ   00000001800360d0 f i acl_stdafx.obj
 0001:00035120       ??_Difstream@acl@@QEAAXXZ  0000000180036120 f i acl_stdafx.obj
 0001:00035170       ??_Distream@acl@@QEAAXXZ   0000000180036170 f i acl_stdafx.obj
 0001:000351d0       ??_Dofstream@acl@@QEAAXXZ  00000001800361d0 f i acl_stdafx.obj
 0001:00035220       ??_Dostream@acl@@QEAAXXZ   0000000180036220 f i acl_stdafx.obj
 0001:00035270       ??_Dredis@acl@@QEAAXXZ     0000000180036270 f i acl_stdafx.obj
 0001:000352d0       ??_Dredis_cluster@acl@@QEAAXXZ 00000001800362d0 f i acl_stdafx.obj
 0001:00035330       ??_Dredis_connection@acl@@QEAAXXZ 0000000180036330 f i acl_stdafx.obj
 0001:00035390       ??_Dredis_geo@acl@@QEAAXXZ 0000000180036390 f i acl_stdafx.obj
 0001:000353f0       ??_Dredis_hash@acl@@QEAAXXZ 00000001800363f0 f i acl_stdafx.obj
 0001:00035450       ??_Dredis_hyperloglog@acl@@QEAAXXZ 0000000180036450 f i acl_stdafx.obj
 0001:000354b0       ??_Dredis_key@acl@@QEAAXXZ 00000001800364b0 f i acl_stdafx.obj
 0001:00035510       ??_Dredis_list@acl@@QEAAXXZ 0000000180036510 f i acl_stdafx.obj
 0001:00035570       ??_Dredis_pubsub@acl@@QEAAXXZ 0000000180036570 f i acl_stdafx.obj
 0001:000355d0       ??_Dredis_role@acl@@QEAAXXZ 00000001800365d0 f i acl_stdafx.obj
 0001:00035630       ??_Dredis_script@acl@@QEAAXXZ 0000000180036630 f i acl_stdafx.obj
 0001:00035690       ??_Dredis_sentinel@acl@@QEAAXXZ 0000000180036690 f i acl_stdafx.obj
 0001:000356f0       ??_Dredis_server@acl@@QEAAXXZ 00000001800366f0 f i acl_stdafx.obj
 0001:00035750       ??_Dredis_set@acl@@QEAAXXZ 0000000180036750 f i acl_stdafx.obj
 0001:000357b0       ??_Dredis_stream@acl@@QEAAXXZ 00000001800367b0 f i acl_stdafx.obj
 0001:00035810       ??_Dredis_string@acl@@QEAAXXZ 0000000180036810 f i acl_stdafx.obj
 0001:00035870       ??_Dredis_transaction@acl@@QEAAXXZ 0000000180036870 f i acl_stdafx.obj
 0001:000358d0       ??_Dredis_zset@acl@@QEAAXXZ 00000001800368d0 f i acl_stdafx.obj
 0001:00035930       ??_Dsocket_stream@acl@@QEAAXXZ 0000000180036930 f i acl_stdafx.obj
 0001:00035990       ??_Dstdin_stream@acl@@QEAAXXZ 0000000180036990 f i acl_stdafx.obj
 0001:000359f0       ??_Dstdout_stream@acl@@QEAAXXZ 00000001800369f0 f i acl_stdafx.obj
 0001:00035a40       ??_E?$atomic@_J@acl@@UEAAPEAXI@Z 0000000180036a40 f i acl_stdafx.obj
 0001:00035b10       ??_Eaio_accept_callback@acl@@UEAAPEAXI@Z 0000000180036b10 f i acl_stdafx.obj
 0001:00035be0       ??_Eaio_callback@acl@@UEAAPEAXI@Z 0000000180036be0 f i acl_stdafx.obj
 0001:00035cb0       ??_Eaio_open_callback@acl@@UEAAPEAXI@Z 0000000180036cb0 f i acl_stdafx.obj
 0001:00035d80       ??_Eaio_timer_reader@acl@@MEAAPEAXI@Z 0000000180036d80 f i acl_stdafx.obj
 0001:00035e50       ??_Eatomic_long@acl@@UEAAPEAXI@Z 0000000180036e50 f i acl_stdafx.obj
 0001:00035f20       ??_Echeck_client@acl@@EEAAPEAXI@Z 0000000180036f20 f i acl_stdafx.obj
 0001:00035ff0       ??_Econnect_client@acl@@UEAAPEAXI@Z 0000000180036ff0 f i acl_stdafx.obj
 0001:000360c0       ??_Econnect_guard@acl@@UEAAPEAXI@Z 00000001800370c0 f i acl_stdafx.obj
 0001:00036190       ??_Edb_cursor@acl@@UEAAPEAXI@Z 0000000180037190 f i acl_stdafx.obj
 0001:00036260       ??_Edb_guard@acl@@UEAAPEAXI@Z 0000000180037260 f i acl_stdafx.obj
 0001:00036330       ??_Edb_pool@acl@@UEAAPEAXI@Z 0000000180037330 f i acl_stdafx.obj
 0001:00036400       ??_Edb_query@acl@@UEAAPEAXI@Z 0000000180037400 f i acl_stdafx.obj
 0001:000364d0       ??_Edbuf_obj@acl@@UEAAPEAXI@Z 00000001800374d0 f i acl_stdafx.obj
 0001:000365a0       ??_Edns_result_callback@acl@@MEAAPEAXI@Z 00000001800375a0 f i acl_stdafx.obj
 0001:00036670       ??_Eifstream@acl@@UEAAPEAXI@Z 0000000180037670 f i acl_stdafx.obj
 0001:00036734       ??_Eifstream@acl@@WBI@EAAPEAXI@Z 0000000180037734 f i acl_stdafx.obj
 0001:00036740       ??_Eistream@acl@@UEAAPEAXI@Z 0000000180037740 f i acl_stdafx.obj
 0001:00036830       ??_Emime_body@acl@@UEAAPEAXI@Z 0000000180037830 f i acl_stdafx.obj
 0001:00036900       ??_Emime_image@acl@@UEAAPEAXI@Z 0000000180037900 f i acl_stdafx.obj
 0001:000369d0       ??_Eostream@acl@@UEAAPEAXI@Z 00000001800379d0 f i acl_stdafx.obj
 0001:00036a94       ??_Eostream@acl@@WBA@EAAPEAXI@Z 0000000180037a94 f i acl_stdafx.obj
 0001:00036aa0       ??_Epipe_stream@acl@@UEAAPEAXI@Z 0000000180037aa0 f i acl_stdafx.obj
 0001:00036b70       ??_Eredis@acl@@UEAAPEAXI@Z 0000000180037b70 f i acl_stdafx.obj
 0001:00036c70       ??_Eredis_role@acl@@UEAAPEAXI@Z 0000000180037c70 f i acl_stdafx.obj
 0001:00036d70       ??_Erpc_service@acl@@UEAAPEAXI@Z 0000000180037d70 f i acl_stdafx.obj
 0001:00036e40       ??_Esession_string@acl@@UEAAPEAXI@Z 0000000180037e40 f i acl_stdafx.obj
 0001:00036f10       ??_Estream_hook@acl@@MEAAPEAXI@Z 0000000180037f10 f i acl_stdafx.obj
 0001:00036fe0       ??_Ethread_job@acl@@UEAAPEAXI@Z 0000000180037fe0 f i acl_stdafx.obj
 0001:000370b0       ??_Ethread_qitem@acl@@UEAAPEAXI@Z 00000001800380b0 f i acl_stdafx.obj
 0001:00037180       ??_Exml1_attr@acl@@MEAAPEAXI@Z 0000000180038180 f i acl_stdafx.obj
 0001:00037250       ??_Exml2_attr@acl@@MEAAPEAXI@Z 0000000180038250 f i acl_stdafx.obj
 0001:00037320       ??_Exml_attr@acl@@MEAAPEAXI@Z 0000000180038320 f i acl_stdafx.obj
 0001:000373f0       ??_FHttpCookie@acl@@QEAAXXZ 00000001800383f0 f i acl_stdafx.obj
 0001:00037430       ??_Faio_handle@acl@@QEAAXXZ 0000000180038430 f i acl_stdafx.obj
 0001:00037470       ??_Faio_timer_callback@acl@@QEAAXXZ 0000000180038470 f i acl_stdafx.obj
 0001:000374b0       ??_Fatomic_long@acl@@QEAAXXZ 00000001800384b0 f i acl_stdafx.obj
 0001:000374f0       ??_Fdb_service@acl@@QEAAXXZ 00000001800384f0 f i acl_stdafx.obj
 0001:00037540       ??_Fdbuf_guard@acl@@QEAAXXZ 0000000180038540 f i acl_stdafx.obj
 0001:00037590       ??_Fdbuf_obj@acl@@QEAAXXZ  0000000180038590 f i acl_stdafx.obj
 0001:000375d0       ??_Fdns_service@acl@@QEAAXXZ 00000001800385d0 f i acl_stdafx.obj
 0001:00037620       ??_Fevent_mutex@acl@@QEAAXXZ 0000000180038620 f i acl_stdafx.obj
 0001:00037660       ??_Fevent_timer@acl@@QEAAXXZ 0000000180038660 f i acl_stdafx.obj
 0001:000376a0       ??_Fhttp_header@acl@@QEAAXXZ 00000001800386a0 f i acl_stdafx.obj
 0001:000376e0       ??_Fhttp_service@acl@@QEAAXXZ 00000001800386e0 f i acl_stdafx.obj
 0001:00037730       ??_Fipc_client@acl@@QEAAXXZ 0000000180038730 f i acl_stdafx.obj
 0001:00037780       ??_Fjson@acl@@QEAAXXZ      0000000180038780 f i acl_stdafx.obj
 0001:000377c0       ??_Flocker@acl@@QEAAXXZ    00000001800387c0 f i acl_stdafx.obj
 0001:00037800       ??_Fmail_body@acl@@QEAAXXZ 0000000180038800 f i acl_stdafx.obj
 0001:00037850       ??_Fmail_message@acl@@QEAAXXZ 0000000180038850 f i acl_stdafx.obj
 0001:000378a0       ??_Fmemcache@acl@@QEAAXXZ  00000001800388a0 f i acl_stdafx.obj
 0001:00037900       ??_Fmime_base64@acl@@QEAAXXZ 0000000180038900 f i acl_stdafx.obj
 0001:00037940       ??_Fmime_quoted_printable@acl@@QEAAXXZ 0000000180038940 f i acl_stdafx.obj
 0001:00037980       ??_Fmime_uucode@acl@@QEAAXXZ 0000000180038980 f i acl_stdafx.obj
 0001:000379c0       ??_Fmime_xxcode@acl@@QEAAXXZ 00000001800389c0 f i acl_stdafx.obj
 0001:00037a00       ??_Fmysql_manager@acl@@QEAAXXZ 0000000180038a00 f i acl_stdafx.obj
 0001:00037a40       ??_Fpgsql_manager@acl@@QEAAXXZ 0000000180038a40 f i acl_stdafx.obj
 0001:00037a80       ??_Fredis@acl@@QEAAXXZ     0000000180038a80 f i acl_stdafx.obj
 0001:00037ad0       ??_Fredis_client_cluster@acl@@QEAAXXZ 0000000180038ad0 f i acl_stdafx.obj
 0001:00037b10       ??_Frfc2047@acl@@QEAAXXZ   0000000180038b10 f i acl_stdafx.obj
 0001:00037b50       ??_Fsession@acl@@QEAAXXZ   0000000180038b50 f i acl_stdafx.obj
 0001:00037b90       ??_Fsession_string@acl@@QEAAXXZ 0000000180038b90 f i acl_stdafx.obj
 0001:00037bd0       ??_Fsqlite_manager@acl@@QEAAXXZ 0000000180038bd0 f i acl_stdafx.obj
 0001:00037c20       ??_Fthread_cond@acl@@QEAAXXZ 0000000180038c20 f i acl_stdafx.obj
 0001:00037c60       ??_Fthread_mutex@acl@@QEAAXXZ 0000000180038c60 f i acl_stdafx.obj
 0001:00037ca0       ??_Furl_coder@acl@@QEAAXXZ 0000000180038ca0 f i acl_stdafx.obj
 0001:00037ce0       ??_Fxml1@acl@@QEAAXXZ      0000000180038ce0 f i acl_stdafx.obj
 0001:00037d30       ??_Fxml@acl@@QEAAXXZ       0000000180038d30 f i acl_stdafx.obj
 0001:00037d80       ??_G?$atomic@_J@acl@@UEAAPEAXI@Z 0000000180038d80 f i acl_stdafx.obj
 0001:00037de0       ??_G?$basic_string@DU?$char_traits@D@std@@V?$allocator@D@2@@std@@QEAAPEAXI@Z 0000000180038de0 f i acl_stdafx.obj
 0001:00037e40       ??_G?$pair@$$CBV?$basic_string@DU?$char_traits@D@std@@V?$allocator@D@2@@std@@Uobject_t@gsoner@acl@@@std@@QEAAPEAXI@Z 0000000180038e40 f i acl_stdafx.obj
 0001:00037ea0       ??_G_Generic_error_category@std@@UEAAPEAXI@Z 0000000180038ea0 f i acl_stdafx.obj
 0001:00037ea0       ??_E_Generic_error_category@std@@UEAAPEAXI@Z 0000000180038ea0 f i acl_stdafx.obj
 0001:00037f00       ??_G_Iostream_error_category@std@@UEAAPEAXI@Z 0000000180038f00 f i acl_stdafx.obj
 0001:00037f00       ??_E_Iostream_error_category@std@@UEAAPEAXI@Z 0000000180038f00 f i acl_stdafx.obj
 0001:00037f60       ??_E_System_error_category@std@@UEAAPEAXI@Z 0000000180038f60 f i acl_stdafx.obj
 0001:00037f60       ??_G_System_error_category@std@@UEAAPEAXI@Z 0000000180038f60 f i acl_stdafx.obj
 0001:00037fc0       ??_Gaio_accept_callback@acl@@UEAAPEAXI@Z 0000000180038fc0 f i acl_stdafx.obj
 0001:00038020       ??_Gaio_callback@acl@@UEAAPEAXI@Z 0000000180039020 f i acl_stdafx.obj
 0001:00038080       ??_Gaio_open_callback@acl@@UEAAPEAXI@Z 0000000180039080 f i acl_stdafx.obj
 0001:000380e0       ??_Gaio_timer_reader@acl@@MEAAPEAXI@Z 00000001800390e0 f i acl_stdafx.obj
 0001:00038140       ??_Gatomic_long@acl@@UEAAPEAXI@Z 0000000180039140 f i acl_stdafx.obj
 0001:000381a0       ??_Gcheck_client@acl@@EEAAPEAXI@Z 00000001800391a0 f i acl_stdafx.obj
 0001:00038200       ??_Gconnect_client@acl@@UEAAPEAXI@Z 0000000180039200 f i acl_stdafx.obj
 0001:00038260       ??_Gconnect_guard@acl@@UEAAPEAXI@Z 0000000180039260 f i acl_stdafx.obj
 0001:000382c0       ??_Gdb_cursor@acl@@UEAAPEAXI@Z 00000001800392c0 f i acl_stdafx.obj
 0001:00038320       ??_Gdb_guard@acl@@UEAAPEAXI@Z 0000000180039320 f i acl_stdafx.obj
 0001:00038380       ??_Gdb_pool@acl@@UEAAPEAXI@Z 0000000180039380 f i acl_stdafx.obj
 0001:000383e0       ??_Gdb_query@acl@@UEAAPEAXI@Z 00000001800393e0 f i acl_stdafx.obj
 0001:00038440       ??_Gdbuf_obj@acl@@UEAAPEAXI@Z 0000000180039440 f i acl_stdafx.obj
 0001:000384a0       ??_Gdns_result_callback@acl@@MEAAPEAXI@Z 00000001800394a0 f i acl_stdafx.obj
 0001:00038500       ??_Gerror_category@std@@UEAAPEAXI@Z 0000000180039500 f i acl_stdafx.obj
 0001:00038500       ??_Eerror_category@std@@UEAAPEAXI@Z 0000000180039500 f i acl_stdafx.obj
 0001:00038560       ??_Efield_t@gsoner@acl@@UEAAPEAXI@Z 0000000180039560 f i acl_stdafx.obj
 0001:00038560       ??_Gfield_t@gsoner@acl@@UEAAPEAXI@Z 0000000180039560 f i acl_stdafx.obj
 0001:000385c0       ??_Gifstream@acl@@UEAAPEAXI@Z 00000001800395c0 f i acl_stdafx.obj
 0001:00038620       ??_Gistream@acl@@UEAAPEAXI@Z 0000000180039620 f i acl_stdafx.obj
 0001:000386a0       ??_Gmime_body@acl@@UEAAPEAXI@Z 00000001800396a0 f i acl_stdafx.obj
 0001:00038700       ??_Gmime_image@acl@@UEAAPEAXI@Z 0000000180039700 f i acl_stdafx.obj
 0001:00038760       ??_Gostream@acl@@UEAAPEAXI@Z 0000000180039760 f i acl_stdafx.obj
 0001:000387c0       ??_Gparent_obj_t@gsoner@acl@@QEAAPEAXI@Z 00000001800397c0 f i acl_stdafx.obj
 0001:00038820       ??_Gpipe_stream@acl@@UEAAPEAXI@Z 0000000180039820 f i acl_stdafx.obj
 0001:00038880       ??_Gredis@acl@@UEAAPEAXI@Z 0000000180039880 f i acl_stdafx.obj
 0001:00038900       ??_Gredis_role4slave@acl@@QEAAPEAXI@Z 0000000180039900 f i acl_stdafx.obj
 0001:00038960       ??_Gredis_role@acl@@UEAAPEAXI@Z 0000000180039960 f i acl_stdafx.obj
 0001:000389e0       ??_Grpc_service@acl@@UEAAPEAXI@Z 00000001800399e0 f i acl_stdafx.obj
 0001:00038a40       ??_Gsession_string@acl@@UEAAPEAXI@Z 0000000180039a40 f i acl_stdafx.obj
 0001:00038aa0       ??_Gstream_hook@acl@@MEAAPEAXI@Z 0000000180039aa0 f i acl_stdafx.obj
 0001:00038b00       ??_Gthread_job@acl@@UEAAPEAXI@Z 0000000180039b00 f i acl_stdafx.obj
 0001:00038b60       ??_Gthread_qitem@acl@@UEAAPEAXI@Z 0000000180039b60 f i acl_stdafx.obj
 0001:00038bc0       ??_Gxml1_attr@acl@@MEAAPEAXI@Z 0000000180039bc0 f i acl_stdafx.obj
 0001:00038c20       ??_Gxml2_attr@acl@@MEAAPEAXI@Z 0000000180039c20 f i acl_stdafx.obj
 0001:00038c80       ??_Gxml_attr@acl@@MEAAPEAXI@Z 0000000180039c80 f i acl_stdafx.obj
 0001:00038ce0       ??_Ourl_coder@acl@@QEAAXAEAV01@@Z 0000000180039ce0 f i acl_stdafx.obj
 0001:00038d30       ?_Adopt@_Iterator_base0@std@@QEAAXPEBX@Z 0000000180039d30 f i acl_stdafx.obj
 0001:00038d40       ?_Adopt@_Iterator_base12@std@@QEAAXPEBU_Container_base12@2@@Z 0000000180039d40 f i acl_stdafx.obj
 0001:00038e60       ?_Alloc_proxy@?$_List_alloc@$0A@U?$_List_base_types@Ufield_t@gsoner@acl@@V?$allocator@Ufield_t@gsoner@acl@@@std@@@std@@@std@@QEAAXXZ 0000000180039e60 f i acl_stdafx.obj
 0001:00038f10       ?_Alloc_proxy@?$_List_alloc@$0A@U?$_List_base_types@Uparent_obj_t@gsoner@acl@@V?$allocator@Uparent_obj_t@gsoner@acl@@@std@@@std@@@std@@QEAAXXZ 0000000180039f10 f i acl_stdafx.obj
 0001:00038fc0       ?_Alloc_proxy@?$_List_alloc@$0A@U?$_List_base_types@V?$basic_string@DU?$char_traits@D@std@@V?$allocator@D@2@@std@@V?$allocator@V?$basic_string@DU?$char_traits@D@std@@V?$allocator@D@2@@std@@@2@@std@@@std@@QEAAXXZ 0000000180039fc0 f i acl_stdafx.obj
 0001:00039070       ?_Alloc_proxy@?$_List_alloc@$0A@U?$_List_base_types@Vstring@acl@@V?$allocator@Vstring@acl@@@std@@@std@@@std@@QEAAXXZ 000000018003a070 f i acl_stdafx.obj
 0001:00039120       ?_Alloc_proxy@?$_String_alloc@$0A@U?$_String_base_types@DV?$allocator@D@std@@@std@@@std@@QEAAXXZ 000000018003a120 f i acl_stdafx.obj
 0001:000391d0       ?_Alloc_proxy@?$_Tree_alloc@$0A@U?$_Tree_base_types@U?$pair@$$CBV?$basic_string@DU?$char_traits@D@std@@V?$allocator@D@2@@std@@Uobject_t@gsoner@acl@@@std@@V?$allocator@U?$pair@$$CBV?$basic_string@DU?$char_traits@D@std@@V?$allocator@D@2@@std@@Uobject_t@gsoner@acl@@@std@@@2@@std@@@std@@QEAAXXZ 000000018003a1d0 f i acl_stdafx.obj
 0001:00039290       ?_Alloc_proxy@?$_Vector_alloc@$0A@U?$_Vec_base_types@Vredis_role4slave@acl@@V?$allocator@Vredis_role4slave@acl@@@std@@@std@@@std@@QEAAXXZ 000000018003a290 f i acl_stdafx.obj
 0001:00039340       ?_Buy@?$vector@PEAVredis_slot@acl@@V?$allocator@PEAVredis_slot@acl@@@std@@@std@@IEAA_N_K@Z 000000018003a340 f i acl_stdafx.obj
 0001:00039450       ?_Buy@?$vector@Vredis_role4slave@acl@@V?$allocator@Vredis_role4slave@acl@@@std@@@std@@IEAA_N_K@Z 000000018003a450 f i acl_stdafx.obj
 0001:00039560       ?_Buyheadnode@?$_List_alloc@$0A@U?$_List_base_types@Ufield_t@gsoner@acl@@V?$allocator@Ufield_t@gsoner@acl@@@std@@@std@@@std@@QEAAPEAU?$_List_node@Ufield_t@gsoner@acl@@PEAX@2@XZ 000000018003a560 f i acl_stdafx.obj
 0001:000395a0       ?_Buyheadnode@?$_List_alloc@$0A@U?$_List_base_types@Uparent_obj_t@gsoner@acl@@V?$allocator@Uparent_obj_t@gsoner@acl@@@std@@@std@@@std@@QEAAPEAU?$_List_node@Uparent_obj_t@gsoner@acl@@PEAX@2@XZ 000000018003a5a0 f i acl_stdafx.obj
 0001:000395e0       ?_Buyheadnode@?$_List_alloc@$0A@U?$_List_base_types@V?$basic_string@DU?$char_traits@D@std@@V?$allocator@D@2@@std@@V?$allocator@V?$basic_string@DU?$char_traits@D@std@@V?$allocator@D@2@@std@@@2@@std@@@std@@QEAAPEAU?$_List_node@V?$basic_string@DU?$char_traits@D@std@@V?$allocator@D@2@@std@@PEAX@2@XZ 000000018003a5e0 f i acl_stdafx.obj
 0001:00039620       ?_Buyheadnode@?$_List_alloc@$0A@U?$_List_base_types@Vstring@acl@@V?$allocator@Vstring@acl@@@std@@@std@@@std@@QEAAPEAU?$_List_node@Vstring@acl@@PEAX@2@XZ 000000018003a620 f i acl_stdafx.obj
 0001:00039660       ?_Buyheadnode@?$_Tree_alloc@$0A@U?$_Tree_base_types@U?$pair@$$CBV?$basic_string@DU?$char_traits@D@std@@V?$allocator@D@2@@std@@Uobject_t@gsoner@acl@@@std@@V?$allocator@U?$pair@$$CBV?$basic_string@DU?$char_traits@D@std@@V?$allocator@D@2@@std@@Uobject_t@gsoner@acl@@@std@@@2@@std@@@std@@QEAAPEAU?$_Tree_node@U?$pair@$$CBV?$basic_string@DU?$char_traits@D@std@@V?$allocator@D@2@@std@@Uobject_t@gsoner@acl@@@std@@PEAX@2@XZ 000000018003a660 f i acl_stdafx.obj
 0001:00039810       ?_Buynode0@?$_List_alloc@$0A@U?$_List_base_types@Ufield_t@gsoner@acl@@V?$allocator@Ufield_t@gsoner@acl@@@std@@@std@@@std@@QEAAPEAU?$_List_node@Ufield_t@gsoner@acl@@PEAX@2@PEAU32@0@Z 000000018003a810 f i acl_stdafx.obj
 0001:00039950       ?_Buynode0@?$_List_alloc@$0A@U?$_List_base_types@Uparent_obj_t@gsoner@acl@@V?$allocator@Uparent_obj_t@gsoner@acl@@@std@@@std@@@std@@QEAAPEAU?$_List_node@Uparent_obj_t@gsoner@acl@@PEAX@2@PEAU32@0@Z 000000018003a950 f i acl_stdafx.obj
 0001:00039a90       ?_Buynode0@?$_List_alloc@$0A@U?$_List_base_types@V?$basic_string@DU?$char_traits@D@std@@V?$allocator@D@2@@std@@V?$allocator@V?$basic_string@DU?$char_traits@D@std@@V?$allocator@D@2@@std@@@2@@std@@@std@@QEAAPEAU?$_List_node@V?$basic_string@DU?$char_traits@D@std@@V?$allocator@D@2@@std@@PEAX@2@PEAU32@0@Z 000000018003aa90 f i acl_stdafx.obj
 0001:00039bd0       ?_Buynode0@?$_List_alloc@$0A@U?$_List_base_types@Vstring@acl@@V?$allocator@Vstring@acl@@@std@@@std@@@std@@QEAAPEAU?$_List_node@Vstring@acl@@PEAX@2@PEAU32@0@Z 000000018003abd0 f i acl_stdafx.obj
 0001:00039d10       ?_Buynode0@?$_Tree_buy@U?$pair@$$CBV?$basic_string@DU?$char_traits@D@std@@V?$allocator@D@2@@std@@Uobject_t@gsoner@acl@@@std@@V?$allocator@U?$pair@$$CBV?$basic_string@DU?$char_traits@D@std@@V?$allocator@D@2@@std@@Uobject_t@gsoner@acl@@@std@@@2@@std@@QEAAPEAU?$_Tree_node@U?$pair@$$CBV?$basic_string@DU?$char_traits@D@std@@V?$allocator@D@2@@std@@Uobject_t@gsoner@acl@@@std@@PEAX@2@XZ 000000018003ad10 f i acl_stdafx.obj
 0001:00039ed0       ?_Change_alloc@?$_List_alloc@$0A@U?$_List_base_types@Ufield_t@gsoner@acl@@V?$allocator@Ufield_t@gsoner@acl@@@std@@@std@@@std@@QEAAXAEBU?$_Wrap_alloc@V?$allocator@U?$_List_node@Ufield_t@gsoner@acl@@PEAX@std@@@std@@@2@@Z 000000018003aed0 f i acl_stdafx.obj
 0001:00039ee0       ?_Change_alloc@?$_List_alloc@$0A@U?$_List_base_types@Uparent_obj_t@gsoner@acl@@V?$allocator@Uparent_obj_t@gsoner@acl@@@std@@@std@@@std@@QEAAXAEBU?$_Wrap_alloc@V?$allocator@U?$_List_node@Uparent_obj_t@gsoner@acl@@PEAX@std@@@std@@@2@@Z 000000018003aee0 f i acl_stdafx.obj
 0001:00039ef0       ?_Change_alloc@?$_List_alloc@$0A@U?$_List_base_types@V?$basic_string@DU?$char_traits@D@std@@V?$allocator@D@2@@std@@V?$allocator@V?$basic_string@DU?$char_traits@D@std@@V?$allocator@D@2@@std@@@2@@std@@@std@@QEAAXAEBU?$_Wrap_alloc@V?$allocator@U?$_List_node@V?$basic_string@DU?$char_traits@D@std@@V?$allocator@D@2@@std@@PEAX@std@@@std@@@2@@Z 000000018003aef0 f i acl_stdafx.obj
 0001:00039f00       ?_Change_alloc@?$_List_alloc@$0A@U?$_List_base_types@Vstring@acl@@V?$allocator@Vstring@acl@@@std@@@std@@@std@@QEAAXAEBU?$_Wrap_alloc@V?$allocator@U?$_List_node@Vstring@acl@@PEAX@std@@@std@@@2@@Z 000000018003af00 f i acl_stdafx.obj
 0001:00039f10       ?_Change_alloc@?$_String_alloc@$0A@U?$_String_base_types@DV?$allocator@D@std@@@std@@@std@@QEAAXAEBU?$_Wrap_alloc@V?$allocator@D@std@@@2@@Z 000000018003af10 f i acl_stdafx.obj
 0001:00039f20       ?_Change_alloc@?$_Tree_alloc@$0A@U?$_Tree_base_types@U?$pair@$$CBV?$basic_string@DU?$char_traits@D@std@@V?$allocator@D@2@@std@@Uobject_t@gsoner@acl@@@std@@V?$allocator@U?$pair@$$CBV?$basic_string@DU?$char_traits@D@std@@V?$allocator@D@2@@std@@Uobject_t@gsoner@acl@@@std@@@2@@std@@@std@@QEAAXAEBU?$_Wrap_alloc@V?$allocator@U?$_Tree_node@U?$pair@$$CBV?$basic_string@DU?$char_traits@D@std@@V?$allocator@D@2@@std@@Uobject_t@gsoner@acl@@@std@@PEAX@std@@@std@@@2@@Z 000000018003af20 f i acl_stdafx.obj
 0001:00039f30       ?_Change_alloc@?$_Vector_alloc@$0A@U?$_Vec_base_types@PEAVredis_slot@acl@@V?$allocator@PEAVredis_slot@acl@@@std@@@std@@@std@@QEAAXAEBU?$_Wrap_alloc@V?$allocator@PEAVredis_slot@acl@@@std@@@2@@Z 000000018003af30 f i acl_stdafx.obj
 0001:00039f40       ?_Change_alloc@?$_Vector_alloc@$0A@U?$_Vec_base_types@Vredis_role4slave@acl@@V?$allocator@Vredis_role4slave@acl@@@std@@@std@@@std@@QEAAXAEBU?$_Wrap_alloc@V?$allocator@Vredis_role4slave@acl@@@std@@@2@@Z 000000018003af40 f i acl_stdafx.obj
 0001:00039f50       ?_Clrcont@_Iterator_base12@std@@QEAAXXZ 000000018003af50 f i acl_stdafx.obj
 0001:00039f70       ?_Color@?$_Tree_val@U?$_Tree_simple_types@U?$pair@$$CBV?$basic_string@DU?$char_traits@D@std@@V?$allocator@D@2@@std@@Uobject_t@gsoner@acl@@@std@@@std@@@std@@SAAEADPEAU?$_Tree_node@U?$pair@$$CBV?$basic_string@DU?$char_traits@D@std@@V?$allocator@D@2@@std@@Uobject_t@gsoner@acl@@@std@@PEAX@2@@Z 000000018003af70 f i acl_stdafx.obj
 0001:00039f90       ?_Copy@?$basic_string@DU?$char_traits@D@std@@V?$allocator@D@2@@std@@QEAAX_K0@Z 000000018003af90 f i acl_stdafx.obj
 0001:0003a230       ?_Destroy@?$vector@PEAVredis_slot@acl@@V?$allocator@PEAVredis_slot@acl@@@std@@@std@@IEAAXPEAPEAVredis_slot@acl@@0@Z 000000018003b230 f i acl_stdafx.obj
 0001:0003a2b0       ?_Destroy@?$vector@Vredis_role4slave@acl@@V?$allocator@Vredis_role4slave@acl@@@std@@@std@@IEAAXPEAVredis_role4slave@acl@@0@Z 000000018003b2b0 f i acl_stdafx.obj
 0001:0003a330       ?_Destroy@?$vector@Vstring@acl@@V?$allocator@Vstring@acl@@@std@@@std@@IEAAXPEAVstring@acl@@0@Z 000000018003b330 f i acl_stdafx.obj
 0001:0003a3b0       ?_Eos@?$basic_string@DU?$char_traits@D@std@@V?$allocator@D@2@@std@@QEAAX_K@Z 000000018003b3b0 f i acl_stdafx.obj
 0001:0003a420       ?_Erase@?$_Tree@V?$_Tmap_traits@V?$basic_string@DU?$char_traits@D@std@@V?$allocator@D@2@@std@@Uobject_t@gsoner@acl@@U?$less@V?$basic_string@DU?$char_traits@D@std@@V?$allocator@D@2@@std@@@2@V?$allocator@U?$pair@$$CBV?$basic_string@DU?$char_traits@D@std@@V?$allocator@D@2@@std@@Uobject_t@gsoner@acl@@@std@@@2@$0A@@std@@@std@@IEAAXPEAU?$_Tree_node@U?$pair@$$CBV?$basic_string@DU?$char_traits@D@std@@V?$allocator@D@2@@std@@Uobject_t@gsoner@acl@@@std@@PEAX@2@@Z 000000018003b420 f i acl_stdafx.obj
 0001:0003a530       ?_Free_proxy@?$_List_alloc@$0A@U?$_List_base_types@Ufield_t@gsoner@acl@@V?$allocator@Ufield_t@gsoner@acl@@@std@@@std@@@std@@QEAAXXZ 000000018003b530 f i acl_stdafx.obj
 0001:0003a5d0       ?_Free_proxy@?$_List_alloc@$0A@U?$_List_base_types@Uparent_obj_t@gsoner@acl@@V?$allocator@Uparent_obj_t@gsoner@acl@@@std@@@std@@@std@@QEAAXXZ 000000018003b5d0 f i acl_stdafx.obj
 0001:0003a670       ?_Free_proxy@?$_List_alloc@$0A@U?$_List_base_types@V?$basic_string@DU?$char_traits@D@std@@V?$allocator@D@2@@std@@V?$allocator@V?$basic_string@DU?$char_traits@D@std@@V?$allocator@D@2@@std@@@2@@std@@@std@@QEAAXXZ 000000018003b670 f i acl_stdafx.obj
 0001:0003a710       ?_Free_proxy@?$_List_alloc@$0A@U?$_List_base_types@Vstring@acl@@V?$allocator@Vstring@acl@@@std@@@std@@@std@@QEAAXXZ 000000018003b710 f i acl_stdafx.obj
 0001:0003a7b0       ?_Free_proxy@?$_String_alloc@$0A@U?$_String_base_types@DV?$allocator@D@std@@@std@@@std@@QEAAXXZ 000000018003b7b0 f i acl_stdafx.obj
 0001:0003a850       ?_Free_proxy@?$_Tree_alloc@$0A@U?$_Tree_base_types@U?$pair@$$CBV?$basic_string@DU?$char_traits@D@std@@V?$allocator@D@2@@std@@Uobject_t@gsoner@acl@@@std@@V?$allocator@U?$pair@$$CBV?$basic_string@DU?$char_traits@D@std@@V?$allocator@D@2@@std@@Uobject_t@gsoner@acl@@@std@@@2@@std@@@std@@QEAAXXZ 000000018003b850 f i acl_stdafx.obj
 0001:0003a910       ?_Free_proxy@?$_Vector_alloc@$0A@U?$_Vec_base_types@Vredis_role4slave@acl@@V?$allocator@Vredis_role4slave@acl@@@std@@@std@@@std@@QEAAXXZ 000000018003b910 f i acl_stdafx.obj
 0001:0003a9b0       ?_Free_proxy@?$_Vector_alloc@$0A@U?$_Vec_base_types@Vstring@acl@@V?$allocator@Vstring@acl@@@std@@@std@@@std@@QEAAXXZ 000000018003b9b0 f i acl_stdafx.obj
 0001:0003aa50       ?_Freeheadnode@?$_List_alloc@$0A@U?$_List_base_types@Ufield_t@gsoner@acl@@V?$allocator@Ufield_t@gsoner@acl@@@std@@@std@@@std@@QEAAXPEAU?$_List_node@Ufield_t@gsoner@acl@@PEAX@2@@Z 000000018003ba50 f i acl_stdafx.obj
 0001:0003ab40       ?_Freeheadnode@?$_List_alloc@$0A@U?$_List_base_types@Uparent_obj_t@gsoner@acl@@V?$allocator@Uparent_obj_t@gsoner@acl@@@std@@@std@@@std@@QEAAXPEAU?$_List_node@Uparent_obj_t@gsoner@acl@@PEAX@2@@Z 000000018003bb40 f i acl_stdafx.obj
 0001:0003ac30       ?_Freeheadnode@?$_List_alloc@$0A@U?$_List_base_types@V?$basic_string@DU?$char_traits@D@std@@V?$allocator@D@2@@std@@V?$allocator@V?$basic_string@DU?$char_traits@D@std@@V?$allocator@D@2@@std@@@2@@std@@@std@@QEAAXPEAU?$_List_node@V?$basic_string@DU?$char_traits@D@std@@V?$allocator@D@2@@std@@PEAX@2@@Z 000000018003bc30 f i acl_stdafx.obj
 0001:0003ad20       ?_Freeheadnode@?$_List_alloc@$0A@U?$_List_base_types@Vstring@acl@@V?$allocator@Vstring@acl@@@std@@@std@@@std@@QEAAXPEAU?$_List_node@Vstring@acl@@PEAX@2@@Z 000000018003bd20 f i acl_stdafx.obj
 0001:0003ae10       ?_Freeheadnode@?$_Tree_alloc@$0A@U?$_Tree_base_types@U?$pair@$$CBV?$basic_string@DU?$char_traits@D@std@@V?$allocator@D@2@@std@@Uobject_t@gsoner@acl@@@std@@V?$allocator@U?$pair@$$CBV?$basic_string@DU?$char_traits@D@std@@V?$allocator@D@2@@std@@Uobject_t@gsoner@acl@@@std@@@2@@std@@@std@@QEAAXPEAU?$_Tree_node@U?$pair@$$CBV?$basic_string@DU?$char_traits@D@std@@V?$allocator@D@2@@std@@Uobject_t@gsoner@acl@@@std@@PEAX@2@@Z 000000018003be10 f i acl_stdafx.obj
 0001:0003af40       ?_Freenode0@?$_Tree_buy@U?$pair@$$CBV?$basic_string@DU?$char_traits@D@std@@V?$allocator@D@2@@std@@Uobject_t@gsoner@acl@@@std@@V?$allocator@U?$pair@$$CBV?$basic_string@DU?$char_traits@D@std@@V?$allocator@D@2@@std@@Uobject_t@gsoner@acl@@@std@@@2@@std@@QEAAXPEAU?$_Tree_node@U?$pair@$$CBV?$basic_string@DU?$char_traits@D@std@@V?$allocator@D@2@@std@@Uobject_t@gsoner@acl@@@std@@PEAX@2@@Z 000000018003bf40 f i acl_stdafx.obj
 0001:0003b070       ?_Freenode@?$_List_buy@Ufield_t@gsoner@acl@@V?$allocator@Ufield_t@gsoner@acl@@@std@@@std@@QEAAXPEAU?$_List_node@Ufield_t@gsoner@acl@@PEAX@2@@Z 000000018003c070 f i acl_stdafx.obj
 0001:0003b1a0       ?_Freenode@?$_List_buy@Uparent_obj_t@gsoner@acl@@V?$allocator@Uparent_obj_t@gsoner@acl@@@std@@@std@@QEAAXPEAU?$_List_node@Uparent_obj_t@gsoner@acl@@PEAX@2@@Z 000000018003c1a0 f i acl_stdafx.obj
 0001:0003b2d0       ?_Freenode@?$_List_buy@V?$basic_string@DU?$char_traits@D@std@@V?$allocator@D@2@@std@@V?$allocator@V?$basic_string@DU?$char_traits@D@std@@V?$allocator@D@2@@std@@@2@@std@@QEAAXPEAU?$_List_node@V?$basic_string@DU?$char_traits@D@std@@V?$allocator@D@2@@std@@PEAX@2@@Z 000000018003c2d0 f i acl_stdafx.obj
 0001:0003b400       ?_Freenode@?$_List_buy@Vstring@acl@@V?$allocator@Vstring@acl@@@std@@@std@@QEAAXPEAU?$_List_node@Vstring@acl@@PEAX@2@@Z 000000018003c400 f i acl_stdafx.obj
 0001:0003b530       ?_Getal@?$_List_alloc@$0A@U?$_List_base_types@Ufield_t@gsoner@acl@@V?$allocator@Ufield_t@gsoner@acl@@@std@@@std@@@std@@QEBA?AU?$_Wrap_alloc@V?$allocator@U?$_List_node@Ufield_t@gsoner@acl@@PEAX@std@@@std@@@2@XZ 000000018003c530 f i acl_stdafx.obj
 0001:0003b580       ?_Getal@?$_List_alloc@$0A@U?$_List_base_types@Uparent_obj_t@gsoner@acl@@V?$allocator@Uparent_obj_t@gsoner@acl@@@std@@@std@@@std@@QEBA?AU?$_Wrap_alloc@V?$allocator@U?$_List_node@Uparent_obj_t@gsoner@acl@@PEAX@std@@@std@@@2@XZ 000000018003c580 f i acl_stdafx.obj
 0001:0003b5d0       ?_Getal@?$_List_alloc@$0A@U?$_List_base_types@V?$basic_string@DU?$char_traits@D@std@@V?$allocator@D@2@@std@@V?$allocator@V?$basic_string@DU?$char_traits@D@std@@V?$allocator@D@2@@std@@@2@@std@@@std@@QEBA?AU?$_Wrap_alloc@V?$allocator@U?$_List_node@V?$basic_string@DU?$char_traits@D@std@@V?$allocator@D@2@@std@@PEAX@std@@@std@@@2@XZ 000000018003c5d0 f i acl_stdafx.obj
 0001:0003b620       ?_Getal@?$_List_alloc@$0A@U?$_List_base_types@Vstring@acl@@V?$allocator@Vstring@acl@@@std@@@std@@@std@@QEBA?AU?$_Wrap_alloc@V?$allocator@U?$_List_node@Vstring@acl@@PEAX@std@@@std@@@2@XZ 000000018003c620 f i acl_stdafx.obj
 0001:0003b670       ?_Getal@?$_String_alloc@$0A@U?$_String_base_types@DV?$allocator@D@std@@@std@@@std@@QEBA?AU?$_Wrap_alloc@V?$allocator@D@std@@@2@XZ 000000018003c670 f i acl_stdafx.obj
 0001:0003b6c0       ?_Getal@?$_Tree_alloc@$0A@U?$_Tree_base_types@U?$pair@$$CBV?$basic_string@DU?$char_traits@D@std@@V?$allocator@D@2@@std@@Uobject_t@gsoner@acl@@@std@@V?$allocator@U?$pair@$$CBV?$basic_string@DU?$char_traits@D@std@@V?$allocator@D@2@@std@@Uobject_t@gsoner@acl@@@std@@@2@@std@@@std@@QEBA?AU?$_Wrap_alloc@V?$allocator@U?$_Tree_node@U?$pair@$$CBV?$basic_string@DU?$char_traits@D@std@@V?$allocator@D@2@@std@@Uobject_t@gsoner@acl@@@std@@PEAX@std@@@std@@@2@XZ 000000018003c6c0 f i acl_stdafx.obj
 0001:0003b710       ?_Getal@?$_Vector_alloc@$0A@U?$_Vec_base_types@PEAVredis_slot@acl@@V?$allocator@PEAVredis_slot@acl@@@std@@@std@@@std@@QEBA?AU?$_Wrap_alloc@V?$allocator@PEAVredis_slot@acl@@@std@@@2@XZ 000000018003c710 f i acl_stdafx.obj
 0001:0003b760       ?_Getal@?$_Vector_alloc@$0A@U?$_Vec_base_types@Vredis_role4slave@acl@@V?$allocator@Vredis_role4slave@acl@@@std@@@std@@@std@@QEBA?AU?$_Wrap_alloc@V?$allocator@Vredis_role4slave@acl@@@std@@@2@XZ 000000018003c760 f i acl_stdafx.obj
 0001:0003b7b0       ?_Getal@?$_Vector_alloc@$0A@U?$_Vec_base_types@Vstring@acl@@V?$allocator@Vstring@acl@@@std@@@std@@@std@@QEBA?AU?$_Wrap_alloc@V?$allocator@Vstring@acl@@@std@@@2@XZ 000000018003c7b0 f i acl_stdafx.obj
 0001:0003b800       ?_Getcomp@?$_Tree_comp@$0A@V?$_Tmap_traits@V?$basic_string@DU?$char_traits@D@std@@V?$allocator@D@2@@std@@Uobject_t@gsoner@acl@@U?$less@V?$basic_string@DU?$char_traits@D@std@@V?$allocator@D@2@@std@@@2@V?$allocator@U?$pair@$$CBV?$basic_string@DU?$char_traits@D@std@@V?$allocator@D@2@@std@@Uobject_t@gsoner@acl@@@std@@@2@$0A@@std@@@std@@QEBA?AU?$less@V?$basic_string@DU?$char_traits@D@std@@V?$allocator@D@2@@std@@@2@XZ 000000018003c800 f i acl_stdafx.obj
 0001:0003b840       ?_Getcont@_Iterator_base12@std@@QEBAPEBU_Container_base12@2@XZ 000000018003c840 f i acl_stdafx.obj
 0001:0003b8a0       ?_Getpnext@_Iterator_base12@std@@QEAAPEAPEAU12@XZ 000000018003c8a0 f i acl_stdafx.obj
 0001:0003b8c0       ?_Grow@?$basic_string@DU?$char_traits@D@std@@V?$allocator@D@2@@std@@QEAA_N_K_N@Z 000000018003c8c0 f i acl_stdafx.obj
 0001:0003ba00       ?_Grow_to@?$vector@Vredis_role4slave@acl@@V?$allocator@Vredis_role4slave@acl@@@std@@@std@@IEBA_K_K@Z 000000018003ca00 f i acl_stdafx.obj
 0001:0003baf0       ?_Incsize@?$list@Ufield_t@gsoner@acl@@V?$allocator@Ufield_t@gsoner@acl@@@std@@@std@@QEAAX_K@Z 000000018003caf0 f i acl_stdafx.obj
 0001:0003bb80       ?_Incsize@?$list@Uparent_obj_t@gsoner@acl@@V?$allocator@Uparent_obj_t@gsoner@acl@@@std@@@std@@QEAAX_K@Z 000000018003cb80 f i acl_stdafx.obj
 0001:0003bc10       ?_Incsize@?$list@V?$basic_string@DU?$char_traits@D@std@@V?$allocator@D@2@@std@@V?$allocator@V?$basic_string@DU?$char_traits@D@std@@V?$allocator@D@2@@std@@@2@@std@@QEAAX_K@Z 000000018003cc10 f i acl_stdafx.obj
 0001:0003bca0       ?_Incsize@?$list@Vstring@acl@@V?$allocator@Vstring@acl@@@std@@@std@@QEAAX_K@Z 000000018003cca0 f i acl_stdafx.obj
 0001:0003bd30       ?_Inside@?$basic_string@DU?$char_traits@D@std@@V?$allocator@D@2@@std@@QEAA_NPEBD@Z 000000018003cd30 f i acl_stdafx.obj
 0001:0003bdb0       ?_Inside@?$vector@Vredis_role4slave@acl@@V?$allocator@Vredis_role4slave@acl@@@std@@@std@@IEBA_NPEBVredis_role4slave@acl@@@Z 000000018003cdb0 f i acl_stdafx.obj
 0001:0003be30       ?_Isnil@?$_Tree_val@U?$_Tree_simple_types@U?$pair@$$CBV?$basic_string@DU?$char_traits@D@std@@V?$allocator@D@2@@std@@Uobject_t@gsoner@acl@@@std@@@std@@@std@@SAAEADPEAU?$_Tree_node@U?$pair@$$CBV?$basic_string@DU?$char_traits@D@std@@V?$allocator@D@2@@std@@Uobject_t@gsoner@acl@@@std@@PEAX@2@@Z 000000018003ce30 f i acl_stdafx.obj
 0001:0003be50       ?_Left@?$_Tree_val@U?$_Tree_simple_types@U?$pair@$$CBV?$basic_string@DU?$char_traits@D@std@@V?$allocator@D@2@@std@@Uobject_t@gsoner@acl@@@std@@@std@@@std@@SAAEAPEAU?$_Tree_node@U?$pair@$$CBV?$basic_string@DU?$char_traits@D@std@@V?$allocator@D@2@@std@@Uobject_t@gsoner@acl@@@std@@PEAX@2@PEAU32@@Z 000000018003ce50 f i acl_stdafx.obj
 0001:0003be60       ?_Lmost@?$_Tree@V?$_Tmap_traits@V?$basic_string@DU?$char_traits@D@std@@V?$allocator@D@2@@std@@Uobject_t@gsoner@acl@@U?$less@V?$basic_string@DU?$char_traits@D@std@@V?$allocator@D@2@@std@@@2@V?$allocator@U?$pair@$$CBV?$basic_string@DU?$char_traits@D@std@@V?$allocator@D@2@@std@@Uobject_t@gsoner@acl@@@std@@@2@$0A@@std@@@std@@IEBAAEAPEAU?$_Tree_node@U?$pair@$$CBV?$basic_string@DU?$char_traits@D@std@@V?$allocator@D@2@@std@@Uobject_t@gsoner@acl@@@std@@PEAX@2@XZ 000000018003ce60 f i acl_stdafx.obj
 0001:0003bea0       ?_Lrotate@?$_Tree@V?$_Tmap_traits@V?$basic_string@DU?$char_traits@D@std@@V?$allocator@D@2@@std@@Uobject_t@gsoner@acl@@U?$less@V?$basic_string@DU?$char_traits@D@std@@V?$allocator@D@2@@std@@@2@V?$allocator@U?$pair@$$CBV?$basic_string@DU?$char_traits@D@std@@V?$allocator@D@2@@std@@Uobject_t@gsoner@acl@@@std@@@2@$0A@@std@@@std@@IEAAXPEAU?$_Tree_node@U?$pair@$$CBV?$basic_string@DU?$char_traits@D@std@@V?$allocator@D@2@@std@@Uobject_t@gsoner@acl@@@std@@PEAX@2@@Z 000000018003cea0 f i acl_stdafx.obj
 0001:0003c050       ?_Make_iter@?$list@Ufield_t@gsoner@acl@@V?$allocator@Ufield_t@gsoner@acl@@@std@@@std@@QEBA?AV?$_List_iterator@V?$_List_val@U?$_List_simple_types@Ufield_t@gsoner@acl@@@std@@@std@@@2@V?$_List_const_iterator@V?$_List_val@U?$_List_simple_types@Ufield_t@gsoner@acl@@@std@@@std@@@2@@Z 000000018003d050 f i acl_stdafx.obj
 0001:0003c0c0       ?_Make_iter@?$list@Uparent_obj_t@gsoner@acl@@V?$allocator@Uparent_obj_t@gsoner@acl@@@std@@@std@@QEBA?AV?$_List_iterator@V?$_List_val@U?$_List_simple_types@Uparent_obj_t@gsoner@acl@@@std@@@std@@@2@V?$_List_const_iterator@V?$_List_val@U?$_List_simple_types@Uparent_obj_t@gsoner@acl@@@std@@@std@@@2@@Z 000000018003d0c0 f i acl_stdafx.obj
 0001:0003c130       ?_Make_iter@?$list@V?$basic_string@DU?$char_traits@D@std@@V?$allocator@D@2@@std@@V?$allocator@V?$basic_string@DU?$char_traits@D@std@@V?$allocator@D@2@@std@@@2@@std@@QEBA?AV?$_List_iterator@V?$_List_val@U?$_List_simple_types@V?$basic_string@DU?$char_traits@D@std@@V?$allocator@D@2@@std@@@std@@@std@@@2@V?$_List_const_iterator@V?$_List_val@U?$_List_simple_types@V?$basic_string@DU?$char_traits@D@std@@V?$allocator@D@2@@std@@@std@@@std@@@2@@Z 000000018003d130 f i acl_stdafx.obj
 0001:0003c1a0       ?_Make_iter@?$list@Vstring@acl@@V?$allocator@Vstring@acl@@@std@@@std@@QEBA?AV?$_List_iterator@V?$_List_val@U?$_List_simple_types@Vstring@acl@@@std@@@std@@@2@V?$_List_const_iterator@V?$_List_val@U?$_List_simple_types@Vstring@acl@@@std@@@std@@@2@@Z 000000018003d1a0 f i acl_stdafx.obj
 0001:0003c210       ?_Max@?$_Tree_val@U?$_Tree_simple_types@U?$pair@$$CBV?$basic_string@DU?$char_traits@D@std@@V?$allocator@D@2@@std@@Uobject_t@gsoner@acl@@@std@@@std@@@std@@SAPEAU?$_Tree_node@U?$pair@$$CBV?$basic_string@DU?$char_traits@D@std@@V?$allocator@D@2@@std@@Uobject_t@gsoner@acl@@@std@@PEAX@2@PEAU32@@Z 000000018003d210 f i acl_stdafx.obj
 0001:0003c280       ?_Min@?$_Tree_val@U?$_Tree_simple_types@U?$pair@$$CBV?$basic_string@DU?$char_traits@D@std@@V?$allocator@D@2@@std@@Uobject_t@gsoner@acl@@@std@@@std@@@std@@SAPEAU?$_Tree_node@U?$pair@$$CBV?$basic_string@DU?$char_traits@D@std@@V?$allocator@D@2@@std@@Uobject_t@gsoner@acl@@@std@@PEAX@2@PEAU32@@Z 000000018003d280 f i acl_stdafx.obj
 0001:0003c2f0       ?_Mynode@?$_List_unchecked_const_iterator@V?$_List_val@U?$_List_simple_types@Ufield_t@gsoner@acl@@@std@@@std@@U_Iterator_base0@2@@std@@QEBAPEAU?$_List_node@Ufield_t@gsoner@acl@@PEAX@2@XZ 000000018003d2f0 f i acl_stdafx.obj
 0001:0003c310       ?_Mynode@?$_List_unchecked_const_iterator@V?$_List_val@U?$_List_simple_types@Ufield_t@gsoner@acl@@@std@@@std@@U_Iterator_base12@2@@std@@QEBAPEAU?$_List_node@Ufield_t@gsoner@acl@@PEAX@2@XZ 000000018003d310 f i acl_stdafx.obj
 0001:0003c330       ?_Mynode@?$_List_unchecked_const_iterator@V?$_List_val@U?$_List_simple_types@Uparent_obj_t@gsoner@acl@@@std@@@std@@U_Iterator_base0@2@@std@@QEBAPEAU?$_List_node@Uparent_obj_t@gsoner@acl@@PEAX@2@XZ 000000018003d330 f i acl_stdafx.obj
 0001:0003c350       ?_Mynode@?$_List_unchecked_const_iterator@V?$_List_val@U?$_List_simple_types@Uparent_obj_t@gsoner@acl@@@std@@@std@@U_Iterator_base12@2@@std@@QEBAPEAU?$_List_node@Uparent_obj_t@gsoner@acl@@PEAX@2@XZ 000000018003d350 f i acl_stdafx.obj
 0001:0003c370       ?_Mynode@?$_List_unchecked_const_iterator@V?$_List_val@U?$_List_simple_types@V?$basic_string@DU?$char_traits@D@std@@V?$allocator@D@2@@std@@@std@@@std@@U_Iterator_base0@2@@std@@QEBAPEAU?$_List_node@V?$basic_string@DU?$char_traits@D@std@@V?$allocator@D@2@@std@@PEAX@2@XZ 000000018003d370 f i acl_stdafx.obj
 0001:0003c390       ?_Mynode@?$_List_unchecked_const_iterator@V?$_List_val@U?$_List_simple_types@V?$basic_string@DU?$char_traits@D@std@@V?$allocator@D@2@@std@@@std@@@std@@U_Iterator_base12@2@@std@@QEBAPEAU?$_List_node@V?$basic_string@DU?$char_traits@D@std@@V?$allocator@D@2@@std@@PEAX@2@XZ 000000018003d390 f i acl_stdafx.obj
 0001:0003c3b0       ?_Mynode@?$_List_unchecked_const_iterator@V?$_List_val@U?$_List_simple_types@Vstring@acl@@@std@@@std@@U_Iterator_base0@2@@std@@QEBAPEAU?$_List_node@Vstring@acl@@PEAX@2@XZ 000000018003d3b0 f i acl_stdafx.obj
 0001:0003c3d0       ?_Mynode@?$_List_unchecked_const_iterator@V?$_List_val@U?$_List_simple_types@Vstring@acl@@@std@@@std@@U_Iterator_base12@2@@std@@QEBAPEAU?$_List_node@Vstring@acl@@PEAX@2@XZ 000000018003d3d0 f i acl_stdafx.obj
 0001:0003c3f0       ?_Mynode@?$_Tree_unchecked_const_iterator@V?$_Tree_val@U?$_Tree_simple_types@U?$pair@$$CBV?$basic_string@DU?$char_traits@D@std@@V?$allocator@D@2@@std@@Uobject_t@gsoner@acl@@@std@@@std@@@std@@U_Iterator_base12@2@@std@@QEBAPEAU?$_Tree_node@U?$pair@$$CBV?$basic_string@DU?$char_traits@D@std@@V?$allocator@D@2@@std@@Uobject_t@gsoner@acl@@@std@@PEAX@2@XZ 000000018003d3f0 f i acl_stdafx.obj
 0001:0003c410       ?_Myptr@?$_String_val@U?$_Simple_types@D@std@@@std@@QEAAPEADXZ 000000018003d410 f i acl_stdafx.obj
 0001:0003c480       ?_Myptr@?$_String_val@U?$_Simple_types@D@std@@@std@@QEBAPEBDXZ 000000018003d480 f i acl_stdafx.obj
 0001:0003c4f0       ?_Myval@?$_List_val@U?$_List_simple_types@Ufield_t@gsoner@acl@@@std@@@std@@SAAEAUfield_t@gsoner@acl@@PEAU?$_List_node@Ufield_t@gsoner@acl@@PEAX@2@@Z 000000018003d4f0 f i acl_stdafx.obj
 0001:0003c510       ?_Myval@?$_List_val@U?$_List_simple_types@Uparent_obj_t@gsoner@acl@@@std@@@std@@SAAEAUparent_obj_t@gsoner@acl@@PEAU?$_List_node@Uparent_obj_t@gsoner@acl@@PEAX@2@@Z 000000018003d510 f i acl_stdafx.obj
 0001:0003c530       ?_Myval@?$_List_val@U?$_List_simple_types@V?$basic_string@DU?$char_traits@D@std@@V?$allocator@D@2@@std@@@std@@@std@@SAAEAV?$basic_string@DU?$char_traits@D@std@@V?$allocator@D@2@@2@PEAU?$_List_node@V?$basic_string@DU?$char_traits@D@std@@V?$allocator@D@2@@std@@PEAX@2@@Z 000000018003d530 f i acl_stdafx.obj
 0001:0003c550       ?_Myval@?$_List_val@U?$_List_simple_types@Vstring@acl@@@std@@@std@@SAAEAVstring@acl@@PEAU?$_List_node@Vstring@acl@@PEAX@2@@Z 000000018003d550 f i acl_stdafx.obj
 0001:0003c570       ?_Myval@?$_Tree_val@U?$_Tree_simple_types@U?$pair@$$CBV?$basic_string@DU?$char_traits@D@std@@V?$allocator@D@2@@std@@Uobject_t@gsoner@acl@@@std@@@std@@@std@@SAAEAU?$pair@$$CBV?$basic_string@DU?$char_traits@D@std@@V?$allocator@D@2@@std@@Uobject_t@gsoner@acl@@@2@PEAU?$_Tree_node@U?$pair@$$CBV?$basic_string@DU?$char_traits@D@std@@V?$allocator@D@2@@std@@Uobject_t@gsoner@acl@@@std@@PEAX@2@@Z 000000018003d570 f i acl_stdafx.obj
 0001:0003c590       ?_Nextnode@?$_List_val@U?$_List_simple_types@Ufield_t@gsoner@acl@@@std@@@std@@SAAEAPEAU?$_List_node@Ufield_t@gsoner@acl@@PEAX@2@PEAU32@@Z 000000018003d590 f i acl_stdafx.obj
 0001:0003c5a0       ?_Nextnode@?$_List_val@U?$_List_simple_types@Uparent_obj_t@gsoner@acl@@@std@@@std@@SAAEAPEAU?$_List_node@Uparent_obj_t@gsoner@acl@@PEAX@2@PEAU32@@Z 000000018003d5a0 f i acl_stdafx.obj
 0001:0003c5b0       ?_Nextnode@?$_List_val@U?$_List_simple_types@V?$basic_string@DU?$char_traits@D@std@@V?$allocator@D@2@@std@@@std@@@std@@SAAEAPEAU?$_List_node@V?$basic_string@DU?$char_traits@D@std@@V?$allocator@D@2@@std@@PEAX@2@PEAU32@@Z 000000018003d5b0 f i acl_stdafx.obj
 0001:0003c5c0       ?_Nextnode@?$_List_val@U?$_List_simple_types@Vstring@acl@@@std@@@std@@SAAEAPEAU?$_List_node@Vstring@acl@@PEAX@2@PEAU32@@Z 000000018003d5c0 f i acl_stdafx.obj
 0001:0003c5d0       ?_Orphan_me@_Iterator_base12@std@@QEAAXXZ 000000018003d5d0 f i acl_stdafx.obj
 0001:0003c6b0       ?_Orphan_ptr@?$_Tree@V?$_Tmap_traits@V?$basic_string@DU?$char_traits@D@std@@V?$allocator@D@2@@std@@Uobject_t@gsoner@acl@@U?$less@V?$basic_string@DU?$char_traits@D@std@@V?$allocator@D@2@@std@@@2@V?$allocator@U?$pair@$$CBV?$basic_string@DU?$char_traits@D@std@@V?$allocator@D@2@@std@@Uobject_t@gsoner@acl@@@std@@@2@$0A@@std@@@std@@IEBAXAEAV12@PEAU?$_Tree_node@U?$pair@$$CBV?$basic_string@DU?$char_traits@D@std@@V?$allocator@D@2@@std@@Uobject_t@gsoner@acl@@@std@@PEAX@2@@Z 000000018003d6b0 f i acl_stdafx.obj
 0001:0003c7e0       ?_Orphan_ptr@?$list@Ufield_t@gsoner@acl@@V?$allocator@Ufield_t@gsoner@acl@@@std@@@std@@QEBAXAEAV12@PEAU?$_List_node@Ufield_t@gsoner@acl@@PEAX@2@@Z 000000018003d7e0 f i acl_stdafx.obj
 0001:0003c910       ?_Orphan_ptr@?$list@Uparent_obj_t@gsoner@acl@@V?$allocator@Uparent_obj_t@gsoner@acl@@@std@@@std@@QEBAXAEAV12@PEAU?$_List_node@Uparent_obj_t@gsoner@acl@@PEAX@2@@Z 000000018003d910 f i acl_stdafx.obj
 0001:0003ca40       ?_Orphan_ptr@?$list@V?$basic_string@DU?$char_traits@D@std@@V?$allocator@D@2@@std@@V?$allocator@V?$basic_string@DU?$char_traits@D@std@@V?$allocator@D@2@@std@@@2@@std@@QEBAXAEAV12@PEAU?$_List_node@V?$basic_string@DU?$char_traits@D@std@@V?$allocator@D@2@@std@@PEAX@2@@Z 000000018003da40 f i acl_stdafx.obj
 0001:0003cb70       ?_Orphan_ptr@?$list@Vstring@acl@@V?$allocator@Vstring@acl@@@std@@@std@@QEBAXAEAV12@PEAU?$_List_node@Vstring@acl@@PEAX@2@@Z 000000018003db70 f i acl_stdafx.obj
 0001:0003cca0       ?_Orphan_range@?$vector@Vredis_role4slave@acl@@V?$allocator@Vredis_role4slave@acl@@@std@@@std@@IEBAXPEAVredis_role4slave@acl@@0@Z 000000018003dca0 f i acl_stdafx.obj
 0001:0003cdc0       ?_Parent@?$_Tree_val@U?$_Tree_simple_types@U?$pair@$$CBV?$basic_string@DU?$char_traits@D@std@@V?$allocator@D@2@@std@@Uobject_t@gsoner@acl@@@std@@@std@@@std@@SAAEAPEAU?$_Tree_node@U?$pair@$$CBV?$basic_string@DU?$char_traits@D@std@@V?$allocator@D@2@@std@@Uobject_t@gsoner@acl@@@std@@PEAX@2@PEAU32@@Z 000000018003ddc0 f i acl_stdafx.obj
 0001:0003cde0       ?_Prevnode@?$_List_val@U?$_List_simple_types@Ufield_t@gsoner@acl@@@std@@@std@@SAAEAPEAU?$_List_node@Ufield_t@gsoner@acl@@PEAX@2@PEAU32@@Z 000000018003dde0 f i acl_stdafx.obj
 0001:0003ce00       ?_Prevnode@?$_List_val@U?$_List_simple_types@Uparent_obj_t@gsoner@acl@@@std@@@std@@SAAEAPEAU?$_List_node@Uparent_obj_t@gsoner@acl@@PEAX@2@PEAU32@@Z 000000018003de00 f i acl_stdafx.obj
 0001:0003ce20       ?_Prevnode@?$_List_val@U?$_List_simple_types@V?$basic_string@DU?$char_traits@D@std@@V?$allocator@D@2@@std@@@std@@@std@@SAAEAPEAU?$_List_node@V?$basic_string@DU?$char_traits@D@std@@V?$allocator@D@2@@std@@PEAX@2@PEAU32@@Z 000000018003de20 f i acl_stdafx.obj
 0001:0003ce40       ?_Prevnode@?$_List_val@U?$_List_simple_types@Vstring@acl@@@std@@@std@@SAAEAPEAU?$_List_node@Vstring@acl@@PEAX@2@PEAU32@@Z 000000018003de40 f i acl_stdafx.obj
 0001:0003ce60       ?_Reallocate@?$vector@Vredis_role4slave@acl@@V?$allocator@Vredis_role4slave@acl@@@std@@@std@@IEAAX_K@Z 000000018003de60 f i acl_stdafx.obj
 0001:0003d000       ?_Reserve@?$vector@Vredis_role4slave@acl@@V?$allocator@Vredis_role4slave@acl@@@std@@@std@@IEAAX_K@Z 000000018003e000 f i acl_stdafx.obj
 0001:0003d0c0       ?_Right@?$_Tree_val@U?$_Tree_simple_types@U?$pair@$$CBV?$basic_string@DU?$char_traits@D@std@@V?$allocator@D@2@@std@@Uobject_t@gsoner@acl@@@std@@@std@@@std@@SAAEAPEAU?$_Tree_node@U?$pair@$$CBV?$basic_string@DU?$char_traits@D@std@@V?$allocator@D@2@@std@@Uobject_t@gsoner@acl@@@std@@PEAX@2@PEAU32@@Z 000000018003e0c0 f i acl_stdafx.obj
 0001:0003d0e0       ?_Rmost@?$_Tree@V?$_Tmap_traits@V?$basic_string@DU?$char_traits@D@std@@V?$allocator@D@2@@std@@Uobject_t@gsoner@acl@@U?$less@V?$basic_string@DU?$char_traits@D@std@@V?$allocator@D@2@@std@@@2@V?$allocator@U?$pair@$$CBV?$basic_string@DU?$char_traits@D@std@@V?$allocator@D@2@@std@@Uobject_t@gsoner@acl@@@std@@@2@$0A@@std@@@std@@IEBAAEAPEAU?$_Tree_node@U?$pair@$$CBV?$basic_string@DU?$char_traits@D@std@@V?$allocator@D@2@@std@@Uobject_t@gsoner@acl@@@std@@PEAX@2@XZ 000000018003e0e0 f i acl_stdafx.obj
 0001:0003d120       ?_Root@?$_Tree@V?$_Tmap_traits@V?$basic_string@DU?$char_traits@D@std@@V?$allocator@D@2@@std@@Uobject_t@gsoner@acl@@U?$less@V?$basic_string@DU?$char_traits@D@std@@V?$allocator@D@2@@std@@@2@V?$allocator@U?$pair@$$CBV?$basic_string@DU?$char_traits@D@std@@V?$allocator@D@2@@std@@Uobject_t@gsoner@acl@@@std@@@2@$0A@@std@@@std@@IEBAAEAPEAU?$_Tree_node@U?$pair@$$CBV?$basic_string@DU?$char_traits@D@std@@V?$allocator@D@2@@std@@Uobject_t@gsoner@acl@@@std@@PEAX@2@XZ 000000018003e120 f i acl_stdafx.obj
 0001:0003d160       ?_Rrotate@?$_Tree@V?$_Tmap_traits@V?$basic_string@DU?$char_traits@D@std@@V?$allocator@D@2@@std@@Uobject_t@gsoner@acl@@U?$less@V?$basic_string@DU?$char_traits@D@std@@V?$allocator@D@2@@std@@@2@V?$allocator@U?$pair@$$CBV?$basic_string@DU?$char_traits@D@std@@V?$allocator@D@2@@std@@Uobject_t@gsoner@acl@@@std@@@2@$0A@@std@@@std@@IEAAXPEAU?$_Tree_node@U?$pair@$$CBV?$basic_string@DU?$char_traits@D@std@@V?$allocator@D@2@@std@@Uobject_t@gsoner@acl@@@std@@PEAX@2@@Z 000000018003e160 f i acl_stdafx.obj
 0001:0003d310       ?_Setcomp@?$_Tree_comp@$0A@V?$_Tmap_traits@V?$basic_string@DU?$char_traits@D@std@@V?$allocator@D@2@@std@@Uobject_t@gsoner@acl@@U?$less@V?$basic_string@DU?$char_traits@D@std@@V?$allocator@D@2@@std@@@2@V?$allocator@U?$pair@$$CBV?$basic_string@DU?$char_traits@D@std@@V?$allocator@D@2@@std@@Uobject_t@gsoner@acl@@@std@@@2@$0A@@std@@@std@@QEAAXAEBU?$less@V?$basic_string@DU?$char_traits@D@std@@V?$allocator@D@2@@std@@@2@@Z 000000018003e310 f i acl_stdafx.obj
 0001:0003d320       ?_Tidy@?$_Tree@V?$_Tmap_traits@V?$basic_string@DU?$char_traits@D@std@@V?$allocator@D@2@@std@@Uobject_t@gsoner@acl@@U?$less@V?$basic_string@DU?$char_traits@D@std@@V?$allocator@D@2@@std@@@2@V?$allocator@U?$pair@$$CBV?$basic_string@DU?$char_traits@D@std@@V?$allocator@D@2@@std@@Uobject_t@gsoner@acl@@@std@@@2@$0A@@std@@@std@@IEAAXXZ 000000018003e320 f i acl_stdafx.obj
 0001:0003d4a0       ?_Tidy@?$basic_string@DU?$char_traits@D@std@@V?$allocator@D@2@@std@@QEAAX_N_K@Z 000000018003e4a0 f i acl_stdafx.obj
 0001:0003d5e0       ?_Tidy@?$list@Ufield_t@gsoner@acl@@V?$allocator@Ufield_t@gsoner@acl@@@std@@@std@@QEAAXXZ 000000018003e5e0 f i acl_stdafx.obj
 0001:0003d620       ?_Tidy@?$list@Uparent_obj_t@gsoner@acl@@V?$allocator@Uparent_obj_t@gsoner@acl@@@std@@@std@@QEAAXXZ 000000018003e620 f i acl_stdafx.obj
 0001:0003d660       ?_Tidy@?$list@V?$basic_string@DU?$char_traits@D@std@@V?$allocator@D@2@@std@@V?$allocator@V?$basic_string@DU?$char_traits@D@std@@V?$allocator@D@2@@std@@@2@@std@@QEAAXXZ 000000018003e660 f i acl_stdafx.obj
 0001:0003d6a0       ?_Tidy@?$list@Vstring@acl@@V?$allocator@Vstring@acl@@@std@@@std@@QEAAXXZ 000000018003e6a0 f i acl_stdafx.obj
 0001:0003d6e0       ?_Tidy@?$vector@PEAVredis_slot@acl@@V?$allocator@PEAVredis_slot@acl@@@std@@@std@@IEAAXXZ 000000018003e6e0 f i acl_stdafx.obj
 0001:0003d7e0       ?_Tidy@?$vector@Vredis_role4slave@acl@@V?$allocator@Vredis_role4slave@acl@@@std@@@std@@IEAAXXZ 000000018003e7e0 f i acl_stdafx.obj
 0001:0003d8f0       ?_Tidy@?$vector@Vstring@acl@@V?$allocator@Vstring@acl@@@std@@@std@@IEAAXXZ 000000018003e8f0 f i acl_stdafx.obj
 0001:0003da00       ?_Unchecked@?$_List_const_iterator@V?$_List_val@U?$_List_simple_types@Ufield_t@gsoner@acl@@@std@@@std@@@std@@QEBA?AV?$_List_unchecked_const_iterator@V?$_List_val@U?$_List_simple_types@Ufield_t@gsoner@acl@@@std@@@std@@U_Iterator_base0@2@@2@XZ 000000018003ea00 f i acl_stdafx.obj
 0001:0003da70       ?_Unchecked@?$_List_const_iterator@V?$_List_val@U?$_List_simple_types@Uparent_obj_t@gsoner@acl@@@std@@@std@@@std@@QEBA?AV?$_List_unchecked_const_iterator@V?$_List_val@U?$_List_simple_types@Uparent_obj_t@gsoner@acl@@@std@@@std@@U_Iterator_base0@2@@2@XZ 000000018003ea70 f i acl_stdafx.obj
 0001:0003dae0       ?_Unchecked@?$_List_const_iterator@V?$_List_val@U?$_List_simple_types@V?$basic_string@DU?$char_traits@D@std@@V?$allocator@D@2@@std@@@std@@@std@@@std@@QEBA?AV?$_List_unchecked_const_iterator@V?$_List_val@U?$_List_simple_types@V?$basic_string@DU?$char_traits@D@std@@V?$allocator@D@2@@std@@@std@@@std@@U_Iterator_base0@2@@2@XZ 000000018003eae0 f i acl_stdafx.obj
 0001:0003db50       ?_Unchecked@?$_List_const_iterator@V?$_List_val@U?$_List_simple_types@Vstring@acl@@@std@@@std@@@std@@QEBA?AV?$_List_unchecked_const_iterator@V?$_List_val@U?$_List_simple_types@Vstring@acl@@@std@@@std@@U_Iterator_base0@2@@2@XZ 000000018003eb50 f i acl_stdafx.obj
 0001:0003dbc0       ?_Unchecked@?$_Vector_const_iterator@V?$_Vector_val@U?$_Simple_types@Vredis_role4slave@acl@@@std@@@std@@@std@@QEBAPEBVredis_role4slave@acl@@XZ 000000018003ebc0 f i acl_stdafx.obj
 0001:0003dbe0       ?_Unchecked_end@?$list@Ufield_t@gsoner@acl@@V?$allocator@Ufield_t@gsoner@acl@@@std@@@std@@QEAA?AV?$_List_unchecked_iterator@V?$_List_val@U?$_List_simple_types@Ufield_t@gsoner@acl@@@std@@@std@@@2@XZ 000000018003ebe0 f i acl_stdafx.obj
 0001:0003dc40       ?_Unchecked_end@?$list@Uparent_obj_t@gsoner@acl@@V?$allocator@Uparent_obj_t@gsoner@acl@@@std@@@std@@QEAA?AV?$_List_unchecked_iterator@V?$_List_val@U?$_List_simple_types@Uparent_obj_t@gsoner@acl@@@std@@@std@@@2@XZ 000000018003ec40 f i acl_stdafx.obj
 0001:0003dca0       ?_Unchecked_end@?$list@V?$basic_string@DU?$char_traits@D@std@@V?$allocator@D@2@@std@@V?$allocator@V?$basic_string@DU?$char_traits@D@std@@V?$allocator@D@2@@std@@@2@@std@@QEAA?AV?$_List_unchecked_iterator@V?$_List_val@U?$_List_simple_types@V?$basic_string@DU?$char_traits@D@std@@V?$allocator@D@2@@std@@@std@@@std@@@2@XZ 000000018003eca0 f i acl_stdafx.obj
 0001:0003dd00       ?_Unchecked_end@?$list@Vstring@acl@@V?$allocator@Vstring@acl@@@std@@@std@@QEAA?AV?$_List_unchecked_iterator@V?$_List_val@U?$_List_simple_types@Vstring@acl@@@std@@@std@@@2@XZ 000000018003ed00 f i acl_stdafx.obj
 0001:0003dd60       ?_Unchecked_erase@?$list@Ufield_t@gsoner@acl@@V?$allocator@Ufield_t@gsoner@acl@@@std@@@std@@QEAAXV?$_List_unchecked_const_iterator@V?$_List_val@U?$_List_simple_types@Ufield_t@gsoner@acl@@@std@@@std@@U_Iterator_base0@2@@2@@Z 000000018003ed60 f i acl_stdafx.obj
 0001:0003de50       ?_Unchecked_erase@?$list@Uparent_obj_t@gsoner@acl@@V?$allocator@Uparent_obj_t@gsoner@acl@@@std@@@std@@QEAAXV?$_List_unchecked_const_iterator@V?$_List_val@U?$_List_simple_types@Uparent_obj_t@gsoner@acl@@@std@@@std@@U_Iterator_base0@2@@2@@Z 000000018003ee50 f i acl_stdafx.obj
 0001:0003df40       ?_Unchecked_erase@?$list@V?$basic_string@DU?$char_traits@D@std@@V?$allocator@D@2@@std@@V?$allocator@V?$basic_string@DU?$char_traits@D@std@@V?$allocator@D@2@@std@@@2@@std@@QEAAXV?$_List_unchecked_const_iterator@V?$_List_val@U?$_List_simple_types@V?$basic_string@DU?$char_traits@D@std@@V?$allocator@D@2@@std@@@std@@@std@@U_Iterator_base0@2@@2@@Z 000000018003ef40 f i acl_stdafx.obj
 0001:0003e030       ?_Unchecked_erase@?$list@Vstring@acl@@V?$allocator@Vstring@acl@@@std@@@std@@QEAAXV?$_List_unchecked_const_iterator@V?$_List_val@U?$_List_simple_types@Vstring@acl@@@std@@@std@@U_Iterator_base0@2@@2@@Z 000000018003f030 f i acl_stdafx.obj
 0001:0003e120       ?_Unlinknode@?$list@Ufield_t@gsoner@acl@@V?$allocator@Ufield_t@gsoner@acl@@@std@@@std@@QEAAPEAU?$_List_node@Ufield_t@gsoner@acl@@PEAX@2@V?$_List_const_iterator@V?$_List_val@U?$_List_simple_types@Ufield_t@gsoner@acl@@@std@@@std@@@2@@Z 000000018003f120 f i acl_stdafx.obj
 0001:0003e280       ?_Unlinknode@?$list@Uparent_obj_t@gsoner@acl@@V?$allocator@Uparent_obj_t@gsoner@acl@@@std@@@std@@QEAAPEAU?$_List_node@Uparent_obj_t@gsoner@acl@@PEAX@2@V?$_List_const_iterator@V?$_List_val@U?$_List_simple_types@Uparent_obj_t@gsoner@acl@@@std@@@std@@@2@@Z 000000018003f280 f i acl_stdafx.obj
 0001:0003e3e0       ?_Unlinknode@?$list@V?$basic_string@DU?$char_traits@D@std@@V?$allocator@D@2@@std@@V?$allocator@V?$basic_string@DU?$char_traits@D@std@@V?$allocator@D@2@@std@@@2@@std@@QEAAPEAU?$_List_node@V?$basic_string@DU?$char_traits@D@std@@V?$allocator@D@2@@std@@PEAX@2@V?$_List_const_iterator@V?$_List_val@U?$_List_simple_types@V?$basic_string@DU?$char_traits@D@std@@V?$allocator@D@2@@std@@@std@@@std@@@2@@Z 000000018003f3e0 f i acl_stdafx.obj
 0001:0003e540       ?_Unlinknode@?$list@Vstring@acl@@V?$allocator@Vstring@acl@@@std@@@std@@QEAAPEAU?$_List_node@Vstring@acl@@PEAX@2@V?$_List_const_iterator@V?$_List_val@U?$_List_simple_types@Vstring@acl@@@std@@@std@@@2@@Z 000000018003f540 f i acl_stdafx.obj
 0001:0003e6a0       ?_Unused_capacity@?$vector@Vredis_role4slave@acl@@V?$allocator@Vredis_role4slave@acl@@@std@@@std@@QEBA_KXZ 000000018003f6a0 f i acl_stdafx.obj
 0001:0003e6d0       ?_Xlen@?$basic_string@DU?$char_traits@D@std@@V?$allocator@D@2@@std@@QEBAXXZ 000000018003f6d0 f i acl_stdafx.obj
 0001:0003e710       ?_Xlen@?$vector@PEAVredis_slot@acl@@V?$allocator@PEAVredis_slot@acl@@@std@@@std@@IEBAXXZ 000000018003f710 f i acl_stdafx.obj
 0001:0003e750       ?_Xlen@?$vector@Vredis_role4slave@acl@@V?$allocator@Vredis_role4slave@acl@@@std@@@std@@IEBAXXZ 000000018003f750 f i acl_stdafx.obj
 0001:0003e790       ?_Xran@?$basic_string@DU?$char_traits@D@std@@V?$allocator@D@2@@std@@QEBAXXZ 000000018003f790 f i acl_stdafx.obj
 0001:0003e7d0       ?add_bcc@mime@acl@@QEAAAEAV12@PEBD@Z 000000018003f7d0 f i acl_stdafx.obj
 0001:0003e820       ?add_cc@mime@acl@@QEAAAEAV12@PEBD@Z 000000018003f820 f i acl_stdafx.obj
 0001:0003e870       ?add_header@mime@acl@@QEAAAEAV12@PEBD0@Z 000000018003f870 f i acl_stdafx.obj
 0001:0003e8d0       ?add_rcpt@mime@acl@@QEAAAEAV12@PEBD@Z 000000018003f8d0 f i acl_stdafx.obj
 0001:0003e920       ?add_slave@redis_role4master@acl@@QEAAXAEBVredis_role4slave@2@@Z 000000018003f920 f i acl_stdafx.obj
 0001:0003e970       ?add_to@mime@acl@@QEAAAEAV12@PEBD@Z 000000018003f970 f i acl_stdafx.obj
 0001:0003e9c0       ?allocate@?$_Wrap_alloc@V?$allocator@D@std@@@std@@QEAAPEAD_K@Z 000000018003f9c0 f i acl_stdafx.obj
 0001:0003ea10       ?allocate@?$_Wrap_alloc@V?$allocator@PEAVredis_slot@acl@@@std@@@std@@QEAAPEAPEAVredis_slot@acl@@_K@Z 000000018003fa10 f i acl_stdafx.obj
 0001:0003ea60       ?allocate@?$_Wrap_alloc@V?$allocator@U?$_List_node@Ufield_t@gsoner@acl@@PEAX@std@@@std@@@std@@QEAAPEAU?$_List_node@Ufield_t@gsoner@acl@@PEAX@2@_K@Z 000000018003fa60 f i acl_stdafx.obj
 0001:0003eab0       ?allocate@?$_Wrap_alloc@V?$allocator@U?$_List_node@Uparent_obj_t@gsoner@acl@@PEAX@std@@@std@@@std@@QEAAPEAU?$_List_node@Uparent_obj_t@gsoner@acl@@PEAX@2@_K@Z 000000018003fab0 f i acl_stdafx.obj
 0001:0003eb00       ?allocate@?$_Wrap_alloc@V?$allocator@U?$_List_node@V?$basic_string@DU?$char_traits@D@std@@V?$allocator@D@2@@std@@PEAX@std@@@std@@@std@@QEAAPEAU?$_List_node@V?$basic_string@DU?$char_traits@D@std@@V?$allocator@D@2@@std@@PEAX@2@_K@Z 000000018003fb00 f i acl_stdafx.obj
 0001:0003eb50       ?allocate@?$_Wrap_alloc@V?$allocator@U?$_List_node@Vstring@acl@@PEAX@std@@@std@@@std@@QEAAPEAU?$_List_node@Vstring@acl@@PEAX@2@_K@Z 000000018003fb50 f i acl_stdafx.obj
 0001:0003eba0       ?allocate@?$_Wrap_alloc@V?$allocator@U?$_Tree_node@U?$pair@$$CBV?$basic_string@DU?$char_traits@D@std@@V?$allocator@D@2@@std@@Uobject_t@gsoner@acl@@@std@@PEAX@std@@@std@@@std@@QEAAPEAU?$_Tree_node@U?$pair@$$CBV?$basic_string@DU?$char_traits@D@std@@V?$allocator@D@2@@std@@Uobject_t@gsoner@acl@@@std@@PEAX@2@_K@Z 000000018003fba0 f i acl_stdafx.obj
 0001:0003ebf0       ?allocate@?$_Wrap_alloc@V?$allocator@U_Container_proxy@std@@@std@@@std@@QEAAPEAU_Container_proxy@2@_K@Z 000000018003fbf0 f i acl_stdafx.obj
 0001:0003ec40       ?allocate@?$_Wrap_alloc@V?$allocator@Vredis_role4slave@acl@@@std@@@std@@QEAAPEAVredis_role4slave@acl@@_K@Z 000000018003fc40 f i acl_stdafx.obj
 0001:0003ec90       ?allocate@?$allocator@D@std@@QEAAPEAD_K@Z 000000018003fc90 f i acl_stdafx.obj
 0001:0003ece0       ?allocate@?$allocator@PEAVredis_slot@acl@@@std@@QEAAPEAPEAVredis_slot@acl@@_K@Z 000000018003fce0 f i acl_stdafx.obj
 0001:0003ed30       ?allocate@?$allocator@U?$_List_node@Ufield_t@gsoner@acl@@PEAX@std@@@std@@QEAAPEAU?$_List_node@Ufield_t@gsoner@acl@@PEAX@2@_K@Z 000000018003fd30 f i acl_stdafx.obj
 0001:0003ed80       ?allocate@?$allocator@U?$_List_node@Uparent_obj_t@gsoner@acl@@PEAX@std@@@std@@QEAAPEAU?$_List_node@Uparent_obj_t@gsoner@acl@@PEAX@2@_K@Z 000000018003fd80 f i acl_stdafx.obj
 0001:0003edd0       ?allocate@?$allocator@U?$_List_node@V?$basic_string@DU?$char_traits@D@std@@V?$allocator@D@2@@std@@PEAX@std@@@std@@QEAAPEAU?$_List_node@V?$basic_string@DU?$char_traits@D@std@@V?$allocator@D@2@@std@@PEAX@2@_K@Z 000000018003fdd0 f i acl_stdafx.obj
 0001:0003ee20       ?allocate@?$allocator@U?$_List_node@Vstring@acl@@PEAX@std@@@std@@QEAAPEAU?$_List_node@Vstring@acl@@PEAX@2@_K@Z 000000018003fe20 f i acl_stdafx.obj
 0001:0003ee70       ?allocate@?$allocator@U?$_Tree_node@U?$pair@$$CBV?$basic_string@DU?$char_traits@D@std@@V?$allocator@D@2@@std@@Uobject_t@gsoner@acl@@@std@@PEAX@std@@@std@@QEAAPEAU?$_Tree_node@U?$pair@$$CBV?$basic_string@DU?$char_traits@D@std@@V?$allocator@D@2@@std@@Uobject_t@gsoner@acl@@@std@@PEAX@2@_K@Z 000000018003fe70 f i acl_stdafx.obj
 0001:0003eec0       ?allocate@?$allocator@U_Container_proxy@std@@@std@@QEAAPEAU_Container_proxy@2@_K@Z 000000018003fec0 f i acl_stdafx.obj
 0001:0003ef10       ?allocate@?$allocator@Vredis_role4slave@acl@@@std@@QEAAPEAVredis_role4slave@acl@@_K@Z 000000018003ff10 f i acl_stdafx.obj
 0001:0003ef60       ?assign@?$basic_string@DU?$char_traits@D@std@@V?$allocator@D@2@@std@@QEAAAEAV12@AEBV12@@Z 000000018003ff60 f i acl_stdafx.obj
 0001:0003efc0       ?assign@?$basic_string@DU?$char_traits@D@std@@V?$allocator@D@2@@std@@QEAAAEAV12@AEBV12@_K1@Z 000000018003ffc0 f i acl_stdafx.obj
 0001:0003f120       ?assign@?$basic_string@DU?$char_traits@D@std@@V?$allocator@D@2@@std@@QEAAAEAV12@PEBD@Z 0000000180040120 f i acl_stdafx.obj
 0001:0003f1a0       ?assign@?$basic_string@DU?$char_traits@D@std@@V?$allocator@D@2@@std@@QEAAAEAV12@PEBD_K@Z 00000001800401a0 f i acl_stdafx.obj
 0001:0003f2b0       ?assign@?$char_traits@D@std@@SAXAEADAEBD@Z 00000001800402b0 f i acl_stdafx.obj
 0001:0003f2e0       ?bcc_list@mime@acl@@QEBAAEBV?$list@PEADV?$allocator@PEAD@std@@@std@@XZ 00000001800402e0 f i acl_stdafx.obj
 0001:0003f320       ?begin@?$_Tree@V?$_Tmap_traits@V?$basic_string@DU?$char_traits@D@std@@V?$allocator@D@2@@std@@Uobject_t@gsoner@acl@@U?$less@V?$basic_string@DU?$char_traits@D@std@@V?$allocator@D@2@@std@@@2@V?$allocator@U?$pair@$$CBV?$basic_string@DU?$char_traits@D@std@@V?$allocator@D@2@@std@@Uobject_t@gsoner@acl@@@std@@@2@$0A@@std@@@std@@QEAA?AV?$_Tree_iterator@V?$_Tree_val@U?$_Tree_simple_types@U?$pair@$$CBV?$basic_string@DU?$char_traits@D@std@@V?$allocator@D@2@@std@@Uobject_t@gsoner@acl@@@std@@@std@@@std@@@2@XZ 0000000180040320 f i acl_stdafx.obj
 0001:0003f380       ?begin@?$list@Ufield_t@gsoner@acl@@V?$allocator@Ufield_t@gsoner@acl@@@std@@@std@@QEAA?AV?$_List_iterator@V?$_List_val@U?$_List_simple_types@Ufield_t@gsoner@acl@@@std@@@std@@@2@XZ 0000000180040380 f i acl_stdafx.obj
 0001:0003f3f0       ?begin@?$list@Ufield_t@gsoner@acl@@V?$allocator@Ufield_t@gsoner@acl@@@std@@@std@@QEBA?AV?$_List_const_iterator@V?$_List_val@U?$_List_simple_types@Ufield_t@gsoner@acl@@@std@@@std@@@2@XZ 00000001800403f0 f i acl_stdafx.obj
 0001:0003f460       ?begin@?$list@Uparent_obj_t@gsoner@acl@@V?$allocator@Uparent_obj_t@gsoner@acl@@@std@@@std@@QEAA?AV?$_List_iterator@V?$_List_val@U?$_List_simple_types@Uparent_obj_t@gsoner@acl@@@std@@@std@@@2@XZ 0000000180040460 f i acl_stdafx.obj
 0001:0003f4d0       ?begin@?$list@Uparent_obj_t@gsoner@acl@@V?$allocator@Uparent_obj_t@gsoner@acl@@@std@@@std@@QEBA?AV?$_List_const_iterator@V?$_List_val@U?$_List_simple_types@Uparent_obj_t@gsoner@acl@@@std@@@std@@@2@XZ 00000001800404d0 f i acl_stdafx.obj
 0001:0003f540       ?begin@?$list@V?$basic_string@DU?$char_traits@D@std@@V?$allocator@D@2@@std@@V?$allocator@V?$basic_string@DU?$char_traits@D@std@@V?$allocator@D@2@@std@@@2@@std@@QEAA?AV?$_List_iterator@V?$_List_val@U?$_List_simple_types@V?$basic_string@DU?$char_traits@D@std@@V?$allocator@D@2@@std@@@std@@@std@@@2@XZ 0000000180040540 f i acl_stdafx.obj
 0001:0003f5b0       ?begin@?$list@V?$basic_string@DU?$char_traits@D@std@@V?$allocator@D@2@@std@@V?$allocator@V?$basic_string@DU?$char_traits@D@std@@V?$allocator@D@2@@std@@@2@@std@@QEBA?AV?$_List_const_iterator@V?$_List_val@U?$_List_simple_types@V?$basic_string@DU?$char_traits@D@std@@V?$allocator@D@2@@std@@@std@@@std@@@2@XZ 00000001800405b0 f i acl_stdafx.obj
 0001:0003f620       ?begin@?$list@Vstring@acl@@V?$allocator@Vstring@acl@@@std@@@std@@QEAA?AV?$_List_iterator@V?$_List_val@U?$_List_simple_types@Vstring@acl@@@std@@@std@@@2@XZ 0000000180040620 f i acl_stdafx.obj
 0001:0003f690       ?begin@?$list@Vstring@acl@@V?$allocator@Vstring@acl@@@std@@@std@@QEBA?AV?$_List_const_iterator@V?$_List_val@U?$_List_simple_types@Vstring@acl@@@std@@@std@@@2@XZ 0000000180040690 f i acl_stdafx.obj
 0001:0003f700       ?begin@?$vector@Vredis_role4slave@acl@@V?$allocator@Vredis_role4slave@acl@@@std@@@std@@QEBA?AV?$_Vector_const_iterator@V?$_Vector_val@U?$_Simple_types@Vredis_role4slave@acl@@@std@@@std@@@2@XZ 0000000180040700 f i acl_stdafx.obj
 0001:0003f760       ?begin_transaction@db_handle@acl@@UEAA_NXZ 0000000180040760 f i acl_stdafx.obj
 0001:0003f770       ?blocked@check_client@acl@@QEBA_NXZ 0000000180040770 f i acl_stdafx.obj
 0001:0003f790       ?build_xml@xml@acl@@UEBAXAEAVstring@2@@Z 0000000180040790 f i acl_stdafx.obj
 0001:0003f7a0       ?c_str@pipe_string@acl@@QEBAPEADXZ 00000001800407a0 f i acl_stdafx.obj
 0001:0003f7e0       ?capacity@?$vector@PEAVredis_slot@acl@@V?$allocator@PEAVredis_slot@acl@@@std@@@std@@QEBA_KXZ 00000001800407e0 f i acl_stdafx.obj
 0001:0003f810       ?capacity@?$vector@Vredis_role4slave@acl@@V?$allocator@Vredis_role4slave@acl@@@std@@@std@@QEBA_KXZ 0000000180040810 f i acl_stdafx.obj
 0001:0003f840       ?category@error_code@std@@QEBAAEBVerror_category@2@XZ 0000000180040840 f i acl_stdafx.obj
 0001:0003f860       ?category@error_condition@std@@QEBAAEBVerror_category@2@XZ 0000000180040860 f i acl_stdafx.obj
 0001:0003f880       ?cc_list@mime@acl@@QEBAAEBV?$list@PEADV?$allocator@PEAD@std@@@std@@XZ 0000000180040880 f i acl_stdafx.obj
 0001:0003f8c0       ?chunked_transfer@http_header@acl@@QEBA_NXZ 00000001800408c0 f i acl_stdafx.obj
 0001:0003f8e0       ?clear@?$_Tree@V?$_Tmap_traits@V?$basic_string@DU?$char_traits@D@std@@V?$allocator@D@2@@std@@Uobject_t@gsoner@acl@@U?$less@V?$basic_string@DU?$char_traits@D@std@@V?$allocator@D@2@@std@@@2@V?$allocator@U?$pair@$$CBV?$basic_string@DU?$char_traits@D@std@@V?$allocator@D@2@@std@@Uobject_t@gsoner@acl@@@std@@@2@$0A@@std@@@std@@QEAAXXZ 00000001800408e0 f i acl_stdafx.obj
 0001:0003f9b0       ?clear@?$list@Ufield_t@gsoner@acl@@V?$allocator@Ufield_t@gsoner@acl@@@std@@@std@@QEAAXXZ 00000001800409b0 f i acl_stdafx.obj
 0001:0003fab0       ?clear@?$list@Uparent_obj_t@gsoner@acl@@V?$allocator@Uparent_obj_t@gsoner@acl@@@std@@@std@@QEAAXXZ 0000000180040ab0 f i acl_stdafx.obj
 0001:0003fbb0       ?clear@?$list@V?$basic_string@DU?$char_traits@D@std@@V?$allocator@D@2@@std@@V?$allocator@V?$basic_string@DU?$char_traits@D@std@@V?$allocator@D@2@@std@@@2@@std@@QEAAXXZ 0000000180040bb0 f i acl_stdafx.obj
 0001:0003fcb0       ?clear@?$list@Vstring@acl@@V?$allocator@Vstring@acl@@@std@@@std@@QEAAXXZ 0000000180040cb0 f i acl_stdafx.obj
 0001:0003fdb0       ?clear@?$vector@PEAVredis_slot@acl@@V?$allocator@PEAVredis_slot@acl@@@std@@@std@@QEAAXXZ 0000000180040db0 f i acl_stdafx.obj
 0001:0003fe30       ?clear@?$vector@Vredis_role4slave@acl@@V?$allocator@Vredis_role4slave@acl@@@std@@@std@@QEAAXXZ 0000000180040e30 f i acl_stdafx.obj
 0001:0003feb0       ?clear@pipe_stream@acl@@UEAAXXZ 0000000180040eb0 f i acl_stdafx.obj
 0001:0003fec0       ?clear@pipe_string@acl@@UEAAXXZ 0000000180040ec0 f i acl_stdafx.obj
 0001:0003ff10       ?close_callback@aio_callback@acl@@UEAAXXZ 0000000180040f10 f i acl_stdafx.obj
 0001:0003ff20       ?commit@db_handle@acl@@UEAA_NXZ 0000000180040f20 f i acl_stdafx.obj
 0001:0003ff30       ?cond_wait_timeout@rpc_request@acl@@IEBA_NXZ 0000000180040f30 f i acl_stdafx.obj
 0001:0003ff50       ?construct@?$allocator@Vredis_role4slave@acl@@@std@@QEAAXPEAVredis_role4slave@acl@@AEBV34@@Z 0000000180040f50 f i acl_stdafx.obj
 0001:0003fff0       ?copy@?$char_traits@D@std@@SAPEADPEADPEBD_K@Z 0000000180040ff0 f i acl_stdafx.obj
 0001:00040070       ?create_window@ipc_server@acl@@MEAA_NXZ 0000000180041070 f i acl_stdafx.obj
 0001:00040080       ?dbuf_alloc@dbuf_guard@acl@@QEAAPEAX_K@Z 0000000180041080 f i acl_stdafx.obj
 0001:000400d0       ?dbuf_calloc@dbuf_guard@acl@@QEAAPEAX_K@Z 00000001800410d0 f i acl_stdafx.obj
 0001:00040120       ?dbuf_free@dbuf_guard@acl@@QEAA_NPEBX@Z 0000000180041120 f i acl_stdafx.obj
 0001:00040170       ?dbuf_keep@dbuf_guard@acl@@QEAA_NPEBX@Z 0000000180041170 f i acl_stdafx.obj
 0001:000401c0       ?dbuf_memdup@dbuf_guard@acl@@QEAAPEAXPEBX_K@Z 00000001800411c0 f i acl_stdafx.obj
 0001:00040220       ?dbuf_strdup@dbuf_guard@acl@@QEAAPEADPEBD@Z 0000000180041220 f i acl_stdafx.obj
 0001:00040270       ?dbuf_strndup@dbuf_guard@acl@@QEAAPEADPEBD_K@Z 0000000180041270 f i acl_stdafx.obj
 0001:000402d0       ?dbuf_unkeep@dbuf_guard@acl@@QEAA_NPEBX@Z 00000001800412d0 f i acl_stdafx.obj
 0001:00040320       ?deallocate@?$_Wrap_alloc@V?$allocator@D@std@@@std@@QEAAXPEAD_K@Z 0000000180041320 f i acl_stdafx.obj
 0001:00040380       ?deallocate@?$_Wrap_alloc@V?$allocator@PEAVredis_slot@acl@@@std@@@std@@QEAAXPEAPEAVredis_slot@acl@@_K@Z 0000000180041380 f i acl_stdafx.obj
 0001:000403e0       ?deallocate@?$_Wrap_alloc@V?$allocator@U?$_List_node@Ufield_t@gsoner@acl@@PEAX@std@@@std@@@std@@QEAAXPEAU?$_List_node@Ufield_t@gsoner@acl@@PEAX@2@_K@Z 00000001800413e0 f i acl_stdafx.obj
 0001:00040440       ?deallocate@?$_Wrap_alloc@V?$allocator@U?$_List_node@Uparent_obj_t@gsoner@acl@@PEAX@std@@@std@@@std@@QEAAXPEAU?$_List_node@Uparent_obj_t@gsoner@acl@@PEAX@2@_K@Z 0000000180041440 f i acl_stdafx.obj
 0001:000404a0       ?deallocate@?$_Wrap_alloc@V?$allocator@U?$_List_node@V?$basic_string@DU?$char_traits@D@std@@V?$allocator@D@2@@std@@PEAX@std@@@std@@@std@@QEAAXPEAU?$_List_node@V?$basic_string@DU?$char_traits@D@std@@V?$allocator@D@2@@std@@PEAX@2@_K@Z 00000001800414a0 f i acl_stdafx.obj
 0001:00040500       ?deallocate@?$_Wrap_alloc@V?$allocator@U?$_List_node@Vstring@acl@@PEAX@std@@@std@@@std@@QEAAXPEAU?$_List_node@Vstring@acl@@PEAX@2@_K@Z 0000000180041500 f i acl_stdafx.obj
 0001:00040560       ?deallocate@?$_Wrap_alloc@V?$allocator@U?$_Tree_node@U?$pair@$$CBV?$basic_string@DU?$char_traits@D@std@@V?$allocator@D@2@@std@@Uobject_t@gsoner@acl@@@std@@PEAX@std@@@std@@@std@@QEAAXPEAU?$_Tree_node@U?$pair@$$CBV?$basic_string@DU?$char_traits@D@std@@V?$allocator@D@2@@std@@Uobject_t@gsoner@acl@@@std@@PEAX@2@_K@Z 0000000180041560 f i acl_stdafx.obj
 0001:000405c0       ?deallocate@?$_Wrap_alloc@V?$allocator@U_Container_proxy@std@@@std@@@std@@QEAAXPEAU_Container_proxy@2@_K@Z 00000001800415c0 f i acl_stdafx.obj
 0001:00040620       ?deallocate@?$_Wrap_alloc@V?$allocator@Vredis_role4slave@acl@@@std@@@std@@QEAAXPEAVredis_role4slave@acl@@_K@Z 0000000180041620 f i acl_stdafx.obj
 0001:00040680       ?deallocate@?$_Wrap_alloc@V?$allocator@Vstring@acl@@@std@@@std@@QEAAXPEAVstring@acl@@_K@Z 0000000180041680 f i acl_stdafx.obj
 0001:000406e0       ?deallocate@?$allocator@D@std@@QEAAXPEAD_K@Z 00000001800416e0 f i acl_stdafx.obj
 0001:00040730       ?deallocate@?$allocator@PEAVredis_slot@acl@@@std@@QEAAXPEAPEAVredis_slot@acl@@_K@Z 0000000180041730 f i acl_stdafx.obj
 0001:00040780       ?deallocate@?$allocator@U?$_List_node@Ufield_t@gsoner@acl@@PEAX@std@@@std@@QEAAXPEAU?$_List_node@Ufield_t@gsoner@acl@@PEAX@2@_K@Z 0000000180041780 f i acl_stdafx.obj
 0001:000407d0       ?deallocate@?$allocator@U?$_List_node@Uparent_obj_t@gsoner@acl@@PEAX@std@@@std@@QEAAXPEAU?$_List_node@Uparent_obj_t@gsoner@acl@@PEAX@2@_K@Z 00000001800417d0 f i acl_stdafx.obj
 0001:00040820       ?deallocate@?$allocator@U?$_List_node@V?$basic_string@DU?$char_traits@D@std@@V?$allocator@D@2@@std@@PEAX@std@@@std@@QEAAXPEAU?$_List_node@V?$basic_string@DU?$char_traits@D@std@@V?$allocator@D@2@@std@@PEAX@2@_K@Z 0000000180041820 f i acl_stdafx.obj
 0001:00040870       ?deallocate@?$allocator@U?$_List_node@Vstring@acl@@PEAX@std@@@std@@QEAAXPEAU?$_List_node@Vstring@acl@@PEAX@2@_K@Z 0000000180041870 f i acl_stdafx.obj
 0001:000408c0       ?deallocate@?$allocator@U?$_Tree_node@U?$pair@$$CBV?$basic_string@DU?$char_traits@D@std@@V?$allocator@D@2@@std@@Uobject_t@gsoner@acl@@@std@@PEAX@std@@@std@@QEAAXPEAU?$_Tree_node@U?$pair@$$CBV?$basic_string@DU?$char_traits@D@std@@V?$allocator@D@2@@std@@Uobject_t@gsoner@acl@@@std@@PEAX@2@_K@Z 00000001800418c0 f i acl_stdafx.obj
 0001:00040910       ?deallocate@?$allocator@U_Container_proxy@std@@@std@@QEAAXPEAU_Container_proxy@2@_K@Z 0000000180041910 f i acl_stdafx.obj
 0001:00040960       ?deallocate@?$allocator@Vredis_role4slave@acl@@@std@@QEAAXPEAVredis_role4slave@acl@@_K@Z 0000000180041960 f i acl_stdafx.obj
 0001:000409b0       ?deallocate@?$allocator@Vstring@acl@@@std@@QEAAXPEAVstring@acl@@_K@Z 00000001800419b0 f i acl_stdafx.obj
 0001:00040a00       ?default_error_condition@_System_error_category@std@@UEBA?AVerror_condition@2@H@Z 0000000180041a00 f i acl_stdafx.obj
 0001:00040aa0       ?default_error_condition@error_category@std@@UEBA?AVerror_condition@2@H@Z 0000000180041aa0 f i acl_stdafx.obj
 0001:00040b00       ?destroy@aio_delay_free@acl@@UEAAXXZ 0000000180041b00 f i acl_stdafx.obj
 0001:00040b10       ?destroy@aio_timer_callback@acl@@UEAAXXZ 0000000180041b10 f i acl_stdafx.obj
 0001:00040b20       ?destroy@aio_timer_reader@acl@@UEAAXXZ 0000000180041b20 f i acl_stdafx.obj
 0001:00040ba0       ?destroy@aio_timer_writer@acl@@UEAAXXZ 0000000180041ba0 f i acl_stdafx.obj
 0001:00040c20       ?destroy@db_query@acl@@UEAAXXZ 0000000180041c20 f i acl_stdafx.obj
 0001:00040c30       ?destroy@dns_result_callback@acl@@UEAAXXZ 0000000180041c30 f i acl_stdafx.obj
 0001:00040c40       ?destroy@event_timer@acl@@UEAAXXZ 0000000180041c40 f i acl_stdafx.obj
 0001:00040c50       ?destroy@http_service_request@acl@@UEAAXXZ 0000000180041c50 f i acl_stdafx.obj
 0001:00040c60       ?destroy@ipc_client@acl@@UEAAXXZ 0000000180041c60 f i acl_stdafx.obj
 0001:00040ce0       ?destroy@stream_hook@acl@@UEAAXXZ 0000000180041ce0 f i acl_stdafx.obj
 0001:00040cf0       ?empty@?$list@PEAVevent_task@acl@@V?$allocator@PEAVevent_task@acl@@@std@@@std@@QEBA_NXZ 0000000180041cf0 f i acl_stdafx.obj
 0001:00040d50       ?empty@?$vector@PEAVredis_slot@acl@@V?$allocator@PEAVredis_slot@acl@@@std@@@std@@QEBA_NXZ 0000000180041d50 f i acl_stdafx.obj
 0001:00040db0       ?empty@?$vector@Vredis_role4slave@acl@@V?$allocator@Vredis_role4slave@acl@@@std@@@std@@QEBA_NXZ 0000000180041db0 f i acl_stdafx.obj
 0001:00040e10       ?empty@event_timer@acl@@QEBA_NXZ 0000000180041e10 f i acl_stdafx.obj
 0001:00040e60       ?empty@pipe_string@acl@@QEBA_NXZ 0000000180041e60 f i acl_stdafx.obj
 0001:00040ea0       ?end@?$_Tree@V?$_Tmap_traits@V?$basic_string@DU?$char_traits@D@std@@V?$allocator@D@2@@std@@Uobject_t@gsoner@acl@@U?$less@V?$basic_string@DU?$char_traits@D@std@@V?$allocator@D@2@@std@@@2@V?$allocator@U?$pair@$$CBV?$basic_string@DU?$char_traits@D@std@@V?$allocator@D@2@@std@@Uobject_t@gsoner@acl@@@std@@@2@$0A@@std@@@std@@QEAA?AV?$_Tree_iterator@V?$_Tree_val@U?$_Tree_simple_types@U?$pair@$$CBV?$basic_string@DU?$char_traits@D@std@@V?$allocator@D@2@@std@@Uobject_t@gsoner@acl@@@std@@@std@@@std@@@2@XZ 0000000180041ea0 f i acl_stdafx.obj
 0001:00040f00       ?end@?$list@Ufield_t@gsoner@acl@@V?$allocator@Ufield_t@gsoner@acl@@@std@@@std@@QEAA?AV?$_List_iterator@V?$_List_val@U?$_List_simple_types@Ufield_t@gsoner@acl@@@std@@@std@@@2@XZ 0000000180041f00 f i acl_stdafx.obj
 0001:00040f60       ?end@?$list@Ufield_t@gsoner@acl@@V?$allocator@Ufield_t@gsoner@acl@@@std@@@std@@QEBA?AV?$_List_const_iterator@V?$_List_val@U?$_List_simple_types@Ufield_t@gsoner@acl@@@std@@@std@@@2@XZ 0000000180041f60 f i acl_stdafx.obj
 0001:00040fc0       ?end@?$list@Uparent_obj_t@gsoner@acl@@V?$allocator@Uparent_obj_t@gsoner@acl@@@std@@@std@@QEAA?AV?$_List_iterator@V?$_List_val@U?$_List_simple_types@Uparent_obj_t@gsoner@acl@@@std@@@std@@@2@XZ 0000000180041fc0 f i acl_stdafx.obj
 0001:00041020       ?end@?$list@Uparent_obj_t@gsoner@acl@@V?$allocator@Uparent_obj_t@gsoner@acl@@@std@@@std@@QEBA?AV?$_List_const_iterator@V?$_List_val@U?$_List_simple_types@Uparent_obj_t@gsoner@acl@@@std@@@std@@@2@XZ 0000000180042020 f i acl_stdafx.obj
 0001:00041080       ?end@?$list@V?$basic_string@DU?$char_traits@D@std@@V?$allocator@D@2@@std@@V?$allocator@V?$basic_string@DU?$char_traits@D@std@@V?$allocator@D@2@@std@@@2@@std@@QEAA?AV?$_List_iterator@V?$_List_val@U?$_List_simple_types@V?$basic_string@DU?$char_traits@D@std@@V?$allocator@D@2@@std@@@std@@@std@@@2@XZ 0000000180042080 f i acl_stdafx.obj
 0001:000410e0       ?end@?$list@V?$basic_string@DU?$char_traits@D@std@@V?$allocator@D@2@@std@@V?$allocator@V?$basic_string@DU?$char_traits@D@std@@V?$allocator@D@2@@std@@@2@@std@@QEBA?AV?$_List_const_iterator@V?$_List_val@U?$_List_simple_types@V?$basic_string@DU?$char_traits@D@std@@V?$allocator@D@2@@std@@@std@@@std@@@2@XZ 00000001800420e0 f i acl_stdafx.obj
 0001:00041140       ?end@?$list@Vstring@acl@@V?$allocator@Vstring@acl@@@std@@@std@@QEAA?AV?$_List_iterator@V?$_List_val@U?$_List_simple_types@Vstring@acl@@@std@@@std@@@2@XZ 0000000180042140 f i acl_stdafx.obj
 0001:000411a0       ?end@?$list@Vstring@acl@@V?$allocator@Vstring@acl@@@std@@@std@@QEBA?AV?$_List_const_iterator@V?$_List_val@U?$_List_simple_types@Vstring@acl@@@std@@@std@@@2@XZ 00000001800421a0 f i acl_stdafx.obj
 0001:00041200       ?end@?$vector@Vredis_role4slave@acl@@V?$allocator@Vredis_role4slave@acl@@@std@@@std@@QEBA?AV?$_Vector_const_iterator@V?$_Vector_val@U?$_Simple_types@Vredis_role4slave@acl@@@std@@@std@@@2@XZ 0000000180042200 f i acl_stdafx.obj
 0001:00041260       ?equivalent@error_category@std@@UEBA_NAEBVerror_code@2@H@Z 0000000180042260 f i acl_stdafx.obj
 0001:000412f0       ?equivalent@error_category@std@@UEBA_NHAEBVerror_condition@2@@Z 00000001800422f0 f i acl_stdafx.obj
 0001:00041360       ?erase@?$_Tree@V?$_Tmap_traits@V?$basic_string@DU?$char_traits@D@std@@V?$allocator@D@2@@std@@Uobject_t@gsoner@acl@@U?$less@V?$basic_string@DU?$char_traits@D@std@@V?$allocator@D@2@@std@@@2@V?$allocator@U?$pair@$$CBV?$basic_string@DU?$char_traits@D@std@@V?$allocator@D@2@@std@@Uobject_t@gsoner@acl@@@std@@@2@$0A@@std@@@std@@QEAA?AV?$_Tree_iterator@V?$_Tree_val@U?$_Tree_simple_types@U?$pair@$$CBV?$basic_string@DU?$char_traits@D@std@@V?$allocator@D@2@@std@@Uobject_t@gsoner@acl@@@std@@@std@@@std@@@2@V?$_Tree_const_iterator@V?$_Tree_val@U?$_Tree_simple_types@U?$pair@$$CBV?$basic_string@DU?$char_traits@D@std@@V?$allocator@D@2@@std@@Uobject_t@gsoner@acl@@@std@@@std@@@std@@@2@0@Z 0000000180042360 f i acl_stdafx.obj
 0001:000416c0       ?erase@?$_Tree@V?$_Tmap_traits@V?$basic_string@DU?$char_traits@D@std@@V?$allocator@D@2@@std@@Uobject_t@gsoner@acl@@U?$less@V?$basic_string@DU?$char_traits@D@std@@V?$allocator@D@2@@std@@@2@V?$allocator@U?$pair@$$CBV?$basic_string@DU?$char_traits@D@std@@V?$allocator@D@2@@std@@Uobject_t@gsoner@acl@@@std@@@2@$0A@@std@@@std@@QEAA?AV?$_Tree_iterator@V?$_Tree_val@U?$_Tree_simple_types@U?$pair@$$CBV?$basic_string@DU?$char_traits@D@std@@V?$allocator@D@2@@std@@Uobject_t@gsoner@acl@@@std@@@std@@@std@@@2@V?$_Tree_const_iterator@V?$_Tree_val@U?$_Tree_simple_types@U?$pair@$$CBV?$basic_string@DU?$char_traits@D@std@@V?$allocator@D@2@@std@@Uobject_t@gsoner@acl@@@std@@@std@@@std@@@2@@Z 00000001800426c0 f i acl_stdafx.obj
 0001:000421e0       ?erase@?$basic_string@DU?$char_traits@D@std@@V?$allocator@D@2@@std@@QEAAAEAV12@_K0@Z 00000001800431e0 f i acl_stdafx.obj
 0001:00042300       ?erase@?$basic_string@DU?$char_traits@D@std@@V?$allocator@D@2@@std@@QEAAAEAV12@_K@Z 0000000180043300 f i acl_stdafx.obj
 0001:00042370       ?erase@?$list@Ufield_t@gsoner@acl@@V?$allocator@Ufield_t@gsoner@acl@@@std@@@std@@QEAA?AV?$_List_iterator@V?$_List_val@U?$_List_simple_types@Ufield_t@gsoner@acl@@@std@@@std@@@2@V?$_List_const_iterator@V?$_List_val@U?$_List_simple_types@Ufield_t@gsoner@acl@@@std@@@std@@@2@0@Z 0000000180043370 f i acl_stdafx.obj
 0001:00042740       ?erase@?$list@Ufield_t@gsoner@acl@@V?$allocator@Ufield_t@gsoner@acl@@@std@@@std@@QEAA?AV?$_List_iterator@V?$_List_val@U?$_List_simple_types@Ufield_t@gsoner@acl@@@std@@@std@@@2@V?$_List_const_iterator@V?$_List_val@U?$_List_simple_types@Ufield_t@gsoner@acl@@@std@@@std@@@2@@Z 0000000180043740 f i acl_stdafx.obj
 0001:00042880       ?erase@?$list@Uparent_obj_t@gsoner@acl@@V?$allocator@Uparent_obj_t@gsoner@acl@@@std@@@std@@QEAA?AV?$_List_iterator@V?$_List_val@U?$_List_simple_types@Uparent_obj_t@gsoner@acl@@@std@@@std@@@2@V?$_List_const_iterator@V?$_List_val@U?$_List_simple_types@Uparent_obj_t@gsoner@acl@@@std@@@std@@@2@0@Z 0000000180043880 f i acl_stdafx.obj
 0001:00042c50       ?erase@?$list@Uparent_obj_t@gsoner@acl@@V?$allocator@Uparent_obj_t@gsoner@acl@@@std@@@std@@QEAA?AV?$_List_iterator@V?$_List_val@U?$_List_simple_types@Uparent_obj_t@gsoner@acl@@@std@@@std@@@2@V?$_List_const_iterator@V?$_List_val@U?$_List_simple_types@Uparent_obj_t@gsoner@acl@@@std@@@std@@@2@@Z 0000000180043c50 f i acl_stdafx.obj
 0001:00042d90       ?erase@?$list@V?$basic_string@DU?$char_traits@D@std@@V?$allocator@D@2@@std@@V?$allocator@V?$basic_string@DU?$char_traits@D@std@@V?$allocator@D@2@@std@@@2@@std@@QEAA?AV?$_List_iterator@V?$_List_val@U?$_List_simple_types@V?$basic_string@DU?$char_traits@D@std@@V?$allocator@D@2@@std@@@std@@@std@@@2@V?$_List_const_iterator@V?$_List_val@U?$_List_simple_types@V?$basic_string@DU?$char_traits@D@std@@V?$allocator@D@2@@std@@@std@@@std@@@2@0@Z 0000000180043d90 f i acl_stdafx.obj
 0001:00043160       ?erase@?$list@V?$basic_string@DU?$char_traits@D@std@@V?$allocator@D@2@@std@@V?$allocator@V?$basic_string@DU?$char_traits@D@std@@V?$allocator@D@2@@std@@@2@@std@@QEAA?AV?$_List_iterator@V?$_List_val@U?$_List_simple_types@V?$basic_string@DU?$char_traits@D@std@@V?$allocator@D@2@@std@@@std@@@std@@@2@V?$_List_const_iterator@V?$_List_val@U?$_List_simple_types@V?$basic_string@DU?$char_traits@D@std@@V?$allocator@D@2@@std@@@std@@@std@@@2@@Z 0000000180044160 f i acl_stdafx.obj
 0001:000432a0       ?erase@?$list@Vstring@acl@@V?$allocator@Vstring@acl@@@std@@@std@@QEAA?AV?$_List_iterator@V?$_List_val@U?$_List_simple_types@Vstring@acl@@@std@@@std@@@2@V?$_List_const_iterator@V?$_List_val@U?$_List_simple_types@Vstring@acl@@@std@@@std@@@2@0@Z 00000001800442a0 f i acl_stdafx.obj
 0001:00043670       ?erase@?$list@Vstring@acl@@V?$allocator@Vstring@acl@@@std@@@std@@QEAA?AV?$_List_iterator@V?$_List_val@U?$_List_simple_types@Vstring@acl@@@std@@@std@@@2@V?$_List_const_iterator@V?$_List_val@U?$_List_simple_types@Vstring@acl@@@std@@@std@@@2@@Z 0000000180044670 f i acl_stdafx.obj
 0001:000437b0       ?frame_has_mask@websocket@acl@@QEBA_NXZ 00000001800447b0 f i acl_stdafx.obj
 0001:000437d0       ?frame_is_fin@websocket@acl@@QEBA_NXZ 00000001800447d0 f i acl_stdafx.obj
 0001:000437f0       ?frame_is_rsv1@websocket@acl@@QEBA_NXZ 00000001800447f0 f i acl_stdafx.obj
 0001:00043810       ?frame_is_rsv2@websocket@acl@@QEBA_NXZ 0000000180044810 f i acl_stdafx.obj
 0001:00043830       ?frame_is_rsv3@websocket@acl@@QEBA_NXZ 0000000180044830 f i acl_stdafx.obj
 0001:00043850       ?from@mime@acl@@QEBAAEBVstring@2@XZ 0000000180044850 f i acl_stdafx.obj
 0001:00043890       ?generic_category@std@@YAAEBVerror_category@1@XZ 0000000180044890 f i acl_stdafx.obj
 0001:000438a0       ?getClient@HttpServletResponse@acl@@QEBAPEAVhttp_client@2@XZ 00000001800448a0 f i acl_stdafx.obj
 0001:000438c0       ?getSession@HttpServlet@acl@@QEBAAEAVsession@2@XZ 00000001800448c0 f i acl_stdafx.obj
 0001:000438e0       ?getStream@HttpServlet@acl@@QEBAPEAVsocket_stream@2@XZ 00000001800448e0 f i acl_stdafx.obj
 0001:00043900       ?get_addr@beanstalk@acl@@QEBAPEBDXZ 0000000180044900 f i acl_stdafx.obj
 0001:00043920       ?get_addr@check_client@acl@@QEBAPEBDXZ 0000000180044920 f i acl_stdafx.obj
 0001:00043970       ?get_addr@connect_pool@acl@@QEBAPEBDXZ 0000000180044970 f i acl_stdafx.obj
 0001:00043990       ?get_addr@redis_client@acl@@QEBAPEBDXZ 0000000180044990 f i acl_stdafx.obj
 0001:000439b0       ?get_addr@redis_node@acl@@QEBAPEBDXZ 00000001800449b0 f i acl_stdafx.obj
 0001:00043a00       ?get_addr@server_socket@acl@@QEBAPEBDXZ 0000000180044a00 f i acl_stdafx.obj
 0001:00043a50       ?get_addr_info@redis_node@acl@@QEBAPEBDXZ 0000000180044a50 f i acl_stdafx.obj
 0001:00043aa0       ?get_attachments@mail_body@acl@@QEBAPEBV?$vector@PEAVmail_attach@acl@@V?$allocator@PEAVmail_attach@acl@@@std@@@std@@XZ 0000000180044aa0 f i acl_stdafx.obj
 0001:00043ac0       ?get_auth_pass@mail_message@acl@@QEBAPEBDXZ 0000000180044ac0 f i acl_stdafx.obj
 0001:00043ae0       ?get_auth_user@mail_message@acl@@QEBAPEBDXZ 0000000180044ae0 f i acl_stdafx.obj
 0001:00043b00       ?get_auto_commit@mysql_conf@acl@@QEBA_NXZ 0000000180044b00 f i acl_stdafx.obj
 0001:00043b20       ?get_bcc@mail_message@acl@@QEBAAEBV?$vector@PEAUrfc822_addr@acl@@V?$allocator@PEAUrfc822_addr@acl@@@std@@@std@@XZ 0000000180044b20 f i acl_stdafx.obj
 0001:00043b40       ?get_body@disque_job@acl@@QEBAAEBVstring@2@XZ 0000000180044b40 f i acl_stdafx.obj
 0001:00043b60       ?get_bodyBegin@mime_node@acl@@QEBAJXZ 0000000180044b60 f i acl_stdafx.obj
 0001:00043b80       ?get_bodyEnd@mime_node@acl@@QEBAJXZ 0000000180044b80 f i acl_stdafx.obj
 0001:00043ba0       ?get_buf@pipe_string@acl@@QEBAAEAVstring@2@XZ 0000000180044ba0 f i acl_stdafx.obj
 0001:00043bc0       ?get_cc@mail_message@acl@@QEBAAEBV?$vector@PEAUrfc822_addr@acl@@V?$allocator@PEAUrfc822_addr@acl@@@std@@@std@@XZ 0000000180044bc0 f i acl_stdafx.obj
 0001:00043be0       ?get_charset@mime_node@acl@@QEBAPEBDXZ 0000000180044be0 f i acl_stdafx.obj
 0001:00043c00       ?get_charset@mysql_conf@acl@@QEBAPEBDXZ 0000000180044c00 f i acl_stdafx.obj
 0001:00043c20       ?get_charset@pgsql_conf@acl@@QEBAPEBDXZ 0000000180044c20 f i acl_stdafx.obj
 0001:00043c40       ?get_client@redis_command@acl@@QEBAPEAVredis_client@2@XZ 0000000180044c40 f i acl_stdafx.obj
 0001:00043c60       ?get_cluster@redis_command@acl@@QEBAPEAVredis_client_cluster@2@XZ 0000000180044c60 f i acl_stdafx.obj
 0001:00043c80       ?get_commands@redis_transaction@acl@@QEBAAEBV?$vector@Vstring@acl@@V?$allocator@Vstring@acl@@@std@@@std@@XZ 0000000180044c80 f i acl_stdafx.obj
 0001:00043ca0       ?get_conn@beanstalk@acl@@QEAAAEAVsocket_stream@2@XZ 0000000180044ca0 f i acl_stdafx.obj
 0001:00043cc0       ?get_conn@check_client@acl@@QEBAAEAVaio_socket_stream@2@XZ 0000000180044cc0 f i acl_stdafx.obj
 0001:00043ce0       ?get_conn@db_mysql@acl@@QEBAPEAUst_mysql@@XZ 0000000180044ce0 f i acl_stdafx.obj
 0001:00043d00       ?get_conn@db_sqlite@acl@@QEBAPEAUsqlite3@@XZ 0000000180044d00 f i acl_stdafx.obj
 0001:00043d20       ?get_conn@tcp_reader@acl@@QEBAAEAVsocket_stream@2@XZ 0000000180044d20 f i acl_stdafx.obj
 0001:00043d40       ?get_conn@tcp_sender@acl@@QEBAAEAVsocket_stream@2@XZ 0000000180044d40 f i acl_stdafx.obj
 0001:00043d60       ?get_conn_timeout@mysql_conf@acl@@QEBAHXZ 0000000180044d60 f i acl_stdafx.obj
 0001:00043d80       ?get_conn_timeout@pgsql_conf@acl@@QEBAHXZ 0000000180044d80 f i acl_stdafx.obj
 0001:00043da0       ?get_content_id@mail_attach@acl@@QEBAPEBDXZ 0000000180044da0 f i acl_stdafx.obj
 0001:00043df0       ?get_content_length@http_header@acl@@QEBA_JXZ 0000000180044df0 f i acl_stdafx.obj
 0001:00043e10       ?get_content_type@mail_attach@acl@@QEBAPEBDXZ 0000000180044e10 f i acl_stdafx.obj
 0001:00043e60       ?get_content_type@mail_body@acl@@QEBAAEBVstring@2@XZ 0000000180044e60 f i acl_stdafx.obj
 0001:00043e80       ?get_count@connect_pool@acl@@QEBA_KXZ 0000000180044e80 f i acl_stdafx.obj
 0001:00043ea0       ?get_ctime@disque_job@acl@@QEBA_JXZ 0000000180044ea0 f i acl_stdafx.obj
 0001:00043ec0       ?get_ctype@mail_body@acl@@QEBAAEBVhttp_ctype@2@XZ 0000000180044ec0 f i acl_stdafx.obj
 0001:00043ee0       ?get_ctype@mime@acl@@QEBAPEBDXZ 0000000180044ee0 f i acl_stdafx.obj
 0001:00043f20       ?get_ctype@mime_node@acl@@QEBAHXZ 0000000180044f20 f i acl_stdafx.obj
 0001:00043f40       ?get_current_used@connect_pool@acl@@QEBA_KXZ 0000000180044f40 f i acl_stdafx.obj
 0001:00043f60       ?get_db@redis_client@acl@@QEBAHXZ 0000000180044f60 f i acl_stdafx.obj
 0001:00043f80       ?get_db@redis_client_pool@acl@@QEBAHXZ 0000000180044f80 f i acl_stdafx.obj
 0001:00043fa0       ?get_dbaddr@mysql_conf@acl@@QEBAPEBDXZ 0000000180044fa0 f i acl_stdafx.obj
 0001:00043fc0       ?get_dbaddr@pgsql_conf@acl@@QEBAPEBDXZ 0000000180044fc0 f i acl_stdafx.obj
 0001:00043fe0       ?get_dbcount@db_pool@acl@@QEBA_KXZ 0000000180044fe0 f i acl_stdafx.obj
 0001:00044020       ?get_dbflags@mysql_conf@acl@@QEBAKXZ 0000000180045020 f i acl_stdafx.obj
 0001:00044040       ?get_dbkey@mysql_conf@acl@@QEBAPEBDXZ 0000000180045040 f i acl_stdafx.obj
 0001:00044060       ?get_dbkey@pgsql_conf@acl@@QEBAPEBDXZ 0000000180045060 f i acl_stdafx.obj
 0001:00044080       ?get_dblimit@db_pool@acl@@QEBA_KXZ 0000000180045080 f i acl_stdafx.obj
 0001:000440c0       ?get_dblimit@mysql_conf@acl@@QEBA_KXZ 00000001800450c0 f i acl_stdafx.obj
 0001:000440e0       ?get_dblimit@pgsql_conf@acl@@QEBA_KXZ 00000001800450e0 f i acl_stdafx.obj
 0001:00044100       ?get_dbname@mysql_conf@acl@@QEBAPEBDXZ 0000000180045100 f i acl_stdafx.obj
 0001:00044120       ?get_dbname@pgsql_conf@acl@@QEBAPEBDXZ 0000000180045120 f i acl_stdafx.obj
 0001:00044140       ?get_dbpass@mysql_conf@acl@@QEBAPEBDXZ 0000000180045140 f i acl_stdafx.obj
 0001:00044160       ?get_dbpass@pgsql_conf@acl@@QEBAPEBDXZ 0000000180045160 f i acl_stdafx.obj
 0001:00044180       ?get_dbuf@dbuf_guard@acl@@QEBAAEAVdbuf_pool@2@XZ 0000000180045180 f i acl_stdafx.obj
 0001:000441a0       ?get_dbuf@dbuf_pool@acl@@QEAAPEAUACL_DBUF_POOL@@XZ 00000001800451a0 f i acl_stdafx.obj
 0001:000441c0       ?get_dbuf@redis_command@acl@@QEBAPEAVdbuf_pool@2@XZ 00000001800451c0 f i acl_stdafx.obj
 0001:000441e0       ?get_dbuf@redis_result@acl@@QEAAPEAVdbuf_pool@2@XZ 00000001800451e0 f i acl_stdafx.obj
 0001:00044200       ?get_dbuser@mysql_conf@acl@@QEBAPEBDXZ 0000000180045200 f i acl_stdafx.obj
 0001:00044220       ?get_dbuser@pgsql_conf@acl@@QEBAPEBDXZ 0000000180045220 f i acl_stdafx.obj
 0001:00044240       ?get_default_pool@connect_manager@acl@@QEAAPEAVconnect_pool@2@XZ 0000000180045240 f i acl_stdafx.obj
 0001:00044260       ?get_delay@disque_cond@acl@@QEBAHXZ 0000000180045260 f i acl_stdafx.obj
 0001:00044280       ?get_delay@disque_job@acl@@QEBAHXZ 0000000180045280 f i acl_stdafx.obj
 0001:000442a0       ?get_delivered_to@mail_message@acl@@QEBAPEBUrfc822_addr@2@XZ 00000001800452a0 f i acl_stdafx.obj
 0001:000442c0       ?get_dist@geo_member@acl@@QEBANXZ 00000001800452c0 f i acl_stdafx.obj
 0001:00044300       ?get_domain@dns_result_callback@acl@@QEBAAEBVstring@2@XZ 0000000180045300 f i acl_stdafx.obj
 0001:00044320       ?get_email@mail_message@acl@@QEBAPEBDXZ 0000000180045320 f i acl_stdafx.obj
 0001:00044340       ?get_encoding@mime_node@acl@@QEBAHXZ 0000000180045340 f i acl_stdafx.obj
 0001:00044360       ?get_encoding_type@mime_code@acl@@QEBAPEBDXZ 0000000180045360 f i acl_stdafx.obj
 0001:00044380       ?get_entropy@polarssl_conf@acl@@QEAAPEAXXZ 0000000180045380 f i acl_stdafx.obj
 0001:000443a0       ?get_errno@db_handle@acl@@UEBAHXZ 00000001800453a0 f i acl_stdafx.obj
 0001:000443b0       ?get_error@beanstalk@acl@@QEBAPEBDXZ 00000001800453b0 f i acl_stdafx.obj
 0001:00044400       ?get_error@db_handle@acl@@UEBAPEBDXZ 0000000180045400 f i acl_stdafx.obj
 0001:00044420       ?get_event@master_base@acl@@IEBAPEAUACL_EVENT@@XZ 0000000180045420 f i acl_stdafx.obj
 0001:00044440       ?get_extName@queue_file@acl@@QEBAPEBDXZ 0000000180045440 f i acl_stdafx.obj
 0001:00044460       ?get_filePath@queue_file@acl@@QEBAPEBDXZ 0000000180045460 f i acl_stdafx.obj
 0001:000444b0       ?get_fileSize@queue_file@acl@@QEBA_KXZ 00000001800454b0 f i acl_stdafx.obj
 0001:000444d0       ?get_filename@mail_attach@acl@@QEBAPEBDXZ 00000001800454d0 f i acl_stdafx.obj
 0001:00044520       ?get_filepath@mail_attach@acl@@QEBAPEBDXZ 0000000180045520 f i acl_stdafx.obj
 0001:00044560       ?get_frame_header@websocket@acl@@QEBAAEBUframe_header@2@XZ 0000000180045560 f i acl_stdafx.obj
 0001:00044580       ?get_frame_masking_key@websocket@acl@@QEBAIXZ 0000000180045580 f i acl_stdafx.obj
 0001:000445a0       ?get_frame_opcode@websocket@acl@@QEBAEXZ 00000001800455a0 f i acl_stdafx.obj
 0001:000445c0       ?get_frame_payload_len@websocket@acl@@QEBA_KXZ 00000001800455c0 f i acl_stdafx.obj
 0001:000445e0       ?get_frame_payload_nread@websocket@acl@@QEBA_KXZ 00000001800455e0 f i acl_stdafx.obj
 0001:00044600       ?get_from@mail_message@acl@@QEBAPEBUrfc822_addr@2@XZ 0000000180045600 f i acl_stdafx.obj
 0001:00044620       ?get_guard@dbuf_obj@acl@@QEBAPEAVdbuf_guard@2@XZ 0000000180045620 f i acl_stdafx.obj
 0001:00044640       ?get_hash@geo_member@acl@@QEBA_JXZ 0000000180045640 f i acl_stdafx.obj
 0001:00044660       ?get_home@queue_file@acl@@QEBAPEBDXZ 0000000180045660 f i acl_stdafx.obj
 0001:00044680       ?get_host@http_header@acl@@QEBAPEBDXZ 0000000180045680 f i acl_stdafx.obj
 0001:00044700       ?get_html@mail_body@acl@@QEBAPEBDAEA_K@Z 0000000180045700 f i acl_stdafx.obj
 0001:00044740       ?get_hwnd@ipc_request@acl@@QEBAPEAUHWND__@@XZ 0000000180045740 f i acl_stdafx.obj
 0001:00044760       ?get_id@db_handle@acl@@QEBAPEBDXZ 0000000180045760 f i acl_stdafx.obj
 0001:00044780       ?get_id@disque_job@acl@@QEBAPEBDXZ 0000000180045780 f i acl_stdafx.obj
 0001:000447c0       ?get_id@disque_node@acl@@QEBAPEBDXZ 00000001800457c0 f i acl_stdafx.obj
 0001:00044800       ?get_id@redis_node@acl@@QEBAPEBDXZ 0000000180045800 f i acl_stdafx.obj
 0001:00044840       ?get_idx@connect_pool@acl@@QEBA_KXZ 0000000180045840 f i acl_stdafx.obj
 0001:00044860       ?get_ip@disque_node@acl@@QEBAPEBDXZ 0000000180045860 f i acl_stdafx.obj
 0001:000448b0       ?get_ip@redis_role4slave@acl@@QEBAPEBDXZ 00000001800458b0 f i acl_stdafx.obj
 0001:000448f0       ?get_ip@redis_slot@acl@@QEBAPEBDXZ 00000001800458f0 f i acl_stdafx.obj
 0001:00044910       ?get_keep_alive@http_header@acl@@QEBA_NXZ 0000000180045910 f i acl_stdafx.obj
 0001:00044930       ?get_key@connect_pool@acl@@QEBAPEBDXZ 0000000180045930 f i acl_stdafx.obj
 0001:00044950       ?get_latitude@geo_member@acl@@QEBANXZ 0000000180045950 f i acl_stdafx.obj
 0001:00044990       ?get_lens@redis_result@acl@@QEBAPEB_KXZ 0000000180045990 f i acl_stdafx.obj
 0001:000449b0       ?get_longitude@geo_member@acl@@QEBANXZ 00000001800459b0 f i acl_stdafx.obj
 0001:000449f0       ?get_manager@connect_monitor@acl@@QEBAAEAVconnect_manager@2@XZ 00000001800459f0 f i acl_stdafx.obj
 0001:00044a10       ?get_master@redis_node@acl@@QEBAPEBV12@XZ 0000000180045a10 f i acl_stdafx.obj
 0001:00044a30       ?get_master_id@redis_node@acl@@QEBAPEBDXZ 0000000180045a30 f i acl_stdafx.obj
 0001:00044a80       ?get_max@connect_pool@acl@@QEBA_KXZ 0000000180045a80 f i acl_stdafx.obj
 0001:00044aa0       ?get_max_slot@redis_client_cluster@acl@@QEBAHXZ 0000000180045aa0 f i acl_stdafx.obj
 0001:00044ac0       ?get_maxlen@disque_cond@acl@@QEBAHXZ 0000000180045ac0 f i acl_stdafx.obj
 0001:00044ae0       ?get_name@geo_member@acl@@QEBAPEBDXZ 0000000180045ae0 f i acl_stdafx.obj
 0001:00044b20       ?get_name@mime_node@acl@@QEBAPEBDXZ 0000000180045b20 f i acl_stdafx.obj
 0001:00044b90       ?get_next_awake_within@disque_job@acl@@QEBAHXZ 0000000180045b90 f i acl_stdafx.obj
 0001:00044bb0       ?get_next_requeue_within@disque_job@acl@@QEBAHXZ 0000000180045bb0 f i acl_stdafx.obj
 0001:00044bd0       ?get_nodes_confirmed@disque_job@acl@@QEBAAEBV?$vector@Vstring@acl@@V?$allocator@Vstring@acl@@@std@@@std@@XZ 0000000180045bd0 f i acl_stdafx.obj
 0001:00044bf0       ?get_nodes_delivered@disque_job@acl@@QEBAAEBV?$vector@Vstring@acl@@V?$allocator@Vstring@acl@@@std@@@std@@XZ 0000000180045bf0 f i acl_stdafx.obj
 0001:00044c10       ?get_off@redis_role4master@acl@@QEBA_JXZ 0000000180045c10 f i acl_stdafx.obj
 0001:00044c30       ?get_offset@redis_role4slave@acl@@QEBA_JXZ 0000000180045c30 f i acl_stdafx.obj
 0001:00044c50       ?get_params@url_coder@acl@@QEBAAEBV?$vector@PEAUURL_NV@acl@@V?$allocator@PEAUURL_NV@acl@@@std@@@std@@XZ 0000000180045c50 f i acl_stdafx.obj
 0001:00044c70       ?get_passwords@redis_client_cluster@acl@@QEBAAEBV?$map@Vstring@acl@@V12@U?$less@Vstring@acl@@@std@@V?$allocator@U?$pair@$$CBVstring@acl@@V12@@std@@@4@@std@@XZ 0000000180045c70 f i acl_stdafx.obj
 0001:00044c90       ?get_plain@mail_body@acl@@QEBAPEBDAEA_K@Z 0000000180045c90 f i acl_stdafx.obj
 0001:00044cd0       ?get_pool@connect_client@acl@@QEBAPEAVconnect_pool@2@XZ 0000000180045cd0 f i acl_stdafx.obj
 0001:00044cf0       ?get_port@disque_node@acl@@QEBAHXZ 0000000180045cf0 f i acl_stdafx.obj
 0001:00044d10       ?get_port@redis_role4slave@acl@@QEBAHXZ 0000000180045d10 f i acl_stdafx.obj
 0001:00044d30       ?get_port@redis_slot@acl@@QEBAHXZ 0000000180045d30 f i acl_stdafx.obj
 0001:00044d50       ?get_priority@disque_node@acl@@QEBAHXZ 0000000180045d50 f i acl_stdafx.obj
 0001:00044d70       ?get_queue@disque_job@acl@@QEBAPEBDXZ 0000000180045d70 f i acl_stdafx.obj
 0001:00044dc0       ?get_queueName@queue_file@acl@@QEBAPEBDXZ 0000000180045dc0 f i acl_stdafx.obj
 0001:00044de0       ?get_queueSub@queue_file@acl@@QEBAPEBDXZ 0000000180045de0 f i acl_stdafx.obj
 0001:00044e00       ?get_recipients@mail_message@acl@@QEBAAEBV?$vector@PEAUrfc822_addr@acl@@V?$allocator@PEAUrfc822_addr@acl@@@std@@@std@@XZ 0000000180045e00 f i acl_stdafx.obj
 0001:00044e20       ?get_redirect_max@redis_client_cluster@acl@@QEBAHXZ 0000000180045e20 f i acl_stdafx.obj
 0001:00044e40       ?get_redirect_sleep@redis_client_cluster@acl@@QEBAHXZ 0000000180045e40 f i acl_stdafx.obj
 0001:00044e60       ?get_repl@disque_job@acl@@QEBAHXZ 0000000180045e60 f i acl_stdafx.obj
 0001:00044e80       ?get_replicate@disque_cond@acl@@QEBAHXZ 0000000180045e80 f i acl_stdafx.obj
 0001:00044ea0       ?get_reply_to@mail_message@acl@@QEBAPEBUrfc822_addr@2@XZ 0000000180045ea0 f i acl_stdafx.obj
 0001:00044ec0       ?get_retry@disque_cond@acl@@QEBAHXZ 0000000180045ec0 f i acl_stdafx.obj
 0001:00044ee0       ?get_retry@disque_job@acl@@QEBAHXZ 0000000180045ee0 f i acl_stdafx.obj
 0001:00044f00       ?get_return_path@mail_message@acl@@QEBAPEBUrfc822_addr@2@XZ 0000000180045f00 f i acl_stdafx.obj
 0001:00044f20       ?get_role4master@redis_role@acl@@QEBAAEBVredis_role4master@2@XZ 0000000180045f20 f i acl_stdafx.obj
 0001:00044f40       ?get_role4slave@redis_role@acl@@QEBAAEBVredis_role4slave@2@XZ 0000000180045f40 f i acl_stdafx.obj
 0001:00044f60       ?get_rw_timeout@mysql_conf@acl@@QEBAHXZ 0000000180045f60 f i acl_stdafx.obj
 0001:00044f80       ?get_rw_timeout@pgsql_conf@acl@@QEBAHXZ 0000000180045f80 f i acl_stdafx.obj
 0001:00044fa0       ?get_scan_dir@scan_dir@acl@@QEBAPEAUACL_SCAN_DIR@@XZ 0000000180045fa0 f i acl_stdafx.obj
 0001:00044fc0       ?get_sender@mail_message@acl@@QEBAPEBUrfc822_addr@2@XZ 0000000180045fc0 f i acl_stdafx.obj
 0001:00044fe0       ?get_sid@session@acl@@UEBAPEBDXZ 0000000180045fe0 f i acl_stdafx.obj
 0001:00045030       ?get_slaves@redis_node@acl@@QEBAPEBV?$vector@PEAVredis_node@acl@@V?$allocator@PEAVredis_node@acl@@@std@@@std@@XZ 0000000180046030 f i acl_stdafx.obj
 0001:00045050       ?get_slaves@redis_role4master@acl@@QEBAAEBV?$vector@Vredis_role4slave@acl@@V?$allocator@Vredis_role4slave@acl@@@std@@@std@@XZ 0000000180046050 f i acl_stdafx.obj
 0001:00045070       ?get_slaves@redis_slot@acl@@QEBAAEBV?$vector@PEAVredis_slot@acl@@V?$allocator@PEAVredis_slot@acl@@@std@@@std@@XZ 0000000180046070 f i acl_stdafx.obj
 0001:00045090       ?get_slot_max@redis_slot@acl@@QEBA_KXZ 0000000180046090 f i acl_stdafx.obj
 0001:000450b0       ?get_slot_min@redis_slot@acl@@QEBA_KXZ 00000001800460b0 f i acl_stdafx.obj
 0001:000450d0       ?get_sstreams@master_udp@acl@@IEBAAEBV?$vector@PEAVsocket_stream@acl@@V?$allocator@PEAVsocket_stream@acl@@@std@@@std@@XZ 00000001800460d0 f i acl_stdafx.obj
 0001:000450f0       ?get_state@disque_job@acl@@QEBAPEBDXZ 00000001800460f0 f i acl_stdafx.obj
 0001:00045140       ?get_status@http_header@acl@@QEBAHXZ 0000000180046140 f i acl_stdafx.obj
 0001:00045160       ?get_status@redis_role4slave@acl@@QEBAPEBDXZ 0000000180046160 f i acl_stdafx.obj
 0001:000451b0       ?get_stream@smtp_client@acl@@QEAAAEAVsocket_stream@2@XZ 00000001800461b0 f i acl_stdafx.obj
 0001:000451d0       ?get_stream@websocket@acl@@QEBAAEAVsocket_stream@2@XZ 00000001800461d0 f i acl_stdafx.obj
 0001:000451f0       ?get_stype@mime@acl@@QEBAPEBDXZ 00000001800461f0 f i acl_stdafx.obj
 0001:00045230       ?get_stype@mime_node@acl@@QEBAHXZ 0000000180046230 f i acl_stdafx.obj
 0001:00045250       ?get_to@mail_message@acl@@QEBAAEBV?$vector@PEAUrfc822_addr@acl@@V?$allocator@PEAUrfc822_addr@acl@@@std@@@std@@XZ 0000000180046250 f i acl_stdafx.obj
 0001:00045270       ?get_toCharset@mime_node@acl@@QEBAPEBDXZ 0000000180046270 f i acl_stdafx.obj
 0001:000452b0       ?get_token@token_node@acl@@QEBAPEAUACL_TOKEN@@XZ 00000001800462b0 f i acl_stdafx.obj
 0001:000452d0       ?get_total_used@connect_pool@acl@@QEBA_KXZ 00000001800462d0 f i acl_stdafx.obj
 0001:000452f0       ?get_tree@token_node@acl@@QEBAPEAVtoken_tree@2@XZ 00000001800462f0 f i acl_stdafx.obj
 0001:00045310       ?get_tree@token_tree@acl@@QEBAPEAUACL_TOKEN@@XZ 0000000180046310 f i acl_stdafx.obj
 0001:00045330       ?get_ttl@disque_cond@acl@@QEBAHXZ 0000000180046330 f i acl_stdafx.obj
 0001:00045350       ?get_ttl@disque_job@acl@@QEBAHXZ 0000000180046350 f i acl_stdafx.obj
 0001:00045370       ?get_ttl@session@acl@@QEBA_JXZ 0000000180046370 f i acl_stdafx.obj
 0001:00045390       ?get_type@redis_node@acl@@QEBAPEBDXZ 0000000180046390 f i acl_stdafx.obj
 0001:000453e0       ?get_type@redis_result@acl@@QEBA?AW4redis_result_t@2@XZ 00000001800463e0 f i acl_stdafx.obj
 0001:00045400       ?get_upgrade@http_header@acl@@QEBAPEBDXZ 0000000180046400 f i acl_stdafx.obj
 0001:00045420       ?get_websocket@WebSocketServlet@acl@@IEBAPEAVwebsocket@2@XZ 0000000180046420 f i acl_stdafx.obj
 0001:00045440       ?get_when@connect_client@acl@@QEAA_JXZ 0000000180046440 f i acl_stdafx.obj
 0001:00045460       ?get_when@db_handle@acl@@QEBA_JXZ 0000000180046460 f i acl_stdafx.obj
 0001:00045480       ?get_ws_accept@http_header@acl@@QEBAPEBDXZ 0000000180046480 f i acl_stdafx.obj
 0001:000454a0       ?get_ws_key@http_header@acl@@QEBAPEBDXZ 00000001800464a0 f i acl_stdafx.obj
 0001:000454c0       ?get_ws_origin@http_header@acl@@QEBAPEBDXZ 00000001800464c0 f i acl_stdafx.obj
 0001:000454e0       ?get_ws_protocol@http_header@acl@@QEBAPEBDXZ 00000001800464e0 f i acl_stdafx.obj
 0001:00045500       ?get_ws_version@http_header@acl@@QEBAHXZ 0000000180046500 f i acl_stdafx.obj
 0001:00045520       ?get_xml2@xml2@acl@@QEBAPEAUACL_XML2@@XZ 0000000180046520 f i acl_stdafx.obj
 0001:00045540       ?get_xml@xml1@acl@@QEBAPEAUACL_XML@@XZ 0000000180046540 f i acl_stdafx.obj
 0001:00045560       ?get_zstream@zlib_stream@acl@@QEBAPEAUz_stream_s@@XZ 0000000180046560 f i acl_stdafx.obj
 0001:00045580       ?gets_argv@redis_result@acl@@QEBAPEAPEBDXZ 0000000180046580 f i acl_stdafx.obj
 0001:000455a0       ?handshake_ok@polarssl_io@acl@@QEAA_NXZ 00000001800465a0 f i acl_stdafx.obj
 0001:000455c0       ?header_list@mime@acl@@QEBAAEBV?$list@PEAUHEADER@acl@@V?$allocator@PEAUHEADER@acl@@@std@@@std@@XZ 00000001800465c0 f i acl_stdafx.obj
 0001:00045600       ?header_value@mime@acl@@QEBAPEBDPEBD@Z 0000000180046600 f i acl_stdafx.obj
 0001:00045650       ?header_values@mime@acl@@QEBAHPEBDPEAV?$list@PEBDV?$allocator@PEBD@std@@@std@@@Z 0000000180046650 f i acl_stdafx.obj
 0001:000456b0       ?is_async@disque_cond@acl@@QEBA_NXZ 00000001800466b0 f i acl_stdafx.obj
 0001:000456d0       ?is_cgi_mode@http_header@acl@@QEBA_NXZ 00000001800466d0 f i acl_stdafx.obj
 0001:000456f0       ?is_connected@redis_node@acl@@QEBA_NXZ 00000001800466f0 f i acl_stdafx.obj
 0001:00045710       ?is_handshaking@redis_node@acl@@QEBA_NXZ 0000000180046710 f i acl_stdafx.obj
 0001:00045730       ?is_master@redis_node@acl@@QEBA_NXZ 0000000180046730 f i acl_stdafx.obj
 0001:00045790       ?is_myself@redis_node@acl@@QEBA_NXZ 0000000180046790 f i acl_stdafx.obj
 0001:000457b0       ?is_non_blocking@polarssl_io@acl@@QEBA_NXZ 00000001800467b0 f i acl_stdafx.obj
 0001:000457d0       ?is_transfer_gzip@http_header@acl@@QEBA_NXZ 00000001800467d0 f i acl_stdafx.obj
 0001:000457f0       ?is_unzip_body@http_aclient@acl@@QEBA_NXZ 00000001800467f0 f i acl_stdafx.obj
 0001:00045810       ?keep_read@master_threads@acl@@MEAA_NPEAVsocket_stream@2@@Z 0000000180046810 f i acl_stdafx.obj
 0001:00045830       ?keep_timer@event_timer@acl@@QEBA_NXZ 0000000180046830 f i acl_stdafx.obj
 0001:00045850       ?key@queue_file@acl@@QEBAPEBDXZ 0000000180046850 f i acl_stdafx.obj
 0001:00045870       ?key_comp@?$_Tree@V?$_Tmap_traits@V?$basic_string@DU?$char_traits@D@std@@V?$allocator@D@2@@std@@Uobject_t@gsoner@acl@@U?$less@V?$basic_string@DU?$char_traits@D@std@@V?$allocator@D@2@@std@@@2@V?$allocator@U?$pair@$$CBV?$basic_string@DU?$char_traits@D@std@@V?$allocator@D@2@@std@@Uobject_t@gsoner@acl@@@std@@@2@$0A@@std@@@std@@QEBA?AU?$less@V?$basic_string@DU?$char_traits@D@std@@V?$allocator@D@2@@std@@@2@XZ 0000000180046870 f i acl_stdafx.obj
 0001:000458c0       ?length@?$char_traits@D@std@@SA_KPEBD@Z 00000001800468c0 f i acl_stdafx.obj
 0001:00045930       ?length@event_timer@acl@@QEBA_KXZ 0000000180046930 f i acl_stdafx.obj
 0001:00045950       ?length@pipe_string@acl@@QEBA_KXZ 0000000180046950 f i acl_stdafx.obj
 0001:00045990       ?logger_test1@log@acl@@SAXXZ 0000000180046990 f i acl_stdafx.obj
 0001:00045b80       ?logger_test2@log@acl@@SAXXZ 0000000180046b80 f i acl_stdafx.obj
 0001:00045c40       ?max_size@?$_Wrap_alloc@V?$allocator@D@std@@@std@@QEBA_KXZ 0000000180046c40 f i acl_stdafx.obj
 0001:00045c80       ?max_size@?$_Wrap_alloc@V?$allocator@PEAVredis_slot@acl@@@std@@@std@@QEBA_KXZ 0000000180046c80 f i acl_stdafx.obj
 0001:00045cc0       ?max_size@?$_Wrap_alloc@V?$allocator@U?$_List_node@Ufield_t@gsoner@acl@@PEAX@std@@@std@@@std@@QEBA_KXZ 0000000180046cc0 f i acl_stdafx.obj
 0001:00045d00       ?max_size@?$_Wrap_alloc@V?$allocator@U?$_List_node@Uparent_obj_t@gsoner@acl@@PEAX@std@@@std@@@std@@QEBA_KXZ 0000000180046d00 f i acl_stdafx.obj
 0001:00045d40       ?max_size@?$_Wrap_alloc@V?$allocator@U?$_List_node@V?$basic_string@DU?$char_traits@D@std@@V?$allocator@D@2@@std@@PEAX@std@@@std@@@std@@QEBA_KXZ 0000000180046d40 f i acl_stdafx.obj
 0001:00045d80       ?max_size@?$_Wrap_alloc@V?$allocator@U?$_List_node@Vstring@acl@@PEAX@std@@@std@@@std@@QEBA_KXZ 0000000180046d80 f i acl_stdafx.obj
 0001:00045dc0       ?max_size@?$_Wrap_alloc@V?$allocator@Vredis_role4slave@acl@@@std@@@std@@QEBA_KXZ 0000000180046dc0 f i acl_stdafx.obj
 0001:00045e00       ?max_size@?$allocator@D@std@@QEBA_KXZ 0000000180046e00 f i acl_stdafx.obj
 0001:00045e20       ?max_size@?$allocator@PEAVredis_slot@acl@@@std@@QEBA_KXZ 0000000180046e20 f i acl_stdafx.obj
 0001:00045e40       ?max_size@?$allocator@U?$_List_node@Ufield_t@gsoner@acl@@PEAX@std@@@std@@QEBA_KXZ 0000000180046e40 f i acl_stdafx.obj
 0001:00045e60       ?max_size@?$allocator@U?$_List_node@Uparent_obj_t@gsoner@acl@@PEAX@std@@@std@@QEBA_KXZ 0000000180046e60 f i acl_stdafx.obj
 0001:00045e80       ?max_size@?$allocator@U?$_List_node@V?$basic_string@DU?$char_traits@D@std@@V?$allocator@D@2@@std@@PEAX@std@@@std@@QEBA_KXZ 0000000180046e80 f i acl_stdafx.obj
 0001:00045ea0       ?max_size@?$allocator@U?$_List_node@Vstring@acl@@PEAX@std@@@std@@QEBA_KXZ 0000000180046ea0 f i acl_stdafx.obj
 0001:00045ec0       ?max_size@?$allocator@Vredis_role4slave@acl@@@std@@QEBA_KXZ 0000000180046ec0 f i acl_stdafx.obj
 0001:00045ee0       ?max_size@?$allocator_traits@V?$allocator@D@std@@@std@@SA_KAEBV?$allocator@D@2@@Z 0000000180046ee0 f i acl_stdafx.obj
 0001:00045f20       ?max_size@?$allocator_traits@V?$allocator@PEAVredis_slot@acl@@@std@@@std@@SA_KAEBV?$allocator@PEAVredis_slot@acl@@@2@@Z 0000000180046f20 f i acl_stdafx.obj
 0001:00045f60       ?max_size@?$allocator_traits@V?$allocator@U?$_List_node@Ufield_t@gsoner@acl@@PEAX@std@@@std@@@std@@SA_KAEBV?$allocator@U?$_List_node@Ufield_t@gsoner@acl@@PEAX@std@@@2@@Z 0000000180046f60 f i acl_stdafx.obj
 0001:00045fa0       ?max_size@?$allocator_traits@V?$allocator@U?$_List_node@Uparent_obj_t@gsoner@acl@@PEAX@std@@@std@@@std@@SA_KAEBV?$allocator@U?$_List_node@Uparent_obj_t@gsoner@acl@@PEAX@std@@@2@@Z 0000000180046fa0 f i acl_stdafx.obj
 0001:00045fe0       ?max_size@?$allocator_traits@V?$allocator@U?$_List_node@V?$basic_string@DU?$char_traits@D@std@@V?$allocator@D@2@@std@@PEAX@std@@@std@@@std@@SA_KAEBV?$allocator@U?$_List_node@V?$basic_string@DU?$char_traits@D@std@@V?$allocator@D@2@@std@@PEAX@std@@@2@@Z 0000000180046fe0 f i acl_stdafx.obj
 0001:00046020       ?max_size@?$allocator_traits@V?$allocator@U?$_List_node@Vstring@acl@@PEAX@std@@@std@@@std@@SA_KAEBV?$allocator@U?$_List_node@Vstring@acl@@PEAX@std@@@2@@Z 0000000180047020 f i acl_stdafx.obj
 0001:00046060       ?max_size@?$allocator_traits@V?$allocator@Vredis_role4slave@acl@@@std@@@std@@SA_KAEBV?$allocator@Vredis_role4slave@acl@@@2@@Z 0000000180047060 f i acl_stdafx.obj
 0001:000460a0       ?max_size@?$basic_string@DU?$char_traits@D@std@@V?$allocator@D@2@@std@@QEBA_KXZ 00000001800470a0 f i acl_stdafx.obj
 0001:00046120       ?max_size@?$list@Ufield_t@gsoner@acl@@V?$allocator@Ufield_t@gsoner@acl@@@std@@@std@@QEBA_KXZ 0000000180047120 f i acl_stdafx.obj
 0001:00046170       ?max_size@?$list@Uparent_obj_t@gsoner@acl@@V?$allocator@Uparent_obj_t@gsoner@acl@@@std@@@std@@QEBA_KXZ 0000000180047170 f i acl_stdafx.obj
 0001:000461c0       ?max_size@?$list@V?$basic_string@DU?$char_traits@D@std@@V?$allocator@D@2@@std@@V?$allocator@V?$basic_string@DU?$char_traits@D@std@@V?$allocator@D@2@@std@@@2@@std@@QEBA_KXZ 00000001800471c0 f i acl_stdafx.obj
 0001:00046210       ?max_size@?$list@Vstring@acl@@V?$allocator@Vstring@acl@@@std@@@std@@QEBA_KXZ 0000000180047210 f i acl_stdafx.obj
 0001:00046260       ?max_size@?$vector@PEAVredis_slot@acl@@V?$allocator@PEAVredis_slot@acl@@@std@@@std@@QEBA_KXZ 0000000180047260 f i acl_stdafx.obj
 0001:000462b0       ?max_size@?$vector@Vredis_role4slave@acl@@V?$allocator@Vredis_role4slave@acl@@@std@@@std@@QEBA_KXZ 00000001800472b0 f i acl_stdafx.obj
 0001:00046300       ?message@_Generic_error_category@std@@UEBA?AV?$basic_string@DU?$char_traits@D@std@@V?$allocator@D@2@@2@H@Z 0000000180047300 f i acl_stdafx.obj
 0001:000463b0       ?message@_Iostream_error_category@std@@UEBA?AV?$basic_string@DU?$char_traits@D@std@@V?$allocator@D@2@@2@H@Z 00000001800473b0 f i acl_stdafx.obj
 0001:00046460       ?message@_System_error_category@std@@UEBA?AV?$basic_string@DU?$char_traits@D@std@@V?$allocator@D@2@@2@H@Z 0000000180047460 f i acl_stdafx.obj
 0001:00046510       ?min_delay@event_timer@acl@@QEBA_JXZ 0000000180047510 f i acl_stdafx.obj
 0001:00046530       ?move@?$char_traits@D@std@@SAPEADPEADPEBD_K@Z 0000000180047530 f i acl_stdafx.obj
 0001:000465b0       ?name@_Generic_error_category@std@@UEBAPEBDXZ 00000001800475b0 f i acl_stdafx.obj
 0001:000465d0       ?name@_Iostream_error_category@std@@UEBAPEBDXZ 00000001800475d0 f i acl_stdafx.obj
 0001:000465f0       ?name@_System_error_category@std@@UEBAPEBDXZ 00000001800475f0 f i acl_stdafx.obj
 0001:00046610       ?onClose@WebSocketServlet@acl@@MEAAXXZ 0000000180047610 f i acl_stdafx.obj
 0001:00046620       ?on_accept@ipc_server@acl@@MEAAXPEAVaio_socket_stream@2@@Z 0000000180047620 f i acl_stdafx.obj
 0001:00046630       ?on_close@ipc_client@acl@@UEAAXXZ 0000000180047630 f i acl_stdafx.obj
 0001:00046640       ?on_close@ipc_server@acl@@MEAAXXZ 0000000180047640 f i acl_stdafx.obj
 0001:00046650       ?on_close@stream_hook@acl@@UEAA_N_N@Z 0000000180047650 f i acl_stdafx.obj
 0001:00046670       ?on_connect_failed@http_aclient@acl@@MEAAXXZ 0000000180047670 f i acl_stdafx.obj
 0001:00046680       ?on_connect_timeout@http_aclient@acl@@MEAAXXZ 0000000180047680 f i acl_stdafx.obj
 0001:00046690       ?on_connected@connect_monitor@acl@@UEAAXAEBVcheck_client@2@N@Z 0000000180047690 f i acl_stdafx.obj
 0001:000466b0       ?on_decrease@aio_handle@acl@@MEAAXXZ 00000001800476b0 f i acl_stdafx.obj
 0001:000466c0       ?on_disconnect@http_aclient@acl@@MEAAXXZ 00000001800476c0 f i acl_stdafx.obj
 0001:000466d0       ?on_http_res_body@http_aclient@acl@@MEAA_NPEAD_K@Z 00000001800476d0 f i acl_stdafx.obj
 0001:000466f0       ?on_http_res_finish@http_aclient@acl@@MEAA_N_N@Z 00000001800476f0 f i acl_stdafx.obj
 0001:00046710       ?on_http_res_hdr@http_aclient@acl@@MEAA_NAEBVhttp_header@2@@Z 0000000180047710 f i acl_stdafx.obj
 0001:00046730       ?on_increase@aio_handle@acl@@MEAAXXZ 0000000180047730 f i acl_stdafx.obj
 0001:00046740       ?on_open@ipc_client@acl@@UEAAXXZ 0000000180047740 f i acl_stdafx.obj
 0001:00046750       ?on_open@ipc_server@acl@@MEAAXPEBD@Z 0000000180047750 f i acl_stdafx.obj
 0001:00046760       ?on_read_timeout@http_aclient@acl@@MEAAXXZ 0000000180047760 f i acl_stdafx.obj
 0001:00046770       ?on_refused@connect_monitor@acl@@UEAAXPEBDN@Z 0000000180047770 f i acl_stdafx.obj
 0001:00046790       ?on_timeout@connect_monitor@acl@@UEAAXPEBDN@Z 0000000180047790 f i acl_stdafx.obj
 0001:000467b0       ?on_ws_frame_binary@http_aclient@acl@@MEAA_NXZ 00000001800477b0 f i acl_stdafx.obj
 0001:000467c0       ?on_ws_frame_closed@http_aclient@acl@@MEAAXXZ 00000001800477c0 f i acl_stdafx.obj
 0001:000467d0       ?on_ws_frame_data@http_aclient@acl@@MEAA_NPEAD_K@Z 00000001800477d0 f i acl_stdafx.obj
 0001:000467f0       ?on_ws_frame_finish@http_aclient@acl@@MEAA_NXZ 00000001800477f0 f i acl_stdafx.obj
 0001:00046800       ?on_ws_frame_text@http_aclient@acl@@MEAA_NXZ 0000000180047800 f i acl_stdafx.obj
 0001:00046810       ?on_ws_handshake@http_aclient@acl@@MEAA_NXZ 0000000180047810 f i acl_stdafx.obj
 0001:00046850       ?on_ws_handshake_failed@http_aclient@acl@@MEAAXH@Z 0000000180047850 f i acl_stdafx.obj
 0001:00046860       ?open_callback@http_aclient@acl@@MEAA_NXZ 0000000180047860 f i acl_stdafx.obj
 0001:00046870       ?peek@connect_guard@acl@@QEAAPEAVconnect_client@2@XZ 0000000180047870 f i acl_stdafx.obj
 0001:000468d0       ?pop_end@ostream@acl@@UEAAHPEAVstring@2@_K@Z 00000001800478d0 f i acl_stdafx.obj
 0001:000468f0       ?pos@dbuf_obj@acl@@QEBAHXZ 00000001800478f0 f i acl_stdafx.obj
 0001:00046910       ?primary_header@mime@acl@@QEBAAEBVmime_head@2@XZ 0000000180047910 f i acl_stdafx.obj
 0001:00046920       ?proc_exit_timer@master_threads@acl@@MEAA_N_K0@Z 0000000180047920 f i acl_stdafx.obj
 0001:00046940       ?proc_on_bind@master_udp@acl@@MEAAXAEAVsocket_stream@2@@Z 0000000180047940 f i acl_stdafx.obj
 0001:00046950       ?proc_on_exit@master_base@acl@@MEAAXXZ 0000000180047950 f i acl_stdafx.obj
 0001:00046960       ?proc_on_init@master_base@acl@@MEAAXXZ 0000000180047960 f i acl_stdafx.obj
 0001:00046970       ?proc_on_listen@master_base@acl@@MEAAXAEAVserver_socket@2@@Z 0000000180047970 f i acl_stdafx.obj
 0001:00046980       ?proc_on_sighup@master_base@acl@@MEAA_NAEAVstring@2@@Z 0000000180047980 f i acl_stdafx.obj
 0001:000469a0       ?proc_on_unbind@master_udp@acl@@MEAAXAEAVsocket_stream@2@@Z 00000001800479a0 f i acl_stdafx.obj
 0001:000469b0       ?proc_pre_jail@master_base@acl@@MEAAXXZ 00000001800479b0 f i acl_stdafx.obj
 0001:000469c0       ?push_back@?$vector@Vredis_role4slave@acl@@V?$allocator@Vredis_role4slave@acl@@@std@@@std@@QEAAXAEBVredis_role4slave@acl@@@Z 00000001800479c0 f i acl_stdafx.obj
 0001:00046bb0       ?rcpt_list@mime@acl@@QEBAAEBV?$list@PEADV?$allocator@PEAD@std@@@std@@XZ 0000000180047bb0 f i acl_stdafx.obj
 0001:00046bf0       ?read_callback@aio_callback@acl@@UEAA_NPEADH@Z 0000000180047bf0 f i acl_stdafx.obj
 0001:00046c10       ?read_wakeup@aio_callback@acl@@UEAA_NXZ 0000000180047c10 f i acl_stdafx.obj
 0001:00046c20       ?redicrect_reset@http_header@acl@@UEAAXXZ 0000000180047c20 f i acl_stdafx.obj
 0001:00046c30       ?replyto@mime@acl@@QEBAAEBVstring@2@XZ 0000000180047c30 f i acl_stdafx.obj
 0001:00046c70       ?request_buf@redis_command@acl@@QEBAPEBVstring@2@XZ 0000000180047c70 f i acl_stdafx.obj
 0001:00046c90       ?returnpath@mime@acl@@QEBAAEBVstring@2@XZ 0000000180047c90 f i acl_stdafx.obj
 0001:00046cd0       ?rollback@db_handle@acl@@UEAA_NXZ 0000000180047cd0 f i acl_stdafx.obj
 0001:00046ce0       ?rpc_wakeup@rpc_request@acl@@MEAAXPEAX@Z 0000000180047ce0 f i acl_stdafx.obj
 0001:00046cf0       ?select_on_container_copy_construction@?$_Wrap_alloc@V?$allocator@D@std@@@std@@QEBA?AU12@XZ 0000000180047cf0 f i acl_stdafx.obj
 0001:00046d50       ?select_on_container_copy_construction@?$_Wrap_alloc@V?$allocator@U?$_List_node@Ufield_t@gsoner@acl@@PEAX@std@@@std@@@std@@QEBA?AU12@XZ 0000000180047d50 f i acl_stdafx.obj
 0001:00046db0       ?select_on_container_copy_construction@?$_Wrap_alloc@V?$allocator@U?$_List_node@Uparent_obj_t@gsoner@acl@@PEAX@std@@@std@@@std@@QEBA?AU12@XZ 0000000180047db0 f i acl_stdafx.obj
 0001:00046e10       ?select_on_container_copy_construction@?$_Wrap_alloc@V?$allocator@U?$_List_node@V?$basic_string@DU?$char_traits@D@std@@V?$allocator@D@2@@std@@PEAX@std@@@std@@@std@@QEBA?AU12@XZ 0000000180047e10 f i acl_stdafx.obj
 0001:00046e70       ?select_on_container_copy_construction@?$_Wrap_alloc@V?$allocator@U?$_List_node@Vstring@acl@@PEAX@std@@@std@@@std@@QEBA?AU12@XZ 0000000180047e70 f i acl_stdafx.obj
 0001:00046ed0       ?select_on_container_copy_construction@?$_Wrap_alloc@V?$allocator@U?$_Tree_node@U?$pair@$$CBV?$basic_string@DU?$char_traits@D@std@@V?$allocator@D@2@@std@@Uobject_t@gsoner@acl@@@std@@PEAX@std@@@std@@@std@@QEBA?AU12@XZ 0000000180047ed0 f i acl_stdafx.obj
 0001:00046f30       ?select_on_container_copy_construction@?$_Wrap_alloc@V?$allocator@Vredis_role4slave@acl@@@std@@@std@@QEBA?AU12@XZ 0000000180047f30 f i acl_stdafx.obj
 0001:00046f90       ?select_on_container_copy_construction@?$allocator@D@std@@QEBA?AV12@XZ 0000000180047f90 f i acl_stdafx.obj
 0001:00046fe0       ?select_on_container_copy_construction@?$allocator@U?$_List_node@Ufield_t@gsoner@acl@@PEAX@std@@@std@@QEBA?AV12@XZ 0000000180047fe0 f i acl_stdafx.obj
 0001:00047030       ?select_on_container_copy_construction@?$allocator@U?$_List_node@Uparent_obj_t@gsoner@acl@@PEAX@std@@@std@@QEBA?AV12@XZ 0000000180048030 f i acl_stdafx.obj
 0001:00047080       ?select_on_container_copy_construction@?$allocator@U?$_List_node@V?$basic_string@DU?$char_traits@D@std@@V?$allocator@D@2@@std@@PEAX@std@@@std@@QEBA?AV12@XZ 0000000180048080 f i acl_stdafx.obj
 0001:000470d0       ?select_on_container_copy_construction@?$allocator@U?$_List_node@Vstring@acl@@PEAX@std@@@std@@QEBA?AV12@XZ 00000001800480d0 f i acl_stdafx.obj
 0001:00047120       ?select_on_container_copy_construction@?$allocator@U?$_Tree_node@U?$pair@$$CBV?$basic_string@DU?$char_traits@D@std@@V?$allocator@D@2@@std@@Uobject_t@gsoner@acl@@@std@@PEAX@std@@@std@@QEBA?AV12@XZ 0000000180048120 f i acl_stdafx.obj
 0001:00047170       ?select_on_container_copy_construction@?$allocator@Vredis_role4slave@acl@@@std@@QEBA?AV12@XZ 0000000180048170 f i acl_stdafx.obj
 0001:000471c0       ?select_on_container_copy_construction@?$allocator_traits@V?$allocator@D@std@@@std@@SA?AV?$allocator@D@2@AEBV32@@Z 00000001800481c0 f i acl_stdafx.obj
 0001:00047210       ?select_on_container_copy_construction@?$allocator_traits@V?$allocator@U?$_List_node@Ufield_t@gsoner@acl@@PEAX@std@@@std@@@std@@SA?AV?$allocator@U?$_List_node@Ufield_t@gsoner@acl@@PEAX@std@@@2@AEBV32@@Z 0000000180048210 f i acl_stdafx.obj
 0001:00047260       ?select_on_container_copy_construction@?$allocator_traits@V?$allocator@U?$_List_node@Uparent_obj_t@gsoner@acl@@PEAX@std@@@std@@@std@@SA?AV?$allocator@U?$_List_node@Uparent_obj_t@gsoner@acl@@PEAX@std@@@2@AEBV32@@Z 0000000180048260 f i acl_stdafx.obj
 0001:000472b0       ?select_on_container_copy_construction@?$allocator_traits@V?$allocator@U?$_List_node@V?$basic_string@DU?$char_traits@D@std@@V?$allocator@D@2@@std@@PEAX@std@@@std@@@std@@SA?AV?$allocator@U?$_List_node@V?$basic_string@DU?$char_traits@D@std@@V?$allocator@D@2@@std@@PEAX@std@@@2@AEBV32@@Z 00000001800482b0 f i acl_stdafx.obj
 0001:00047300       ?select_on_container_copy_construction@?$allocator_traits@V?$allocator@U?$_List_node@Vstring@acl@@PEAX@std@@@std@@@std@@SA?AV?$allocator@U?$_List_node@Vstring@acl@@PEAX@std@@@2@AEBV32@@Z 0000000180048300 f i acl_stdafx.obj
 0001:00047350       ?select_on_container_copy_construction@?$allocator_traits@V?$allocator@U?$_Tree_node@U?$pair@$$CBV?$basic_string@DU?$char_traits@D@std@@V?$allocator@D@2@@std@@Uobject_t@gsoner@acl@@@std@@PEAX@std@@@std@@@std@@SA?AV?$allocator@U?$_Tree_node@U?$pair@$$CBV?$basic_string@DU?$char_traits@D@std@@V?$allocator@D@2@@std@@Uobject_t@gsoner@acl@@@std@@PEAX@std@@@2@AEBV32@@Z 0000000180048350 f i acl_stdafx.obj
 0001:000473a0       ?select_on_container_copy_construction@?$allocator_traits@V?$allocator@Vredis_role4slave@acl@@@std@@@std@@SA?AV?$allocator@Vredis_role4slave@acl@@@2@AEBV32@@Z 00000001800483a0 f i acl_stdafx.obj
 0001:000473f0       ?self@thread@acl@@SAKXZ    00000001800483f0 f i acl_stdafx.obj
 0001:00047420       ?sender@mime@acl@@QEBAAEBVstring@2@XZ 0000000180048420 f i acl_stdafx.obj
 0001:00047460       ?set_boundary@mime@acl@@QEAAAEAV12@PEBD@Z 0000000180048460 f i acl_stdafx.obj
 0001:000474b0       ?set_from@mime@acl@@QEAAAEAV12@PEBD@Z 00000001800484b0 f i acl_stdafx.obj
 0001:00047500       ?set_hwnd@ipc_request@acl@@QEAAXPEAUHWND__@@@Z 0000000180048500 f i acl_stdafx.obj
 0001:00047530       ?set_id@disque_node@acl@@QEAAXPEBD@Z 0000000180048530 f i acl_stdafx.obj
 0001:00047580       ?set_idle@db_pool@acl@@QEAAXH@Z 0000000180048580 f i acl_stdafx.obj
 0001:000475d0       ?set_ip@disque_node@acl@@QEAAXPEBD@Z 00000001800485d0 f i acl_stdafx.obj
 0001:00047620       ?set_ip@redis_role4slave@acl@@QEAAXPEBD@Z 0000000180048620 f i acl_stdafx.obj
 0001:00047670       ?set_keep@connect_guard@acl@@QEAAX_N@Z 0000000180048670 f i acl_stdafx.obj
 0001:00047690       ?set_offset@redis_role4master@acl@@QEAAX_J@Z 0000000180048690 f i acl_stdafx.obj
 0001:000476b0       ?set_offset@redis_role4slave@acl@@QEAAX_J@Z 00000001800486b0 f i acl_stdafx.obj
 0001:000476e0       ?set_pool@connect_client@acl@@IEAAXPEAVconnect_pool@2@@Z 00000001800486e0 f i acl_stdafx.obj
 0001:00047710       ?set_port@disque_node@acl@@QEAAXH@Z 0000000180048710 f i acl_stdafx.obj
 0001:00047740       ?set_port@redis_role4slave@acl@@QEAAXH@Z 0000000180048740 f i acl_stdafx.obj
 0001:00047760       ?set_priority@disque_node@acl@@QEAAXH@Z 0000000180048760 f i acl_stdafx.obj
 0001:00047790       ?set_replyto@mime@acl@@QEAAAEAV12@PEBD@Z 0000000180048790 f i acl_stdafx.obj
 0001:000477e0       ?set_returnpath@mime@acl@@QEAAAEAV12@PEBD@Z 00000001800487e0 f i acl_stdafx.obj
 0001:00047830       ?set_sender@mime@acl@@QEAAAEAV12@PEBD@Z 0000000180048830 f i acl_stdafx.obj
 0001:00047880       ?set_status@mime_body@acl@@QEAAX_N@Z 0000000180048880 f i acl_stdafx.obj
 0001:000478b0       ?set_status@redis_role4slave@acl@@QEAAXPEBD@Z 00000001800488b0 f i acl_stdafx.obj
 0001:00047900       ?set_subject@mime@acl@@QEAAAEAV12@PEBD@Z 0000000180048900 f i acl_stdafx.obj
 0001:00047950       ?set_timeout@connect_client@acl@@UEAAXHH@Z 0000000180048950 f i acl_stdafx.obj
 0001:00047990       ?set_type@mime@acl@@QEAAAEAV12@PEBD0@Z 0000000180048990 f i acl_stdafx.obj
 0001:000479f0       ?set_when@connect_client@acl@@QEAAX_J@Z 00000001800489f0 f i acl_stdafx.obj
 0001:00047a20       ?size@?$_Tree@V?$_Tmap_traits@V?$basic_string@DU?$char_traits@D@std@@V?$allocator@D@2@@std@@Uobject_t@gsoner@acl@@U?$less@V?$basic_string@DU?$char_traits@D@std@@V?$allocator@D@2@@std@@@2@V?$allocator@U?$pair@$$CBV?$basic_string@DU?$char_traits@D@std@@V?$allocator@D@2@@std@@Uobject_t@gsoner@acl@@@std@@@2@$0A@@std@@@std@@QEBA_KXZ 0000000180048a20 f i acl_stdafx.obj
 0001:00047a40       ?size@?$basic_string@DU?$char_traits@D@std@@V?$allocator@D@2@@std@@QEBA_KXZ 0000000180048a40 f i acl_stdafx.obj
 0001:00047a60       ?size@?$vector@PEAVredis_slot@acl@@V?$allocator@PEAVredis_slot@acl@@@std@@@std@@QEBA_KXZ 0000000180048a60 f i acl_stdafx.obj
 0001:00047a90       ?size@?$vector@Vredis_role4slave@acl@@V?$allocator@Vredis_role4slave@acl@@@std@@@std@@QEBA_KXZ 0000000180048a90 f i acl_stdafx.obj
 0001:00047ac0       ?size@dbuf_guard@acl@@QEBA_KXZ 0000000180048ac0 f i acl_stdafx.obj
 0001:00047ae0       ?sock_handle@aio_stream@acl@@QEBA_KXZ 0000000180048ae0 f i acl_stdafx.obj
 0001:00047b20       ?sock_handle@server_socket@acl@@QEBA_KXZ 0000000180048b20 f i acl_stdafx.obj
 0001:00047b40       ?subject@mime@acl@@QEBAAEBVstring@2@XZ 0000000180048b40 f i acl_stdafx.obj
 0001:00047b80       ?system_category@std@@YAAEBVerror_category@1@XZ 0000000180048b80 f i acl_stdafx.obj
 0001:00047b90       ?thread_on_accept@master_threads@acl@@MEAA_NPEAVsocket_stream@2@@Z 0000000180048b90 f i acl_stdafx.obj
 0001:00047bb0       ?thread_on_close@master_threads@acl@@MEAAXPEAVsocket_stream@2@@Z 0000000180048bb0 f i acl_stdafx.obj
 0001:00047bc0       ?thread_on_exit@master_threads@acl@@MEAAXXZ 0000000180048bc0 f i acl_stdafx.obj
 0001:00047bd0       ?thread_on_exit@thread_pool@acl@@MEAAXXZ 0000000180048bd0 f i acl_stdafx.obj
 0001:00047be0       ?thread_on_handshake@master_threads@acl@@MEAA_NPEAVsocket_stream@2@@Z 0000000180048be0 f i acl_stdafx.obj
 0001:00047c00       ?thread_on_init@master_threads@acl@@MEAAXXZ 0000000180048c00 f i acl_stdafx.obj
 0001:00047c10       ?thread_on_init@master_udp@acl@@MEAAXXZ 0000000180048c10 f i acl_stdafx.obj
 0001:00047c20       ?thread_on_init@thread_pool@acl@@MEAA_NXZ 0000000180048c20 f i acl_stdafx.obj
 0001:00047c30       ?thread_on_timeout@master_threads@acl@@MEAA_NPEAVsocket_stream@2@@Z 0000000180048c30 f i acl_stdafx.obj
 0001:00047c50       ?timeout_callback@aio_callback@acl@@UEAA_NXZ 0000000180048c50 f i acl_stdafx.obj
 0001:00047c60       ?to_list@mime@acl@@QEBAAEBV?$list@PEADV?$allocator@PEAD@std@@@std@@XZ 0000000180048c60 f i acl_stdafx.obj
 0001:00047ca0       ?value@atomic_long@acl@@QEBA_JXZ 0000000180048ca0 f i acl_stdafx.obj
 0001:00047cc0       ?value@error_code@std@@QEBAHXZ 0000000180048cc0 f i acl_stdafx.obj
 0001:00047ce0       ?value@error_condition@std@@QEBAHXZ 0000000180048ce0 f i acl_stdafx.obj
 0001:00047d00       ?write_callback@aio_callback@acl@@UEAA_NXZ 0000000180048d00 f i acl_stdafx.obj
 0001:00047d10       ?write_wakeup@aio_callback@acl@@UEAA_NXZ 0000000180048d10 f i acl_stdafx.obj
 0001:00047d20       hypot                      0000000180048d20 f i acl_stdafx.obj
 0001:00047d70       ??0beanstalk@acl@@QEAA@PEBDH_N@Z 0000000180048d70 f   beanstalk.obj
 0001:00047ea0       ??1beanstalk@acl@@QEAA@XZ  0000000180048ea0 f   beanstalk.obj
 0001:000480a0       ?use@beanstalk@acl@@QEAA_NPEBD@Z 00000001800490a0 f   beanstalk.obj
 0001:000483a0       ?put@beanstalk@acl@@QEAA_KPEBX_KIII@Z 00000001800493a0 f   beanstalk.obj
 0001:00048620       ?format_put@beanstalk@acl@@QEAA_KIIIPEBDZZ 0000000180049620 f   beanstalk.obj
 0001:000486c0       ?vformat_put@beanstalk@acl@@QEAA_KPEBDPEADIII@Z 00000001800496c0 f   beanstalk.obj
 0001:000487c0       ?format_put@beanstalk@acl@@QEAA_KPEBDZZ 00000001800497c0 f   beanstalk.obj
 0001:00048860       ?watch@beanstalk@acl@@QEAAIPEBD@Z 0000000180049860 f   beanstalk.obj
 0001:00048cb0       ?ignore@beanstalk@acl@@QEAAIPEBD@Z 0000000180049cb0 f   beanstalk.obj
 0001:00048f70       ?ignore_all@beanstalk@acl@@QEAAIXZ 0000000180049f70 f   beanstalk.obj
 0001:000492b0       ?reserve@beanstalk@acl@@QEAA_KAEAVstring@2@H@Z 000000018004a2b0 f   beanstalk.obj
 0001:000497c0       ?delete_id@beanstalk@acl@@QEAA_N_K@Z 000000018004a7c0 f   beanstalk.obj
 0001:000499f0       ?release@beanstalk@acl@@QEAA_N_KII@Z 000000018004a9f0 f   beanstalk.obj
 0001:00049c30       ?bury@beanstalk@acl@@QEAA_N_KI@Z 000000018004ac30 f   beanstalk.obj
 0001:00049e60       ?touch@beanstalk@acl@@QEAA_N_K@Z 000000018004ae60 f   beanstalk.obj
 0001:0004a090       ?open@beanstalk@acl@@QEAA_NXZ 000000018004b090 f   beanstalk.obj
 0001:0004a170       ?close@beanstalk@acl@@QEAAXXZ 000000018004b170 f   beanstalk.obj
 0001:0004a360       ?quit@beanstalk@acl@@QEAAXXZ 000000018004b360 f   beanstalk.obj
 0001:0004a400       ?peek@beanstalk@acl@@QEAA_KAEAVstring@2@_K@Z 000000018004b400 f   beanstalk.obj
 0001:0004a450       ?peek_ready@beanstalk@acl@@QEAA_KAEAVstring@2@@Z 000000018004b450 f   beanstalk.obj
 0001:0004a4a0       ?peek_delayed@beanstalk@acl@@QEAA_KAEAVstring@2@@Z 000000018004b4a0 f   beanstalk.obj
 0001:0004a4f0       ?peek_buried@beanstalk@acl@@QEAA_KAEAVstring@2@@Z 000000018004b4f0 f   beanstalk.obj
 0001:0004a540       ?kick@beanstalk@acl@@QEAAHI@Z 000000018004b540 f   beanstalk.obj
 0001:0004a7b0       ?list_tube_used@beanstalk@acl@@QEAA_NAEAVstring@2@@Z 000000018004b7b0 f   beanstalk.obj
 0001:0004aa20       ?list_tubes@beanstalk@acl@@QEAA_NAEAVstring@2@@Z 000000018004ba20 f   beanstalk.obj
 0001:0004aa70       ?list_tubes_watched@beanstalk@acl@@QEAA_NAEAVstring@2@@Z 000000018004ba70 f   beanstalk.obj
 0001:0004aac0       ?pause_tube@beanstalk@acl@@QEAA_NPEBDI@Z 000000018004bac0 f   beanstalk.obj
 0001:0004acf0       ?peek_fmt@beanstalk@acl@@AEAA_KAEAVstring@2@PEBDZZ 000000018004bcf0 f   beanstalk.obj
 0001:0004b0f0       ?list_tubes_fmt@beanstalk@acl@@AEAA_NAEAVstring@2@PEBDZZ 000000018004c0f0 f   beanstalk.obj
 0001:0004b430       ?ignore_one@beanstalk@acl@@AEAAIPEBD@Z 000000018004c430 f   beanstalk.obj
 0001:0004b700       ?beanstalk_open@beanstalk@acl@@AEAA_NXZ 000000018004c700 f   beanstalk.obj
 0001:0004ba00       ?beanstalk_use@beanstalk@acl@@AEAA_NXZ 000000018004ca00 f   beanstalk.obj
 0001:0004bd90       ?beanstalk_watch@beanstalk@acl@@AEAAIPEBD@Z 000000018004cd90 f   beanstalk.obj
 0001:0004c0f0       ?beanstalk_request@beanstalk@acl@@AEAAPEAUACL_ARGV@@AEBVstring@2@PEBX_K@Z 000000018004d0f0 f   beanstalk.obj
 0001:0004d740       ??$_Allocate@PEAD@std@@YAPEAPEAD_KPEAPEAD@Z 000000018004e740 f i beanstalk.obj
 0001:0004d7e0       ??$_Debug_pointer@PEAD@std@@YAXPEAPEADPEB_WI@Z 000000018004e7e0 f i beanstalk.obj
 0001:0004d840       ??$_Debug_range2@PEAPEAD@std@@YAXPEAPEAD0PEB_WIUrandom_access_iterator_tag@0@@Z 000000018004e840 f i beanstalk.obj
 0001:0004d8f0       ??$_Debug_range@PEAPEAD@std@@YAXPEAPEAD0PEB_WI@Z 000000018004e8f0 f i beanstalk.obj
 0001:0004d970       ??$_Destroy_range@U?$_Wrap_alloc@V?$allocator@PEAD@std@@@std@@@std@@YAXPEAPEAD0AEAU?$_Wrap_alloc@V?$allocator@PEAD@std@@@0@@Z 000000018004e970 f i beanstalk.obj
 0001:0004d9f0       ??$_Destroy_range@U?$_Wrap_alloc@V?$allocator@PEAD@std@@@std@@@std@@YAXPEAPEAD0AEAU?$_Wrap_alloc@V?$allocator@PEAD@std@@@0@U_Scalar_ptr_iterator_tag@0@@Z 000000018004e9f0 f i beanstalk.obj
 0001:0004da10       ??$_Iter_cat@PEAPEAD@std@@YA?AUrandom_access_iterator_tag@0@AEBQEAPEAD@Z 000000018004ea10 f i beanstalk.obj
 0001:0004da80       ??$_Move@PEAPEADPEAPEAD@std@@YAPEAPEADPEAPEAD00@Z 000000018004ea80 f i beanstalk.obj
 0001:0004db00       ??$_Move@PEAPEADPEAPEAD@std@@YAPEAPEADPEAPEAD00U_Scalar_ptr_iterator_tag@0@@Z 000000018004eb00 f i beanstalk.obj
 0001:0004dba0       ??$_Ptr_cat@PEADPEAD@std@@YA?AU_Scalar_ptr_iterator_tag@0@PEAPEAD0@Z 000000018004eba0 f i beanstalk.obj
 0001:0004dc00       ??$_Rechecked@PEAPEADPEAPEAD@std@@YAAEAPEAPEADAEAPEAPEADPEAPEAD@Z 000000018004ec00 f i beanstalk.obj
 0001:0004dc30       ??$_Umove@PEAPEAD@?$vector@PEADV?$allocator@PEAD@std@@@std@@IEAAPEAPEADPEAPEAD00@Z 000000018004ec30 f i beanstalk.obj
 0001:0004dcc0       ??$_Unchecked@PEAPEAD@std@@YAPEAPEADPEAPEAD@Z 000000018004ecc0 f i beanstalk.obj
 0001:0004dcd0       ??$_Uninit_move@PEADPEADPEAD@std@@YAPEAPEADPEAPEAD00AEAU?$_Wrap_alloc@V?$allocator@PEAD@std@@@0@0U_Scalar_ptr_iterator_tag@0@@Z 000000018004ecd0 f i beanstalk.obj
 0001:0004dda0       ??$_Uninit_move@PEAPEADPEAPEADU?$_Wrap_alloc@V?$allocator@PEAD@std@@@std@@@std@@YAPEAPEADPEAPEAD00AEAU?$_Wrap_alloc@V?$allocator@PEAD@std@@@0@@Z 000000018004eda0 f i beanstalk.obj
 0001:0004de40       ??$_Uninitialized_move@PEAPEADPEAPEADU?$_Wrap_alloc@V?$allocator@PEAD@std@@@std@@@std@@YAPEAPEADPEAPEAD00AEAU?$_Wrap_alloc@V?$allocator@PEAD@std@@@0@@Z 000000018004ee40 f i beanstalk.obj
 0001:0004def0       ??$_Val_type@PEAPEAD@std@@YAPEAPEADPEAPEAD@Z 000000018004eef0 f i beanstalk.obj
 0001:0004df00       ??$addressof@PEAD@std@@YAPEAPEADAEAPEAD@Z 000000018004ef00 f i beanstalk.obj
 0001:0004df10       ??$construct@PEADPEAD@?$_Wrap_alloc@V?$allocator@PEAD@std@@@std@@QEAAXPEAPEAD$$QEAPEAD@Z 000000018004ef10 f i beanstalk.obj
 0001:0004df70       ??$construct@PEADPEAD@?$allocator@PEAD@std@@QEAAXPEAPEAD$$QEAPEAD@Z 000000018004ef70 f i beanstalk.obj
 0001:0004e020       ??$construct@PEADPEAD@?$allocator_traits@V?$allocator@PEAD@std@@@std@@SAXAEAV?$allocator@PEAD@1@PEAPEAD$$QEAPEAD@Z 000000018004f020 f i beanstalk.obj
 0001:0004e080       ??$forward@PEAD@std@@YA$$QEAPEADAEAPEAD@Z 000000018004f080 f i beanstalk.obj
 0001:0004e090       ??0?$_Iterator012@Urandom_access_iterator_tag@std@@PEAD_JPEBQEADAEBQEADU_Iterator_base12@2@@std@@QEAA@AEBU01@@Z 000000018004f090 f i beanstalk.obj
 0001:0004e0e0       ??0?$_Iterator012@Urandom_access_iterator_tag@std@@PEAD_JPEBQEADAEBQEADU_Iterator_base12@2@@std@@QEAA@XZ 000000018004f0e0 f i beanstalk.obj
 0001:0004e120       ??0?$_Vector_alloc@$0A@U?$_Vec_base_types@PEADV?$allocator@PEAD@std@@@std@@@std@@QEAA@AEBV?$allocator@PEAD@1@@Z 000000018004f120 f i beanstalk.obj
 0001:0004e180       ??0?$_Vector_const_iterator@V?$_Vector_val@U?$_Simple_types@PEAD@std@@@std@@@std@@QEAA@AEBV01@@Z 000000018004f180 f i beanstalk.obj
 0001:0004e1f0       ??0?$_Vector_const_iterator@V?$_Vector_val@U?$_Simple_types@PEAD@std@@@std@@@std@@QEAA@PEAPEADPEBU_Container_base12@1@@Z 000000018004f1f0 f i beanstalk.obj
 0001:0004e270       ??0?$_Vector_iterator@V?$_Vector_val@U?$_Simple_types@PEAD@std@@@std@@@std@@QEAA@PEAPEADPEBU_Container_base12@1@@Z 000000018004f270 f i beanstalk.obj
 0001:0004e2d0       ??0?$_Vector_val@U?$_Simple_types@PEAD@std@@@std@@QEAA@XZ 000000018004f2d0 f i beanstalk.obj
 0001:0004e350       ??0?$_Wrap_alloc@V?$allocator@PEAD@std@@@std@@QEAA@XZ 000000018004f350 f i beanstalk.obj
 0001:0004e390       ??0?$allocator@PEAD@std@@QEAA@XZ 000000018004f390 f i beanstalk.obj
 0001:0004e3a0       ??0?$vector@PEADV?$allocator@PEAD@std@@@std@@QEAA@XZ 000000018004f3a0 f i beanstalk.obj
 0001:0004e3f0       ??1?$_Iterator012@Urandom_access_iterator_tag@std@@PEAD_JPEBQEADAEBQEADU_Iterator_base12@2@@std@@QEAA@XZ 000000018004f3f0 f i beanstalk.obj
 0001:0004e430       ??1?$_Vector_alloc@$0A@U?$_Vec_base_types@PEADV?$allocator@PEAD@std@@@std@@@std@@QEAA@XZ 000000018004f430 f i beanstalk.obj
 0001:0004e480       ??1?$_Vector_const_iterator@V?$_Vector_val@U?$_Simple_types@PEAD@std@@@std@@@std@@QEAA@XZ 000000018004f480 f i beanstalk.obj
 0001:0004e4c0       ??1?$_Vector_iterator@V?$_Vector_val@U?$_Simple_types@PEAD@std@@@std@@@std@@QEAA@XZ 000000018004f4c0 f i beanstalk.obj
 0001:0004e500       ??1?$_Vector_val@U?$_Simple_types@PEAD@std@@@std@@QEAA@XZ 000000018004f500 f i beanstalk.obj
 0001:0004e540       ??1?$vector@PEADV?$allocator@PEAD@std@@@std@@QEAA@XZ 000000018004f540 f i beanstalk.obj
 0001:0004e590       ??4?$_Iterator012@Urandom_access_iterator_tag@std@@PEAD_JPEBQEADAEBQEADU_Iterator_base12@2@@std@@QEAAAEAU01@AEBU01@@Z 000000018004f590 f i beanstalk.obj
 0001:0004e5e0       ??4?$_Vector_const_iterator@V?$_Vector_val@U?$_Simple_types@PEAD@std@@@std@@@std@@QEAAAEAV01@AEBV01@@Z 000000018004f5e0 f i beanstalk.obj
 0001:0004e650       ??4?$_Vector_iterator@V?$_Vector_val@U?$_Simple_types@PEAD@std@@@std@@@std@@QEAAAEAV01@AEBV01@@Z 000000018004f650 f i beanstalk.obj
 0001:0004e6a0       ??8?$_Vector_const_iterator@V?$_Vector_val@U?$_Simple_types@PEAD@std@@@std@@@std@@QEBA_NAEBV01@@Z 000000018004f6a0 f i beanstalk.obj
 0001:0004e720       ??9?$_Vector_const_iterator@V?$_Vector_val@U?$_Simple_types@PEAD@std@@@std@@@std@@QEBA_NAEBV01@@Z 000000018004f720 f i beanstalk.obj
 0001:0004e790       ??A?$vector@PEADV?$allocator@PEAD@std@@@std@@QEAAAEAPEAD_K@Z 000000018004f790 f i beanstalk.obj
 0001:0004e8b0       ??D?$_Vector_const_iterator@V?$_Vector_val@U?$_Simple_types@PEAD@std@@@std@@@std@@QEBAAEBQEADXZ 000000018004f8b0 f i beanstalk.obj
 0001:0004ea10       ??D?$_Vector_iterator@V?$_Vector_val@U?$_Simple_types@PEAD@std@@@std@@@std@@QEBAAEAPEADXZ 000000018004fa10 f i beanstalk.obj
 0001:0004ea50       ??E?$_Vector_const_iterator@V?$_Vector_val@U?$_Simple_types@PEAD@std@@@std@@@std@@QEAAAEAV01@XZ 000000018004fa50 f i beanstalk.obj
 0001:0004eba0       ??E?$_Vector_iterator@V?$_Vector_val@U?$_Simple_types@PEAD@std@@@std@@@std@@QEAAAEAV01@XZ 000000018004fba0 f i beanstalk.obj
 0001:0004ebe0       ?_Alloc_proxy@?$_Vector_alloc@$0A@U?$_Vec_base_types@PEADV?$allocator@PEAD@std@@@std@@@std@@QEAAXXZ 000000018004fbe0 f i beanstalk.obj
 0001:0004ec90       ?_Compat@?$_Vector_const_iterator@V?$_Vector_val@U?$_Simple_types@PEAD@std@@@std@@@std@@QEBAXAEBV12@@Z 000000018004fc90 f i beanstalk.obj
 0001:0004edc0       ?_Destroy@?$vector@PEADV?$allocator@PEAD@std@@@std@@IEAAXPEAPEAD0@Z 000000018004fdc0 f i beanstalk.obj
 0001:0004ee40       ?_Free_proxy@?$_Vector_alloc@$0A@U?$_Vec_base_types@PEADV?$allocator@PEAD@std@@@std@@@std@@QEAAXXZ 000000018004fe40 f i beanstalk.obj
 0001:0004eee0       ?_Getal@?$_Vector_alloc@$0A@U?$_Vec_base_types@PEADV?$allocator@PEAD@std@@@std@@@std@@QEBA?AU?$_Wrap_alloc@V?$allocator@PEAD@std@@@2@XZ 000000018004fee0 f i beanstalk.obj
 0001:0004ef30       ?_Grow_to@?$vector@PEADV?$allocator@PEAD@std@@@std@@IEBA_K_K@Z 000000018004ff30 f i beanstalk.obj
 0001:0004f020       ?_Inside@?$vector@PEADV?$allocator@PEAD@std@@@std@@IEBA_NPEBQEAD@Z 0000000180050020 f i beanstalk.obj
 0001:0004f0a0       ?_Make_iter@?$vector@PEADV?$allocator@PEAD@std@@@std@@QEBA?AV?$_Vector_iterator@V?$_Vector_val@U?$_Simple_types@PEAD@std@@@std@@@2@V?$_Vector_const_iterator@V?$_Vector_val@U?$_Simple_types@PEAD@std@@@std@@@2@@Z 00000001800500a0 f i beanstalk.obj
 0001:0004f130       ?_Orphan_range@?$vector@PEADV?$allocator@PEAD@std@@@std@@IEBAXPEAPEAD0@Z 0000000180050130 f i beanstalk.obj
 0001:0004f250       ?_Reallocate@?$vector@PEADV?$allocator@PEAD@std@@@std@@IEAAX_K@Z 0000000180050250 f i beanstalk.obj
 0001:0004f3e0       ?_Reserve@?$vector@PEADV?$allocator@PEAD@std@@@std@@IEAAX_K@Z 00000001800503e0 f i beanstalk.obj
 0001:0004f4a0       ?_Tidy@?$vector@PEADV?$allocator@PEAD@std@@@std@@IEAAXXZ 00000001800504a0 f i beanstalk.obj
 0001:0004f5a0       ?_Unused_capacity@?$vector@PEADV?$allocator@PEAD@std@@@std@@QEBA_KXZ 00000001800505a0 f i beanstalk.obj
 0001:0004f5d0       ?_Xlen@?$vector@PEADV?$allocator@PEAD@std@@@std@@IEBAXXZ 00000001800505d0 f i beanstalk.obj
 0001:0004f610       ?allocate@?$_Wrap_alloc@V?$allocator@PEAD@std@@@std@@QEAAPEAPEAD_K@Z 0000000180050610 f i beanstalk.obj
 0001:0004f660       ?allocate@?$allocator@PEAD@std@@QEAAPEAPEAD_K@Z 0000000180050660 f i beanstalk.obj
 0001:0004f6b0       ?begin@?$vector@PEADV?$allocator@PEAD@std@@@std@@QEAA?AV?$_Vector_iterator@V?$_Vector_val@U?$_Simple_types@PEAD@std@@@std@@@2@XZ 00000001800506b0 f i beanstalk.obj
 0001:0004f710       ?capacity@?$vector@PEADV?$allocator@PEAD@std@@@std@@QEBA_KXZ 0000000180050710 f i beanstalk.obj
 0001:0004f740       ?clear@?$vector@PEADV?$allocator@PEAD@std@@@std@@QEAAXXZ 0000000180050740 f i beanstalk.obj
 0001:0004f7c0       ?deallocate@?$_Wrap_alloc@V?$allocator@PEAD@std@@@std@@QEAAXPEAPEAD_K@Z 00000001800507c0 f i beanstalk.obj
 0001:0004f820       ?deallocate@?$allocator@PEAD@std@@QEAAXPEAPEAD_K@Z 0000000180050820 f i beanstalk.obj
 0001:0004f870       ?empty@?$vector@PEADV?$allocator@PEAD@std@@@std@@QEBA_NXZ 0000000180050870 f i beanstalk.obj
 0001:0004f8d0       ?end@?$vector@PEADV?$allocator@PEAD@std@@@std@@QEAA?AV?$_Vector_iterator@V?$_Vector_val@U?$_Simple_types@PEAD@std@@@std@@@2@XZ 00000001800508d0 f i beanstalk.obj
 0001:0004f930       ?erase@?$vector@PEADV?$allocator@PEAD@std@@@std@@QEAA?AV?$_Vector_iterator@V?$_Vector_val@U?$_Simple_types@PEAD@std@@@std@@@2@V?$_Vector_const_iterator@V?$_Vector_val@U?$_Simple_types@PEAD@std@@@std@@@2@@Z 0000000180050930 f i beanstalk.obj
 0001:0004fb00       ?max_size@?$_Wrap_alloc@V?$allocator@PEAD@std@@@std@@QEBA_KXZ 0000000180050b00 f i beanstalk.obj
 0001:0004fb40       ?max_size@?$allocator@PEAD@std@@QEBA_KXZ 0000000180050b40 f i beanstalk.obj
 0001:0004fb60       ?max_size@?$allocator_traits@V?$allocator@PEAD@std@@@std@@SA_KAEBV?$allocator@PEAD@2@@Z 0000000180050b60 f i beanstalk.obj
 0001:0004fba0       ?max_size@?$vector@PEADV?$allocator@PEAD@std@@@std@@QEBA_KXZ 0000000180050ba0 f i beanstalk.obj
 0001:0004fbf0       ?push_back@?$vector@PEADV?$allocator@PEAD@std@@@std@@QEAAX$$QEAPEAD@Z 0000000180050bf0 f i beanstalk.obj
 0001:0004fdf0       ?size@?$vector@PEADV?$allocator@PEAD@std@@@std@@QEBA_KXZ 0000000180050df0 f i beanstalk.obj
 0001:0004fe20       ??0beanstalk_pool@acl@@QEAA@XZ 0000000180050e20 f   beanstalk_pool.obj
 0001:0004fee0       ??1beanstalk_pool@acl@@QEAA@XZ 0000000180050ee0 f   beanstalk_pool.obj
 0001:00050080       ?peek@beanstalk_pool@acl@@QEAAPEAVbeanstalk@2@PEBD_NH@Z 0000000180051080 f   beanstalk_pool.obj
 0001:00050380       ?put@beanstalk_pool@acl@@QEAAXPEAVbeanstalk@2@_N1@Z 0000000180051380 f   beanstalk_pool.obj
 0001:00050630       ??$?0AEAV?$_Tree_iterator@V?$_Tree_val@U?$_Tree_simple_types@U?$pair@$$CBVstring@acl@@PEAVbeanstalk@2@@std@@@std@@@std@@@std@@AEAV01@X@?$pair@V?$_Tree_iterator@V?$_Tree_val@U?$_Tree_simple_types@U?$pair@$$CBVstring@acl@@PEAVbeanstalk@2@@std@@@std@@@std@@@std@@V12@@std@@QEAA@AEAV?$_Tree_iterator@V?$_Tree_val@U?$_Tree_simple_types@U?$pair@$$CBVstring@acl@@PEAVbeanstalk@2@@std@@@std@@@std@@@1@0@Z 0000000180051630 f i beanstalk_pool.obj
 0001:000506c0       ??$?0AEAV?$_Tree_iterator@V?$_Tree_val@U?$_Tree_simple_types@U?$pair@$$CBVstring@acl@@PEAVbeanstalk@2@@std@@@std@@@std@@@std@@_NX@?$pair@V?$_Tree_iterator@V?$_Tree_val@U?$_Tree_simple_types@U?$pair@$$CBVstring@acl@@PEAVbeanstalk@2@@std@@@std@@@std@@@std@@_N@std@@QEAA@AEAV?$_Tree_iterator@V?$_Tree_val@U?$_Tree_simple_types@U?$pair@$$CBVstring@acl@@PEAVbeanstalk@2@@std@@@std@@@std@@@1@$$QEA_N@Z 00000001800516c0 f i beanstalk_pool.obj
 0001:00050750       ??$?0PEBDAEAPEAVbeanstalk@acl@@X@?$pair@PEBDPEAVbeanstalk@acl@@@std@@QEAA@$$QEAPEBDAEAPEAVbeanstalk@acl@@@Z 0000000180051750 f i beanstalk_pool.obj
 0001:000507d0       ??$?0PEBDPEAVbeanstalk@acl@@X@?$pair@$$CBVstring@acl@@PEAVbeanstalk@2@@std@@QEAA@$$QEAU?$pair@PEBDPEAVbeanstalk@acl@@@1@@Z 00000001800517d0 f i beanstalk_pool.obj
 0001:00050860       ??$?0U?$_Tree_node@U?$pair@$$CBVstring@acl@@PEAVbeanstalk@2@@std@@PEAX@std@@@?$allocator@U_Container_proxy@std@@@std@@QEAA@AEBV?$allocator@U?$_Tree_node@U?$pair@$$CBVstring@acl@@PEAVbeanstalk@2@@std@@PEAX@std@@@1@@Z 0000000180051860 f i beanstalk_pool.obj
 0001:00050880       ??$?0U?$_Wrap_alloc@V?$allocator@U?$_Tree_node@U?$pair@$$CBVstring@acl@@PEAVbeanstalk@2@@std@@PEAX@std@@@std@@@std@@@?$_Wrap_alloc@V?$allocator@U_Container_proxy@std@@@std@@@std@@QEAA@AEBU?$_Wrap_alloc@V?$allocator@U?$_Tree_node@U?$pair@$$CBVstring@acl@@PEAVbeanstalk@2@@std@@PEAX@std@@@std@@@1@@Z 0000000180051880 f i beanstalk_pool.obj
 0001:000508d0       ??$?0V?$_Tree_iterator@V?$_Tree_val@U?$_Tree_simple_types@U?$pair@$$CBVstring@acl@@PEAVbeanstalk@2@@std@@@std@@@std@@@std@@_NX@?$pair@V?$_Tree_iterator@V?$_Tree_val@U?$_Tree_simple_types@U?$pair@$$CBVstring@acl@@PEAVbeanstalk@2@@std@@@std@@@std@@@std@@_N@std@@QEAA@$$QEAV?$_Tree_iterator@V?$_Tree_val@U?$_Tree_simple_types@U?$pair@$$CBVstring@acl@@PEAVbeanstalk@2@@std@@@std@@@std@@@1@$$QEA_N@Z 00000001800518d0 f i beanstalk_pool.obj
 0001:00050960       ??$_Allocate@U?$_Tree_node@U?$pair@$$CBVstring@acl@@PEAVbeanstalk@2@@std@@PEAX@std@@@std@@YAPEAU?$_Tree_node@U?$pair@$$CBVstring@acl@@PEAVbeanstalk@2@@std@@PEAX@0@_KPEAU10@@Z 0000000180051960 f i beanstalk_pool.obj
 0001:000509f0       ??$_Buynode@U?$pair@PEBDPEAVbeanstalk@acl@@@std@@@?$_Tree_buy@U?$pair@$$CBVstring@acl@@PEAVbeanstalk@2@@std@@V?$allocator@U?$pair@$$CBVstring@acl@@PEAVbeanstalk@2@@std@@@2@@std@@QEAAPEAU?$_Tree_node@U?$pair@$$CBVstring@acl@@PEAVbeanstalk@2@@std@@PEAX@1@$$QEAU?$pair@PEBDPEAVbeanstalk@acl@@@1@@Z 00000001800519f0 f i beanstalk_pool.obj
 0001:00050ad0       ??$_Buynode_if_nil@AEAU?$pair@$$CBVstring@acl@@PEAVbeanstalk@2@@std@@@?$_Tree@V?$_Tmap_traits@Vstring@acl@@PEAVbeanstalk@2@U?$less@Vstring@acl@@@std@@V?$allocator@U?$pair@$$CBVstring@acl@@PEAVbeanstalk@2@@std@@@5@$00@std@@@std@@IEAAPEAU?$_Tree_node@U?$pair@$$CBVstring@acl@@PEAVbeanstalk@2@@std@@PEAX@1@PEAU21@AEAU?$pair@$$CBVstring@acl@@PEAVbeanstalk@2@@1@@Z 0000000180051ad0 f i beanstalk_pool.obj
 0001:00050af0       ??$_Debug_lt_pred@U?$less@Vstring@acl@@@std@@AEBVstring@acl@@AEBV34@@std@@YA_NU?$less@Vstring@acl@@@0@AEBVstring@acl@@1PEB_WI@Z 0000000180051af0 f i beanstalk_pool.obj
 0001:00050be0       ??$_Insert_at@AEAU?$pair@$$CBVstring@acl@@PEAVbeanstalk@2@@std@@PEAU?$_Tree_node@U?$pair@$$CBVstring@acl@@PEAVbeanstalk@2@@std@@PEAX@2@@?$_Tree@V?$_Tmap_traits@Vstring@acl@@PEAVbeanstalk@2@U?$less@Vstring@acl@@@std@@V?$allocator@U?$pair@$$CBVstring@acl@@PEAVbeanstalk@2@@std@@@5@$00@std@@@std@@IEAA?AV?$_Tree_iterator@V?$_Tree_val@U?$_Tree_simple_types@U?$pair@$$CBVstring@acl@@PEAVbeanstalk@2@@std@@@std@@@std@@@1@_NPEAU?$_Tree_node@U?$pair@$$CBVstring@acl@@PEAVbeanstalk@2@@std@@PEAX@1@AEAU?$pair@$$CBVstring@acl@@PEAVbeanstalk@2@@1@1@Z 0000000180051be0 f i beanstalk_pool.obj
 0001:00051150       ??$_Insert_nohint@AEAU?$pair@$$CBVstring@acl@@PEAVbeanstalk@2@@std@@PEAU?$_Tree_node@U?$pair@$$CBVstring@acl@@PEAVbeanstalk@2@@std@@PEAX@2@@?$_Tree@V?$_Tmap_traits@Vstring@acl@@PEAVbeanstalk@2@U?$less@Vstring@acl@@@std@@V?$allocator@U?$pair@$$CBVstring@acl@@PEAVbeanstalk@2@@std@@@5@$00@std@@@std@@IEAA?AU?$pair@V?$_Tree_iterator@V?$_Tree_val@U?$_Tree_simple_types@U?$pair@$$CBVstring@acl@@PEAVbeanstalk@2@@std@@@std@@@std@@@std@@_N@1@_NAEAU?$pair@$$CBVstring@acl@@PEAVbeanstalk@2@@1@PEAU?$_Tree_node@U?$pair@$$CBVstring@acl@@PEAVbeanstalk@2@@std@@PEAX@1@@Z 0000000180052150 f i beanstalk_pool.obj
 0001:00051990       ??$_Kfn@$$CBVstring@acl@@PEAVbeanstalk@2@@?$_Tmap_traits@Vstring@acl@@PEAVbeanstalk@2@U?$less@Vstring@acl@@@std@@V?$allocator@U?$pair@$$CBVstring@acl@@PEAVbeanstalk@2@@std@@@5@$00@std@@SAAEBVstring@acl@@AEBU?$pair@$$CBVstring@acl@@PEAVbeanstalk@2@@1@@Z 0000000180052990 f i beanstalk_pool.obj
 0001:000519a0       ??$addressof@PEAU?$_Tree_node@U?$pair@$$CBVstring@acl@@PEAVbeanstalk@2@@std@@PEAX@std@@@std@@YAPEAPEAU?$_Tree_node@U?$pair@$$CBVstring@acl@@PEAVbeanstalk@2@@std@@PEAX@0@AEAPEAU10@@Z 00000001800529a0 f i beanstalk_pool.obj
 0001:000519b0       ??$addressof@U?$pair@$$CBVstring@acl@@PEAVbeanstalk@2@@std@@@std@@YAPEAU?$pair@$$CBVstring@acl@@PEAVbeanstalk@2@@0@AEAU10@@Z 00000001800529b0 f i beanstalk_pool.obj
 0001:000519c0       ??$construct@PEAU?$_Tree_node@U?$pair@$$CBVstring@acl@@PEAVbeanstalk@2@@std@@PEAX@std@@AEAPEAU12@@?$_Wrap_alloc@V?$allocator@U?$_Tree_node@U?$pair@$$CBVstring@acl@@PEAVbeanstalk@2@@std@@PEAX@std@@@std@@@std@@QEAAXPEAPEAU?$_Tree_node@U?$pair@$$CBVstring@acl@@PEAVbeanstalk@2@@std@@PEAX@1@AEAPEAU21@@Z 00000001800529c0 f i beanstalk_pool.obj
 0001:00051a20       ??$construct@PEAU?$_Tree_node@U?$pair@$$CBVstring@acl@@PEAVbeanstalk@2@@std@@PEAX@std@@AEAPEAU12@@?$allocator@U?$_Tree_node@U?$pair@$$CBVstring@acl@@PEAVbeanstalk@2@@std@@PEAX@std@@@std@@QEAAXPEAPEAU?$_Tree_node@U?$pair@$$CBVstring@acl@@PEAVbeanstalk@2@@std@@PEAX@1@AEAPEAU21@@Z 0000000180052a20 f i beanstalk_pool.obj
 0001:00051ad0       ??$construct@PEAU?$_Tree_node@U?$pair@$$CBVstring@acl@@PEAVbeanstalk@2@@std@@PEAX@std@@AEAPEAU12@@?$allocator_traits@V?$allocator@U?$_Tree_node@U?$pair@$$CBVstring@acl@@PEAVbeanstalk@2@@std@@PEAX@std@@@std@@@std@@SAXAEAV?$allocator@U?$_Tree_node@U?$pair@$$CBVstring@acl@@PEAVbeanstalk@2@@std@@PEAX@std@@@1@PEAPEAU?$_Tree_node@U?$pair@$$CBVstring@acl@@PEAVbeanstalk@2@@std@@PEAX@1@AEAPEAU31@@Z 0000000180052ad0 f i beanstalk_pool.obj
 0001:00051b30       ??$construct@U?$pair@$$CBVstring@acl@@PEAVbeanstalk@2@@std@@U?$pair@PEBDPEAVbeanstalk@acl@@@2@@?$_Wrap_alloc@V?$allocator@U?$_Tree_node@U?$pair@$$CBVstring@acl@@PEAVbeanstalk@2@@std@@PEAX@std@@@std@@@std@@QEAAXPEAU?$pair@$$CBVstring@acl@@PEAVbeanstalk@2@@1@$$QEAU?$pair@PEBDPEAVbeanstalk@acl@@@1@@Z 0000000180052b30 f i beanstalk_pool.obj
 0001:00051b90       ??$construct@U?$pair@$$CBVstring@acl@@PEAVbeanstalk@2@@std@@U?$pair@PEBDPEAVbeanstalk@acl@@@2@@?$allocator@U?$_Tree_node@U?$pair@$$CBVstring@acl@@PEAVbeanstalk@2@@std@@PEAX@std@@@std@@QEAAXPEAU?$pair@$$CBVstring@acl@@PEAVbeanstalk@2@@1@$$QEAU?$pair@PEBDPEAVbeanstalk@acl@@@1@@Z 0000000180052b90 f i beanstalk_pool.obj
 0001:00051c40       ??$construct@U?$pair@$$CBVstring@acl@@PEAVbeanstalk@2@@std@@U?$pair@PEBDPEAVbeanstalk@acl@@@2@@?$allocator_traits@V?$allocator@U?$_Tree_node@U?$pair@$$CBVstring@acl@@PEAVbeanstalk@2@@std@@PEAX@std@@@std@@@std@@SAXAEAV?$allocator@U?$_Tree_node@U?$pair@$$CBVstring@acl@@PEAVbeanstalk@2@@std@@PEAX@std@@@1@PEAU?$pair@$$CBVstring@acl@@PEAVbeanstalk@2@@1@$$QEAU?$pair@PEBDPEAVbeanstalk@acl@@@1@@Z 0000000180052c40 f i beanstalk_pool.obj
 0001:00051ca0       ??$destroy@PEAU?$_Tree_node@U?$pair@$$CBVstring@acl@@PEAVbeanstalk@2@@std@@PEAX@std@@@?$_Wrap_alloc@V?$allocator@U?$_Tree_node@U?$pair@$$CBVstring@acl@@PEAVbeanstalk@2@@std@@PEAX@std@@@std@@@std@@QEAAXPEAPEAU?$_Tree_node@U?$pair@$$CBVstring@acl@@PEAVbeanstalk@2@@std@@PEAX@1@@Z 0000000180052ca0 f i beanstalk_pool.obj
 0001:00051cf0       ??$destroy@PEAU?$_Tree_node@U?$pair@$$CBVstring@acl@@PEAVbeanstalk@2@@std@@PEAX@std@@@?$allocator@U?$_Tree_node@U?$pair@$$CBVstring@acl@@PEAVbeanstalk@2@@std@@PEAX@std@@@std@@QEAAXPEAPEAU?$_Tree_node@U?$pair@$$CBVstring@acl@@PEAVbeanstalk@2@@std@@PEAX@1@@Z 0000000180052cf0 f i beanstalk_pool.obj
 0001:00051d00       ??$destroy@PEAU?$_Tree_node@U?$pair@$$CBVstring@acl@@PEAVbeanstalk@2@@std@@PEAX@std@@@?$allocator_traits@V?$allocator@U?$_Tree_node@U?$pair@$$CBVstring@acl@@PEAVbeanstalk@2@@std@@PEAX@std@@@std@@@std@@SAXAEAV?$allocator@U?$_Tree_node@U?$pair@$$CBVstring@acl@@PEAVbeanstalk@2@@std@@PEAX@std@@@1@PEAPEAU?$_Tree_node@U?$pair@$$CBVstring@acl@@PEAVbeanstalk@2@@std@@PEAX@1@@Z 0000000180052d00 f i beanstalk_pool.obj
 0001:00051d50       ??$destroy@U?$pair@$$CBVstring@acl@@PEAVbeanstalk@2@@std@@@?$_Wrap_alloc@V?$allocator@U?$_Tree_node@U?$pair@$$CBVstring@acl@@PEAVbeanstalk@2@@std@@PEAX@std@@@std@@@std@@QEAAXPEAU?$pair@$$CBVstring@acl@@PEAVbeanstalk@2@@1@@Z 0000000180052d50 f i beanstalk_pool.obj
 0001:00051da0       ??$destroy@U?$pair@$$CBVstring@acl@@PEAVbeanstalk@2@@std@@@?$allocator@U?$_Tree_node@U?$pair@$$CBVstring@acl@@PEAVbeanstalk@2@@std@@PEAX@std@@@std@@QEAAXPEAU?$pair@$$CBVstring@acl@@PEAVbeanstalk@2@@1@@Z 0000000180052da0 f i beanstalk_pool.obj
 0001:00051df0       ??$destroy@U?$pair@$$CBVstring@acl@@PEAVbeanstalk@2@@std@@@?$allocator_traits@V?$allocator@U?$_Tree_node@U?$pair@$$CBVstring@acl@@PEAVbeanstalk@2@@std@@PEAX@std@@@std@@@std@@SAXAEAV?$allocator@U?$_Tree_node@U?$pair@$$CBVstring@acl@@PEAVbeanstalk@2@@std@@PEAX@std@@@1@PEAU?$pair@$$CBVstring@acl@@PEAVbeanstalk@2@@1@@Z 0000000180052df0 f i beanstalk_pool.obj
 0001:00051e40       ??$forward@AEAPEAU?$_Tree_node@U?$pair@$$CBVstring@acl@@PEAVbeanstalk@2@@std@@PEAX@std@@@std@@YAAEAPEAU?$_Tree_node@U?$pair@$$CBVstring@acl@@PEAVbeanstalk@2@@std@@PEAX@0@AEAPEAU10@@Z 0000000180052e40 f i beanstalk_pool.obj
 0001:00051e50       ??$forward@AEAPEAVbeanstalk@acl@@@std@@YAAEAPEAVbeanstalk@acl@@AEAPEAV12@@Z 0000000180052e50 f i beanstalk_pool.obj
 0001:00051e60       ??$forward@AEAU?$pair@$$CBVstring@acl@@PEAVbeanstalk@2@@std@@@std@@YAAEAU?$pair@$$CBVstring@acl@@PEAVbeanstalk@2@@0@AEAU10@@Z 0000000180052e60 f i beanstalk_pool.obj
 0001:00051e70       ??$forward@AEAV?$_Tree_iterator@V?$_Tree_val@U?$_Tree_simple_types@U?$pair@$$CBVstring@acl@@PEAVbeanstalk@2@@std@@@std@@@std@@@std@@@std@@YAAEAV?$_Tree_iterator@V?$_Tree_val@U?$_Tree_simple_types@U?$pair@$$CBVstring@acl@@PEAVbeanstalk@2@@std@@@std@@@std@@@0@AEAV10@@Z 0000000180052e70 f i beanstalk_pool.obj
 0001:00051e80       ??$forward@PEAVbeanstalk@acl@@@std@@YA$$QEAPEAVbeanstalk@acl@@AEAPEAV12@@Z 0000000180052e80 f i beanstalk_pool.obj
 0001:00051e90       ??$forward@PEBD@std@@YA$$QEAPEBDAEAPEBD@Z 0000000180052e90 f i beanstalk_pool.obj
 0001:00051ea0       ??$forward@U?$pair@PEBDPEAVbeanstalk@acl@@@std@@@std@@YA$$QEAU?$pair@PEBDPEAVbeanstalk@acl@@@0@AEAU10@@Z 0000000180052ea0 f i beanstalk_pool.obj
 0001:00051eb0       ??$forward@V?$_Tree_iterator@V?$_Tree_val@U?$_Tree_simple_types@U?$pair@$$CBVstring@acl@@PEAVbeanstalk@2@@std@@@std@@@std@@@std@@@std@@YA$$QEAV?$_Tree_iterator@V?$_Tree_val@U?$_Tree_simple_types@U?$pair@$$CBVstring@acl@@PEAVbeanstalk@2@@std@@@std@@@std@@@0@AEAV10@@Z 0000000180052eb0 f i beanstalk_pool.obj
 0001:00051ec0       ??$forward@_N@std@@YA$$QEA_NAEA_N@Z 0000000180052ec0 f i beanstalk_pool.obj
 0001:00051ed0       ??$insert@U?$pair@PEBDPEAVbeanstalk@acl@@@std@@@?$_Tree@V?$_Tmap_traits@Vstring@acl@@PEAVbeanstalk@2@U?$less@Vstring@acl@@@std@@V?$allocator@U?$pair@$$CBVstring@acl@@PEAVbeanstalk@2@@std@@@5@$00@std@@@std@@QEAA?AU?$pair@V?$_Tree_iterator@V?$_Tree_val@U?$_Tree_simple_types@U?$pair@$$CBVstring@acl@@PEAVbeanstalk@2@@std@@@std@@@std@@@std@@_N@1@$$QEAU?$pair@PEBDPEAVbeanstalk@acl@@@1@@Z 0000000180052ed0 f i beanstalk_pool.obj
 0001:00051f80       ??$insert@U?$pair@PEBDPEAVbeanstalk@acl@@@std@@@?$multimap@Vstring@acl@@PEAVbeanstalk@2@U?$less@Vstring@acl@@@std@@V?$allocator@U?$pair@$$CBVstring@acl@@PEAVbeanstalk@2@@std@@@5@@std@@QEAA?AV?$_Tree_iterator@V?$_Tree_val@U?$_Tree_simple_types@U?$pair@$$CBVstring@acl@@PEAVbeanstalk@2@@std@@@std@@@std@@@1@$$QEAU?$pair@PEBDPEAVbeanstalk@acl@@@1@@Z 0000000180052f80 f i beanstalk_pool.obj
 0001:00052040       ??$make_pair@PEBDAEAPEAVbeanstalk@acl@@@std@@YA?AU?$pair@PEBDPEAVbeanstalk@acl@@@0@$$QEAPEBDAEAPEAVbeanstalk@acl@@@Z 0000000180053040 f i beanstalk_pool.obj
 0001:000520c0       ??0?$_Iterator012@Ubidirectional_iterator_tag@std@@U?$pair@$$CBVstring@acl@@PEAVbeanstalk@2@@2@_JPEBU32@AEBU32@U_Iterator_base12@2@@std@@QEAA@AEBU01@@Z 00000001800530c0 f i beanstalk_pool.obj
 0001:00052110       ??0?$_Iterator012@Ubidirectional_iterator_tag@std@@U?$pair@$$CBVstring@acl@@PEAVbeanstalk@2@@2@_JPEBU32@AEBU32@U_Iterator_base12@2@@std@@QEAA@XZ 0000000180053110 f i beanstalk_pool.obj
 0001:00052150       ??0?$_Tree@V?$_Tmap_traits@Vstring@acl@@PEAVbeanstalk@2@U?$less@Vstring@acl@@@std@@V?$allocator@U?$pair@$$CBVstring@acl@@PEAVbeanstalk@2@@std@@@5@$00@std@@@std@@QEAA@AEBU?$less@Vstring@acl@@@1@AEBV?$allocator@U?$pair@$$CBVstring@acl@@PEAVbeanstalk@2@@std@@@1@@Z 0000000180053150 f i beanstalk_pool.obj
 0001:000521b0       ??0?$_Tree_alloc@$0A@U?$_Tree_base_types@U?$pair@$$CBVstring@acl@@PEAVbeanstalk@2@@std@@V?$allocator@U?$pair@$$CBVstring@acl@@PEAVbeanstalk@2@@std@@@2@@std@@@std@@QEAA@AEBV?$allocator@U?$pair@$$CBVstring@acl@@PEAVbeanstalk@2@@std@@@1@@Z 00000001800531b0 f i beanstalk_pool.obj
 0001:00052230       ??0?$_Tree_buy@U?$pair@$$CBVstring@acl@@PEAVbeanstalk@2@@std@@V?$allocator@U?$pair@$$CBVstring@acl@@PEAVbeanstalk@2@@std@@@2@@std@@QEAA@AEBV?$allocator@U?$pair@$$CBVstring@acl@@PEAVbeanstalk@2@@std@@@1@@Z 0000000180053230 f i beanstalk_pool.obj
 0001:00052280       ??0?$_Tree_comp@$0A@V?$_Tmap_traits@Vstring@acl@@PEAVbeanstalk@2@U?$less@Vstring@acl@@@std@@V?$allocator@U?$pair@$$CBVstring@acl@@PEAVbeanstalk@2@@std@@@5@$00@std@@@std@@QEAA@AEBU?$less@Vstring@acl@@@1@AEBV?$allocator@U?$pair@$$CBVstring@acl@@PEAVbeanstalk@2@@std@@@1@@Z 0000000180053280 f i beanstalk_pool.obj
 0001:000522e0       ??0?$_Tree_const_iterator@V?$_Tree_val@U?$_Tree_simple_types@U?$pair@$$CBVstring@acl@@PEAVbeanstalk@2@@std@@@std@@@std@@@std@@QEAA@AEBV01@@Z 00000001800532e0 f i beanstalk_pool.obj
 0001:00052330       ??0?$_Tree_const_iterator@V?$_Tree_val@U?$_Tree_simple_types@U?$pair@$$CBVstring@acl@@PEAVbeanstalk@2@@std@@@std@@@std@@@std@@QEAA@PEAU?$_Tree_node@U?$pair@$$CBVstring@acl@@PEAVbeanstalk@2@@std@@PEAX@1@PEBV?$_Tree_val@U?$_Tree_simple_types@U?$pair@$$CBVstring@acl@@PEAVbeanstalk@2@@std@@@std@@@1@@Z 0000000180053330 f i beanstalk_pool.obj
 0001:00052390       ??0?$_Tree_iterator@V?$_Tree_val@U?$_Tree_simple_types@U?$pair@$$CBVstring@acl@@PEAVbeanstalk@2@@std@@@std@@@std@@@std@@QEAA@AEBV01@@Z 0000000180053390 f i beanstalk_pool.obj
 0001:000523e0       ??0?$_Tree_iterator@V?$_Tree_val@U?$_Tree_simple_types@U?$pair@$$CBVstring@acl@@PEAVbeanstalk@2@@std@@@std@@@std@@@std@@QEAA@PEAU?$_Tree_node@U?$pair@$$CBVstring@acl@@PEAVbeanstalk@2@@std@@PEAX@1@PEBV?$_Tree_val@U?$_Tree_simple_types@U?$pair@$$CBVstring@acl@@PEAVbeanstalk@2@@std@@@std@@@1@@Z 00000001800533e0 f i beanstalk_pool.obj
 0001:00052440       ??0?$_Tree_unchecked_const_iterator@V?$_Tree_val@U?$_Tree_simple_types@U?$pair@$$CBVstring@acl@@PEAVbeanstalk@2@@std@@@std@@@std@@U_Iterator_base12@2@@std@@QEAA@AEBV01@@Z 0000000180053440 f i beanstalk_pool.obj
 0001:000524b0       ??0?$_Tree_unchecked_const_iterator@V?$_Tree_val@U?$_Tree_simple_types@U?$pair@$$CBVstring@acl@@PEAVbeanstalk@2@@std@@@std@@@std@@U_Iterator_base12@2@@std@@QEAA@PEAU?$_Tree_node@U?$pair@$$CBVstring@acl@@PEAVbeanstalk@2@@std@@PEAX@1@PEBV?$_Tree_val@U?$_Tree_simple_types@U?$pair@$$CBVstring@acl@@PEAVbeanstalk@2@@std@@@std@@@1@@Z 00000001800534b0 f i beanstalk_pool.obj
 0001:00052530       ??0?$_Tree_val@U?$_Tree_simple_types@U?$pair@$$CBVstring@acl@@PEAVbeanstalk@2@@std@@@std@@@std@@QEAA@XZ 0000000180053530 f i beanstalk_pool.obj
 0001:000525a0       ??0?$_Wrap_alloc@V?$allocator@U?$_Tree_node@U?$pair@$$CBVstring@acl@@PEAVbeanstalk@2@@std@@PEAX@std@@@std@@@std@@QEAA@XZ 00000001800535a0 f i beanstalk_pool.obj
 0001:000525e0       ??0?$allocator@U?$_Tree_node@U?$pair@$$CBVstring@acl@@PEAVbeanstalk@2@@std@@PEAX@std@@@std@@QEAA@XZ 00000001800535e0 f i beanstalk_pool.obj
 0001:000525f0       ??0?$allocator@U?$pair@$$CBVstring@acl@@PEAVbeanstalk@2@@std@@@std@@QEAA@XZ 00000001800535f0 f i beanstalk_pool.obj
 0001:00052600       ??0?$multimap@Vstring@acl@@PEAVbeanstalk@2@U?$less@Vstring@acl@@@std@@V?$allocator@U?$pair@$$CBVstring@acl@@PEAVbeanstalk@2@@std@@@5@@std@@QEAA@XZ 0000000180053600 f i beanstalk_pool.obj
 0001:00052660       ??1?$_Iterator012@Ubidirectional_iterator_tag@std@@U?$pair@$$CBVstring@acl@@PEAVbeanstalk@2@@2@_JPEBU32@AEBU32@U_Iterator_base12@2@@std@@QEAA@XZ 0000000180053660 f i beanstalk_pool.obj
 0001:000526a0       ??1?$_Tree@V?$_Tmap_traits@Vstring@acl@@PEAVbeanstalk@2@U?$less@Vstring@acl@@@std@@V?$allocator@U?$pair@$$CBVstring@acl@@PEAVbeanstalk@2@@std@@@5@$00@std@@@std@@QEAA@XZ 00000001800536a0 f i beanstalk_pool.obj
 0001:000526f0       ??1?$_Tree_alloc@$0A@U?$_Tree_base_types@U?$pair@$$CBVstring@acl@@PEAVbeanstalk@2@@std@@V?$allocator@U?$pair@$$CBVstring@acl@@PEAVbeanstalk@2@@std@@@2@@std@@@std@@QEAA@XZ 00000001800536f0 f i beanstalk_pool.obj
 0001:00052750       ??1?$_Tree_buy@U?$pair@$$CBVstring@acl@@PEAVbeanstalk@2@@std@@V?$allocator@U?$pair@$$CBVstring@acl@@PEAVbeanstalk@2@@std@@@2@@std@@QEAA@XZ 0000000180053750 f i beanstalk_pool.obj
 0001:00052790       ??1?$_Tree_comp@$0A@V?$_Tmap_traits@Vstring@acl@@PEAVbeanstalk@2@U?$less@Vstring@acl@@@std@@V?$allocator@U?$pair@$$CBVstring@acl@@PEAVbeanstalk@2@@std@@@5@$00@std@@@std@@QEAA@XZ 0000000180053790 f i beanstalk_pool.obj
 0001:000527d0       ??1?$_Tree_const_iterator@V?$_Tree_val@U?$_Tree_simple_types@U?$pair@$$CBVstring@acl@@PEAVbeanstalk@2@@std@@@std@@@std@@@std@@QEAA@XZ 00000001800537d0 f i beanstalk_pool.obj
 0001:00052810       ??1?$_Tree_iterator@V?$_Tree_val@U?$_Tree_simple_types@U?$pair@$$CBVstring@acl@@PEAVbeanstalk@2@@std@@@std@@@std@@@std@@QEAA@XZ 0000000180053810 f i beanstalk_pool.obj
 0001:00052850       ??1?$_Tree_unchecked_const_iterator@V?$_Tree_val@U?$_Tree_simple_types@U?$pair@$$CBVstring@acl@@PEAVbeanstalk@2@@std@@@std@@@std@@U_Iterator_base12@2@@std@@QEAA@XZ 0000000180053850 f i beanstalk_pool.obj
 0001:00052890       ??1?$_Tree_val@U?$_Tree_simple_types@U?$pair@$$CBVstring@acl@@PEAVbeanstalk@2@@std@@@std@@@std@@QEAA@XZ 0000000180053890 f i beanstalk_pool.obj
 0001:000528d0       ??1?$multimap@Vstring@acl@@PEAVbeanstalk@2@U?$less@Vstring@acl@@@std@@V?$allocator@U?$pair@$$CBVstring@acl@@PEAVbeanstalk@2@@std@@@5@@std@@QEAA@XZ 00000001800538d0 f i beanstalk_pool.obj
 0001:00052910       ??1?$pair@$$CBVstring@acl@@PEAVbeanstalk@2@@std@@QEAA@XZ 0000000180053910 f i beanstalk_pool.obj
 0001:00052950       ??1?$pair@V?$_Tree_iterator@V?$_Tree_val@U?$_Tree_simple_types@U?$pair@$$CBVstring@acl@@PEAVbeanstalk@2@@std@@@std@@@std@@@std@@V12@@std@@QEAA@XZ 0000000180053950 f i beanstalk_pool.obj
 0001:000529b0       ??1?$pair@V?$_Tree_iterator@V?$_Tree_val@U?$_Tree_simple_types@U?$pair@$$CBVstring@acl@@PEAVbeanstalk@2@@std@@@std@@@std@@@std@@_N@std@@QEAA@XZ 00000001800539b0 f i beanstalk_pool.obj
 0001:000529f0       ??8?$_Tree_const_iterator@V?$_Tree_val@U?$_Tree_simple_types@U?$pair@$$CBVstring@acl@@PEAVbeanstalk@2@@std@@@std@@@std@@@std@@QEBA_NAEBV01@@Z 00000001800539f0 f i beanstalk_pool.obj
 0001:00052b60       ??9?$_Tree_const_iterator@V?$_Tree_val@U?$_Tree_simple_types@U?$pair@$$CBVstring@acl@@PEAVbeanstalk@2@@std@@@std@@@std@@@std@@QEBA_NAEBV01@@Z 0000000180053b60 f i beanstalk_pool.obj
 0001:00052bd0       ??C?$_Tree_iterator@V?$_Tree_val@U?$_Tree_simple_types@U?$pair@$$CBVstring@acl@@PEAVbeanstalk@2@@std@@@std@@@std@@@std@@QEBAPEAU?$pair@$$CBVstring@acl@@PEAVbeanstalk@2@@1@XZ 0000000180053bd0 f i beanstalk_pool.obj
 0001:00052c20       ??D?$_Tree_const_iterator@V?$_Tree_val@U?$_Tree_simple_types@U?$pair@$$CBVstring@acl@@PEAVbeanstalk@2@@std@@@std@@@std@@@std@@QEBAAEBU?$pair@$$CBVstring@acl@@PEAVbeanstalk@2@@1@XZ 0000000180053c20 f i beanstalk_pool.obj
 0001:00052d60       ??D?$_Tree_iterator@V?$_Tree_val@U?$_Tree_simple_types@U?$pair@$$CBVstring@acl@@PEAVbeanstalk@2@@std@@@std@@@std@@@std@@QEBAAEAU?$pair@$$CBVstring@acl@@PEAVbeanstalk@2@@1@XZ 0000000180053d60 f i beanstalk_pool.obj
 0001:00052da0       ??E?$_Tree_const_iterator@V?$_Tree_val@U?$_Tree_simple_types@U?$pair@$$CBVstring@acl@@PEAVbeanstalk@2@@std@@@std@@@std@@@std@@QEAA?AV01@H@Z 0000000180053da0 f i beanstalk_pool.obj
 0001:00052e60       ??E?$_Tree_const_iterator@V?$_Tree_val@U?$_Tree_simple_types@U?$pair@$$CBVstring@acl@@PEAVbeanstalk@2@@std@@@std@@@std@@@std@@QEAAAEAV01@XZ 0000000180053e60 f i beanstalk_pool.obj
 0001:00052fa0       ??E?$_Tree_iterator@V?$_Tree_val@U?$_Tree_simple_types@U?$pair@$$CBVstring@acl@@PEAVbeanstalk@2@@std@@@std@@@std@@@std@@QEAAAEAV01@XZ 0000000180053fa0 f i beanstalk_pool.obj
 0001:00052fe0       ??E?$_Tree_unchecked_const_iterator@V?$_Tree_val@U?$_Tree_simple_types@U?$pair@$$CBVstring@acl@@PEAVbeanstalk@2@@std@@@std@@@std@@U_Iterator_base12@2@@std@@QEAAAEAV01@XZ 0000000180053fe0 f i beanstalk_pool.obj
 0001:00053100       ??F?$_Tree_const_iterator@V?$_Tree_val@U?$_Tree_simple_types@U?$pair@$$CBVstring@acl@@PEAVbeanstalk@2@@std@@@std@@@std@@@std@@QEAAAEAV01@XZ 0000000180054100 f i beanstalk_pool.obj
 0001:00053300       ??F?$_Tree_iterator@V?$_Tree_val@U?$_Tree_simple_types@U?$pair@$$CBVstring@acl@@PEAVbeanstalk@2@@std@@@std@@@std@@@std@@QEAAAEAV01@XZ 0000000180054300 f i beanstalk_pool.obj
 0001:00053340       ??F?$_Tree_unchecked_const_iterator@V?$_Tree_val@U?$_Tree_simple_types@U?$pair@$$CBVstring@acl@@PEAVbeanstalk@2@@std@@@std@@@std@@U_Iterator_base12@2@@std@@QEAAAEAV01@XZ 0000000180054340 f i beanstalk_pool.obj
 0001:000534a0       ??R?$less@Vstring@acl@@@std@@QEBA_NAEBVstring@acl@@0@Z 00000001800544a0 f i beanstalk_pool.obj
 0001:000534f0       ??_G?$pair@$$CBVstring@acl@@PEAVbeanstalk@2@@std@@QEAAPEAXI@Z 00000001800544f0 f i beanstalk_pool.obj
 0001:00053550       ??_Gbeanstalk@acl@@QEAAPEAXI@Z 0000000180054550 f i beanstalk_pool.obj
 0001:000535b0       ?_Alloc_proxy@?$_Tree_alloc@$0A@U?$_Tree_base_types@U?$pair@$$CBVstring@acl@@PEAVbeanstalk@2@@std@@V?$allocator@U?$pair@$$CBVstring@acl@@PEAVbeanstalk@2@@std@@@2@@std@@@std@@QEAAXXZ 00000001800545b0 f i beanstalk_pool.obj
 0001:00053670       ?_Buyheadnode@?$_Tree_alloc@$0A@U?$_Tree_base_types@U?$pair@$$CBVstring@acl@@PEAVbeanstalk@2@@std@@V?$allocator@U?$pair@$$CBVstring@acl@@PEAVbeanstalk@2@@std@@@2@@std@@@std@@QEAAPEAU?$_Tree_node@U?$pair@$$CBVstring@acl@@PEAVbeanstalk@2@@std@@PEAX@2@XZ 0000000180054670 f i beanstalk_pool.obj
 0001:00053820       ?_Buynode0@?$_Tree_buy@U?$pair@$$CBVstring@acl@@PEAVbeanstalk@2@@std@@V?$allocator@U?$pair@$$CBVstring@acl@@PEAVbeanstalk@2@@std@@@2@@std@@QEAAPEAU?$_Tree_node@U?$pair@$$CBVstring@acl@@PEAVbeanstalk@2@@std@@PEAX@2@XZ 0000000180054820 f i beanstalk_pool.obj
 0001:000539e0       ?_Color@?$_Tree_val@U?$_Tree_simple_types@U?$pair@$$CBVstring@acl@@PEAVbeanstalk@2@@std@@@std@@@std@@SAAEADPEAU?$_Tree_node@U?$pair@$$CBVstring@acl@@PEAVbeanstalk@2@@std@@PEAX@2@@Z 00000001800549e0 f i beanstalk_pool.obj
 0001:00053a00       ?_Destroy_if_not_nil@?$_Tree@V?$_Tmap_traits@Vstring@acl@@PEAVbeanstalk@2@U?$less@Vstring@acl@@@std@@V?$allocator@U?$pair@$$CBVstring@acl@@PEAVbeanstalk@2@@std@@@5@$00@std@@@std@@IEAAXPEAU?$_Tree_node@U?$pair@$$CBVstring@acl@@PEAVbeanstalk@2@@std@@PEAX@2@@Z 0000000180054a00 f i beanstalk_pool.obj
 0001:00053ab0       ?_Eqrange@?$_Tree@V?$_Tmap_traits@Vstring@acl@@PEAVbeanstalk@2@U?$less@Vstring@acl@@@std@@V?$allocator@U?$pair@$$CBVstring@acl@@PEAVbeanstalk@2@@std@@@5@$00@std@@@std@@IEAA?AU?$pair@V?$_Tree_iterator@V?$_Tree_val@U?$_Tree_simple_types@U?$pair@$$CBVstring@acl@@PEAVbeanstalk@2@@std@@@std@@@std@@@std@@V12@@2@AEBVstring@acl@@@Z 0000000180054ab0 f i beanstalk_pool.obj
 0001:00053ec0       ?_Erase@?$_Tree@V?$_Tmap_traits@Vstring@acl@@PEAVbeanstalk@2@U?$less@Vstring@acl@@@std@@V?$allocator@U?$pair@$$CBVstring@acl@@PEAVbeanstalk@2@@std@@@5@$00@std@@@std@@IEAAXPEAU?$_Tree_node@U?$pair@$$CBVstring@acl@@PEAVbeanstalk@2@@std@@PEAX@2@@Z 0000000180054ec0 f i beanstalk_pool.obj
 0001:00053fd0       ?_Free_proxy@?$_Tree_alloc@$0A@U?$_Tree_base_types@U?$pair@$$CBVstring@acl@@PEAVbeanstalk@2@@std@@V?$allocator@U?$pair@$$CBVstring@acl@@PEAVbeanstalk@2@@std@@@2@@std@@@std@@QEAAXXZ 0000000180054fd0 f i beanstalk_pool.obj
 0001:00054090       ?_Freeheadnode@?$_Tree_alloc@$0A@U?$_Tree_base_types@U?$pair@$$CBVstring@acl@@PEAVbeanstalk@2@@std@@V?$allocator@U?$pair@$$CBVstring@acl@@PEAVbeanstalk@2@@std@@@2@@std@@@std@@QEAAXPEAU?$_Tree_node@U?$pair@$$CBVstring@acl@@PEAVbeanstalk@2@@std@@PEAX@2@@Z 0000000180055090 f i beanstalk_pool.obj
 0001:000541c0       ?_Freenode0@?$_Tree_buy@U?$pair@$$CBVstring@acl@@PEAVbeanstalk@2@@std@@V?$allocator@U?$pair@$$CBVstring@acl@@PEAVbeanstalk@2@@std@@@2@@std@@QEAAXPEAU?$_Tree_node@U?$pair@$$CBVstring@acl@@PEAVbeanstalk@2@@std@@PEAX@2@@Z 00000001800551c0 f i beanstalk_pool.obj
 0001:000542f0       ?_Getal@?$_Tree_alloc@$0A@U?$_Tree_base_types@U?$pair@$$CBVstring@acl@@PEAVbeanstalk@2@@std@@V?$allocator@U?$pair@$$CBVstring@acl@@PEAVbeanstalk@2@@std@@@2@@std@@@std@@QEBA?AU?$_Wrap_alloc@V?$allocator@U?$_Tree_node@U?$pair@$$CBVstring@acl@@PEAVbeanstalk@2@@std@@PEAX@std@@@std@@@2@XZ 00000001800552f0 f i beanstalk_pool.obj
 0001:00054340       ?_Getcomp@?$_Tree_comp@$0A@V?$_Tmap_traits@Vstring@acl@@PEAVbeanstalk@2@U?$less@Vstring@acl@@@std@@V?$allocator@U?$pair@$$CBVstring@acl@@PEAVbeanstalk@2@@std@@@5@$00@std@@@std@@QEBA?AU?$less@Vstring@acl@@@2@XZ 0000000180055340 f i beanstalk_pool.obj
 0001:00054380       ?_Isnil@?$_Tree_val@U?$_Tree_simple_types@U?$pair@$$CBVstring@acl@@PEAVbeanstalk@2@@std@@@std@@@std@@SAAEADPEAU?$_Tree_node@U?$pair@$$CBVstring@acl@@PEAVbeanstalk@2@@std@@PEAX@2@@Z 0000000180055380 f i beanstalk_pool.obj
 0001:000543a0       ?_Key@?$_Tree@V?$_Tmap_traits@Vstring@acl@@PEAVbeanstalk@2@U?$less@Vstring@acl@@@std@@V?$allocator@U?$pair@$$CBVstring@acl@@PEAVbeanstalk@2@@std@@@5@$00@std@@@std@@IEBAAEBVstring@acl@@PEAU?$_Tree_node@U?$pair@$$CBVstring@acl@@PEAVbeanstalk@2@@std@@PEAX@2@@Z 00000001800553a0 f i beanstalk_pool.obj
 0001:000543f0       ?_Kfn@?$_Tree@V?$_Tmap_traits@Vstring@acl@@PEAVbeanstalk@2@U?$less@Vstring@acl@@@std@@V?$allocator@U?$pair@$$CBVstring@acl@@PEAVbeanstalk@2@@std@@@5@$00@std@@@std@@IEBAAEBVstring@acl@@AEBU?$pair@$$CBVstring@acl@@PEAVbeanstalk@2@@2@@Z 00000001800553f0 f i beanstalk_pool.obj
 0001:00054430       ?_Left@?$_Tree_val@U?$_Tree_simple_types@U?$pair@$$CBVstring@acl@@PEAVbeanstalk@2@@std@@@std@@@std@@SAAEAPEAU?$_Tree_node@U?$pair@$$CBVstring@acl@@PEAVbeanstalk@2@@std@@PEAX@2@PEAU32@@Z 0000000180055430 f i beanstalk_pool.obj
 0001:00054440       ?_Lmost@?$_Tree@V?$_Tmap_traits@Vstring@acl@@PEAVbeanstalk@2@U?$less@Vstring@acl@@@std@@V?$allocator@U?$pair@$$CBVstring@acl@@PEAVbeanstalk@2@@std@@@5@$00@std@@@std@@IEBAAEAPEAU?$_Tree_node@U?$pair@$$CBVstring@acl@@PEAVbeanstalk@2@@std@@PEAX@2@XZ 0000000180055440 f i beanstalk_pool.obj
 0001:00054480       ?_Lrotate@?$_Tree@V?$_Tmap_traits@Vstring@acl@@PEAVbeanstalk@2@U?$less@Vstring@acl@@@std@@V?$allocator@U?$pair@$$CBVstring@acl@@PEAVbeanstalk@2@@std@@@5@$00@std@@@std@@IEAAXPEAU?$_Tree_node@U?$pair@$$CBVstring@acl@@PEAVbeanstalk@2@@std@@PEAX@2@@Z 0000000180055480 f i beanstalk_pool.obj
 0001:00054630       ?_Max@?$_Tree_val@U?$_Tree_simple_types@U?$pair@$$CBVstring@acl@@PEAVbeanstalk@2@@std@@@std@@@std@@SAPEAU?$_Tree_node@U?$pair@$$CBVstring@acl@@PEAVbeanstalk@2@@std@@PEAX@2@PEAU32@@Z 0000000180055630 f i beanstalk_pool.obj
 0001:000546a0       ?_Min@?$_Tree_val@U?$_Tree_simple_types@U?$pair@$$CBVstring@acl@@PEAVbeanstalk@2@@std@@@std@@@std@@SAPEAU?$_Tree_node@U?$pair@$$CBVstring@acl@@PEAVbeanstalk@2@@std@@PEAX@2@PEAU32@@Z 00000001800556a0 f i beanstalk_pool.obj
 0001:00054710       ?_Mynode@?$_Tree_unchecked_const_iterator@V?$_Tree_val@U?$_Tree_simple_types@U?$pair@$$CBVstring@acl@@PEAVbeanstalk@2@@std@@@std@@@std@@U_Iterator_base12@2@@std@@QEBAPEAU?$_Tree_node@U?$pair@$$CBVstring@acl@@PEAVbeanstalk@2@@std@@PEAX@2@XZ 0000000180055710 f i beanstalk_pool.obj
 0001:00054730       ?_Myval@?$_Tree_val@U?$_Tree_simple_types@U?$pair@$$CBVstring@acl@@PEAVbeanstalk@2@@std@@@std@@@std@@SAAEAU?$pair@$$CBVstring@acl@@PEAVbeanstalk@2@@2@PEAU?$_Tree_node@U?$pair@$$CBVstring@acl@@PEAVbeanstalk@2@@std@@PEAX@2@@Z 0000000180055730 f i beanstalk_pool.obj
 0001:00054750       ?_Orphan_ptr@?$_Tree@V?$_Tmap_traits@Vstring@acl@@PEAVbeanstalk@2@U?$less@Vstring@acl@@@std@@V?$allocator@U?$pair@$$CBVstring@acl@@PEAVbeanstalk@2@@std@@@5@$00@std@@@std@@IEBAXAEAV12@PEAU?$_Tree_node@U?$pair@$$CBVstring@acl@@PEAVbeanstalk@2@@std@@PEAX@2@@Z 0000000180055750 f i beanstalk_pool.obj
 0001:00054880       ?_Parent@?$_Tree_val@U?$_Tree_simple_types@U?$pair@$$CBVstring@acl@@PEAVbeanstalk@2@@std@@@std@@@std@@SAAEAPEAU?$_Tree_node@U?$pair@$$CBVstring@acl@@PEAVbeanstalk@2@@std@@PEAX@2@PEAU32@@Z 0000000180055880 f i beanstalk_pool.obj
 0001:000548a0       ?_Right@?$_Tree_val@U?$_Tree_simple_types@U?$pair@$$CBVstring@acl@@PEAVbeanstalk@2@@std@@@std@@@std@@SAAEAPEAU?$_Tree_node@U?$pair@$$CBVstring@acl@@PEAVbeanstalk@2@@std@@PEAX@2@PEAU32@@Z 00000001800558a0 f i beanstalk_pool.obj
 0001:000548c0       ?_Rmost@?$_Tree@V?$_Tmap_traits@Vstring@acl@@PEAVbeanstalk@2@U?$less@Vstring@acl@@@std@@V?$allocator@U?$pair@$$CBVstring@acl@@PEAVbeanstalk@2@@std@@@5@$00@std@@@std@@IEBAAEAPEAU?$_Tree_node@U?$pair@$$CBVstring@acl@@PEAVbeanstalk@2@@std@@PEAX@2@XZ 00000001800558c0 f i beanstalk_pool.obj
 0001:00054900       ?_Root@?$_Tree@V?$_Tmap_traits@Vstring@acl@@PEAVbeanstalk@2@U?$less@Vstring@acl@@@std@@V?$allocator@U?$pair@$$CBVstring@acl@@PEAVbeanstalk@2@@std@@@5@$00@std@@@std@@IEBAAEAPEAU?$_Tree_node@U?$pair@$$CBVstring@acl@@PEAVbeanstalk@2@@std@@PEAX@2@XZ 0000000180055900 f i beanstalk_pool.obj
 0001:00054940       ?_Rrotate@?$_Tree@V?$_Tmap_traits@Vstring@acl@@PEAVbeanstalk@2@U?$less@Vstring@acl@@@std@@V?$allocator@U?$pair@$$CBVstring@acl@@PEAVbeanstalk@2@@std@@@5@$00@std@@@std@@IEAAXPEAU?$_Tree_node@U?$pair@$$CBVstring@acl@@PEAVbeanstalk@2@@std@@PEAX@2@@Z 0000000180055940 f i beanstalk_pool.obj
 0001:00054af0       ?_Tidy@?$_Tree@V?$_Tmap_traits@Vstring@acl@@PEAVbeanstalk@2@U?$less@Vstring@acl@@@std@@V?$allocator@U?$pair@$$CBVstring@acl@@PEAVbeanstalk@2@@std@@@5@$00@std@@@std@@IEAAXXZ 0000000180055af0 f i beanstalk_pool.obj
 0001:00054c70       ?allocate@?$_Wrap_alloc@V?$allocator@U?$_Tree_node@U?$pair@$$CBVstring@acl@@PEAVbeanstalk@2@@std@@PEAX@std@@@std@@@std@@QEAAPEAU?$_Tree_node@U?$pair@$$CBVstring@acl@@PEAVbeanstalk@2@@std@@PEAX@2@_K@Z 0000000180055c70 f i beanstalk_pool.obj
 0001:00054cc0       ?allocate@?$allocator@U?$_Tree_node@U?$pair@$$CBVstring@acl@@PEAVbeanstalk@2@@std@@PEAX@std@@@std@@QEAAPEAU?$_Tree_node@U?$pair@$$CBVstring@acl@@PEAVbeanstalk@2@@std@@PEAX@2@_K@Z 0000000180055cc0 f i beanstalk_pool.obj
 0001:00054d10       ?begin@?$_Tree@V?$_Tmap_traits@Vstring@acl@@PEAVbeanstalk@2@U?$less@Vstring@acl@@@std@@V?$allocator@U?$pair@$$CBVstring@acl@@PEAVbeanstalk@2@@std@@@5@$00@std@@@std@@QEAA?AV?$_Tree_iterator@V?$_Tree_val@U?$_Tree_simple_types@U?$pair@$$CBVstring@acl@@PEAVbeanstalk@2@@std@@@std@@@std@@@2@XZ 0000000180055d10 f i beanstalk_pool.obj
 0001:00054d70       ?clear@?$_Tree@V?$_Tmap_traits@Vstring@acl@@PEAVbeanstalk@2@U?$less@Vstring@acl@@@std@@V?$allocator@U?$pair@$$CBVstring@acl@@PEAVbeanstalk@2@@std@@@5@$00@std@@@std@@QEAAXXZ 0000000180055d70 f i beanstalk_pool.obj
 0001:00054e40       ?deallocate@?$_Wrap_alloc@V?$allocator@U?$_Tree_node@U?$pair@$$CBVstring@acl@@PEAVbeanstalk@2@@std@@PEAX@std@@@std@@@std@@QEAAXPEAU?$_Tree_node@U?$pair@$$CBVstring@acl@@PEAVbeanstalk@2@@std@@PEAX@2@_K@Z 0000000180055e40 f i beanstalk_pool.obj
 0001:00054ea0       ?deallocate@?$allocator@U?$_Tree_node@U?$pair@$$CBVstring@acl@@PEAVbeanstalk@2@@std@@PEAX@std@@@std@@QEAAXPEAU?$_Tree_node@U?$pair@$$CBVstring@acl@@PEAVbeanstalk@2@@std@@PEAX@2@_K@Z 0000000180055ea0 f i beanstalk_pool.obj
 0001:00054ef0       ?end@?$_Tree@V?$_Tmap_traits@Vstring@acl@@PEAVbeanstalk@2@U?$less@Vstring@acl@@@std@@V?$allocator@U?$pair@$$CBVstring@acl@@PEAVbeanstalk@2@@std@@@5@$00@std@@@std@@QEAA?AV?$_Tree_iterator@V?$_Tree_val@U?$_Tree_simple_types@U?$pair@$$CBVstring@acl@@PEAVbeanstalk@2@@std@@@std@@@std@@@2@XZ 0000000180055ef0 f i beanstalk_pool.obj
 0001:00054f50       ?equal_range@?$_Tree@V?$_Tmap_traits@Vstring@acl@@PEAVbeanstalk@2@U?$less@Vstring@acl@@@std@@V?$allocator@U?$pair@$$CBVstring@acl@@PEAVbeanstalk@2@@std@@@5@$00@std@@@std@@QEAA?AU?$pair@V?$_Tree_iterator@V?$_Tree_val@U?$_Tree_simple_types@U?$pair@$$CBVstring@acl@@PEAVbeanstalk@2@@std@@@std@@@std@@@std@@V12@@2@AEBVstring@acl@@@Z 0000000180055f50 f i beanstalk_pool.obj
 0001:00054fc0       ?erase@?$_Tree@V?$_Tmap_traits@Vstring@acl@@PEAVbeanstalk@2@U?$less@Vstring@acl@@@std@@V?$allocator@U?$pair@$$CBVstring@acl@@PEAVbeanstalk@2@@std@@@5@$00@std@@@std@@QEAA?AV?$_Tree_iterator@V?$_Tree_val@U?$_Tree_simple_types@U?$pair@$$CBVstring@acl@@PEAVbeanstalk@2@@std@@@std@@@std@@@2@V?$_Tree_const_iterator@V?$_Tree_val@U?$_Tree_simple_types@U?$pair@$$CBVstring@acl@@PEAVbeanstalk@2@@std@@@std@@@std@@@2@0@Z 0000000180055fc0 f i beanstalk_pool.obj
 0001:00055320       ?erase@?$_Tree@V?$_Tmap_traits@Vstring@acl@@PEAVbeanstalk@2@U?$less@Vstring@acl@@@std@@V?$allocator@U?$pair@$$CBVstring@acl@@PEAVbeanstalk@2@@std@@@5@$00@std@@@std@@QEAA?AV?$_Tree_iterator@V?$_Tree_val@U?$_Tree_simple_types@U?$pair@$$CBVstring@acl@@PEAVbeanstalk@2@@std@@@std@@@std@@@2@V?$_Tree_const_iterator@V?$_Tree_val@U?$_Tree_simple_types@U?$pair@$$CBVstring@acl@@PEAVbeanstalk@2@@std@@@std@@@std@@@2@@Z 0000000180056320 f i beanstalk_pool.obj
 0001:00055e40       ?max_size@?$_Tree@V?$_Tmap_traits@Vstring@acl@@PEAVbeanstalk@2@U?$less@Vstring@acl@@@std@@V?$allocator@U?$pair@$$CBVstring@acl@@PEAVbeanstalk@2@@std@@@5@$00@std@@@std@@QEBA_KXZ 0000000180056e40 f i beanstalk_pool.obj
 0001:00055e90       ?max_size@?$_Wrap_alloc@V?$allocator@U?$_Tree_node@U?$pair@$$CBVstring@acl@@PEAVbeanstalk@2@@std@@PEAX@std@@@std@@@std@@QEBA_KXZ 0000000180056e90 f i beanstalk_pool.obj
 0001:00055ed0       ?max_size@?$allocator@U?$_Tree_node@U?$pair@$$CBVstring@acl@@PEAVbeanstalk@2@@std@@PEAX@std@@@std@@QEBA_KXZ 0000000180056ed0 f i beanstalk_pool.obj
 0001:00055ef0       ?max_size@?$allocator_traits@V?$allocator@U?$_Tree_node@U?$pair@$$CBVstring@acl@@PEAVbeanstalk@2@@std@@PEAX@std@@@std@@@std@@SA_KAEBV?$allocator@U?$_Tree_node@U?$pair@$$CBVstring@acl@@PEAVbeanstalk@2@@std@@PEAX@std@@@2@@Z 0000000180056ef0 f i beanstalk_pool.obj
 0001:00055f30       ?pointer_to@?$pointer_traits@PEAU?$pair@$$CBVstring@acl@@PEAVbeanstalk@2@@std@@@std@@SAPEAU?$pair@$$CBVstring@acl@@PEAVbeanstalk@2@@2@AEAU32@@Z 0000000180056f30 f i beanstalk_pool.obj
 0001:00055f70       ??0check_client@acl@@QEAA@AEAVcheck_timer@1@PEBDAEAVaio_socket_stream@1@AEAUtimeval@@@Z 0000000180056f70 f   check_client.obj
 0001:00056040       ?set_alive@check_client@acl@@QEAAX_N@Z 0000000180057040 f   check_client.obj
 0001:00056060       ?close@check_client@acl@@QEAAXXZ 0000000180057060 f   check_client.obj
 0001:000560c0       ?set_blocked@check_client@acl@@QEAAX_N@Z 00000001800570c0 f   check_client.obj
 0001:000560e0       ?open_callback@check_client@acl@@EEAA_NXZ 00000001800570e0 f   check_client.obj
 0001:000561a0       ?close_callback@check_client@acl@@EEAAXXZ 00000001800571a0 f   check_client.obj
 0001:00056430       ?timeout_callback@check_client@acl@@EEAA_NXZ 0000000180057430 f   check_client.obj
 0001:00056580       ?get_monitor@check_timer@acl@@QEBAAEAVconnect_monitor@2@XZ 0000000180057580 f i check_client.obj
 0001:000565a0       ??0check_rpc@acl@@QEAA@AEAVconnect_monitor@1@AEAVcheck_client@1@@Z 00000001800575a0 f   check_rpc.obj
 0001:00056610       ?rpc_run@check_rpc@acl@@MEAAXXZ 0000000180057610 f   check_rpc.obj
 0001:00056780       ?rpc_onover@check_rpc@acl@@MEAAXXZ 0000000180057780 f   check_rpc.obj
 0001:00056810       ??1check_rpc@acl@@EEAA@XZ  0000000180057810 f   check_rpc.obj
 0001:00056900       ??_Gcheck_rpc@acl@@EEAAPEAXI@Z 0000000180057900 f i check_rpc.obj
 0001:00056900       ??_Echeck_rpc@acl@@EEAAPEAXI@Z 0000000180057900 f i check_rpc.obj
 0001:00056960       ??0check_timer@acl@@QEAA@AEAVconnect_monitor@1@AEAVaio_handle@1@H@Z 0000000180057960 f   check_timer.obj
 0001:00056a30       ?remove_client@check_timer@acl@@QEAAXPEBDPEAVcheck_client@2@@Z 0000000180057a30 f   check_timer.obj
 0001:00056ce0       ?finish@check_timer@acl@@QEAA_N_N@Z 0000000180057ce0 f   check_timer.obj
 0001:00056e70       ?timer_callback@check_timer@acl@@MEAAXI@Z 0000000180057e70 f   check_timer.obj
 0001:00057760       ??$?0$$QEAVstring@acl@@$$$V@?$pair@$$CBVstring@acl@@H@std@@QEAA@Upiecewise_construct_t@1@V?$tuple@$$QEAVstring@acl@@@1@V?$tuple@$$$V@1@@Z 0000000180058760 f i check_timer.obj
 0001:00057800       ??$?0$$QEAVstring@acl@@PEAPEAX@?$tuple@$$QEAVstring@acl@@@std@@QEAA@$$QEAV01@@Z 0000000180058800 f i check_timer.obj
 0001:00057880       ??$?0AEAV?$_Tree_iterator@V?$_Tree_val@U?$_Tree_simple_types@U?$pair@$$CBVstring@acl@@H@std@@@std@@@std@@@std@@_NX@?$pair@V?$_Tree_iterator@V?$_Tree_val@U?$_Tree_simple_types@U?$pair@$$CBVstring@acl@@H@std@@@std@@@std@@@std@@_N@std@@QEAA@AEAV?$_Tree_iterator@V?$_Tree_val@U?$_Tree_simple_types@U?$pair@$$CBVstring@acl@@H@std@@@std@@@std@@@1@$$QEA_N@Z 0000000180058880 f i check_timer.obj
 0001:00057910       ??$?0U?$_Tree_node@U?$pair@$$CBVstring@acl@@H@std@@PEAX@std@@@?$allocator@U_Container_proxy@std@@@std@@QEAA@AEBV?$allocator@U?$_Tree_node@U?$pair@$$CBVstring@acl@@H@std@@PEAX@std@@@1@@Z 0000000180058910 f i check_timer.obj
 0001:00057930       ??$?0U?$_Wrap_alloc@V?$allocator@U?$_Tree_node@U?$pair@$$CBVstring@acl@@H@std@@PEAX@std@@@std@@@std@@@?$_Wrap_alloc@V?$allocator@U_Container_proxy@std@@@std@@@std@@QEAA@AEBU?$_Wrap_alloc@V?$allocator@U?$_Tree_node@U?$pair@$$CBVstring@acl@@H@std@@PEAX@std@@@std@@@1@@Z 0000000180058930 f i check_timer.obj
 0001:00057980       ??$?0V?$_Tree_iterator@V?$_Tree_val@U?$_Tree_simple_types@U?$pair@$$CBVstring@acl@@H@std@@@std@@@std@@@std@@_NX@?$pair@V?$_Tree_iterator@V?$_Tree_val@U?$_Tree_simple_types@U?$pair@$$CBVstring@acl@@H@std@@@std@@@std@@@std@@_N@std@@QEAA@$$QEAV?$_Tree_iterator@V?$_Tree_val@U?$_Tree_simple_types@U?$pair@$$CBVstring@acl@@H@std@@@std@@@std@@@1@$$QEA_N@Z 0000000180058980 f i check_timer.obj
 0001:00057a10       ??$?0V?$tuple@$$QEAVstring@acl@@@std@@V?$tuple@$$$V@1@$0A@$S@?$pair@$$CBVstring@acl@@H@std@@QEAA@AEAV?$tuple@$$QEAVstring@acl@@@1@AEAV?$tuple@$$$V@1@U?$_Arg_idx@$0A@@1@U?$_Arg_idx@$S@1@@Z 0000000180058a10 f i check_timer.obj
 0001:00057a90       ??$?0Vstring@acl@@$$$VPEAPEAX@?$tuple@$$QEAVstring@acl@@@std@@QEAA@$$QEAVstring@acl@@@Z 0000000180058a90 f i check_timer.obj
 0001:00057b00       ??$?0Vstring@acl@@@?$_Tuple_val@$$QEAVstring@acl@@@std@@QEAA@$$QEAVstring@acl@@@Z 0000000180058b00 f i check_timer.obj
 0001:00057b50       ??$_Allocate@PEAVcheck_client@acl@@@std@@YAPEAPEAVcheck_client@acl@@_KPEAPEAV12@@Z 0000000180058b50 f i check_timer.obj
 0001:00057bf0       ??$_Allocate@U?$_Tree_node@U?$pair@$$CBVstring@acl@@H@std@@PEAX@std@@@std@@YAPEAU?$_Tree_node@U?$pair@$$CBVstring@acl@@H@std@@PEAX@0@_KPEAU10@@Z 0000000180058bf0 f i check_timer.obj
 0001:00057c80       ??$_Buynode@AEBUpiecewise_construct_t@std@@V?$tuple@$$QEAVstring@acl@@@2@V?$tuple@$$$V@2@@?$_Tree_buy@U?$pair@$$CBVstring@acl@@H@std@@V?$allocator@U?$pair@$$CBVstring@acl@@H@std@@@2@@std@@QEAAPEAU?$_Tree_node@U?$pair@$$CBVstring@acl@@H@std@@PEAX@1@AEBUpiecewise_construct_t@1@$$QEAV?$tuple@$$QEAVstring@acl@@@1@$$QEAV?$tuple@$$$V@1@@Z 0000000180058c80 f i check_timer.obj
 0001:00057dc0       ??$_Buynode_if_nil@AEAU?$pair@$$CBVstring@acl@@H@std@@@?$_Tree@V?$_Tmap_traits@Vstring@acl@@HU?$less@Vstring@acl@@@std@@V?$allocator@U?$pair@$$CBVstring@acl@@H@std@@@4@$0A@@std@@@std@@IEAAPEAU?$_Tree_node@U?$pair@$$CBVstring@acl@@H@std@@PEAX@1@PEAU21@AEAU?$pair@$$CBVstring@acl@@H@1@@Z 0000000180058dc0 f i check_timer.obj
 0001:00057de0       ??$_Debug_pointer@PEAVcheck_client@acl@@@std@@YAXPEAPEAVcheck_client@acl@@PEB_WI@Z 0000000180058de0 f i check_timer.obj
 0001:00057e40       ??$_Debug_range2@PEAPEAVcheck_client@acl@@@std@@YAXPEAPEAVcheck_client@acl@@0PEB_WIUrandom_access_iterator_tag@0@@Z 0000000180058e40 f i check_timer.obj
 0001:00057ef0       ??$_Debug_range@PEAPEAVcheck_client@acl@@@std@@YAXPEAPEAVcheck_client@acl@@0PEB_WI@Z 0000000180058ef0 f i check_timer.obj
 0001:00057f70       ??$_Destroy_range@U?$_Wrap_alloc@V?$allocator@PEAVcheck_client@acl@@@std@@@std@@@std@@YAXPEAPEAVcheck_client@acl@@0AEAU?$_Wrap_alloc@V?$allocator@PEAVcheck_client@acl@@@std@@@0@@Z 0000000180058f70 f i check_timer.obj
 0001:00057ff0       ??$_Destroy_range@U?$_Wrap_alloc@V?$allocator@PEAVcheck_client@acl@@@std@@@std@@@std@@YAXPEAPEAVcheck_client@acl@@0AEAU?$_Wrap_alloc@V?$allocator@PEAVcheck_client@acl@@@std@@@0@U_Scalar_ptr_iterator_tag@0@@Z 0000000180058ff0 f i check_timer.obj
 0001:00058010       ??$_Insert_at@AEAU?$pair@$$CBVstring@acl@@H@std@@PEAU?$_Tree_node@U?$pair@$$CBVstring@acl@@H@std@@PEAX@2@@?$_Tree@V?$_Tmap_traits@Vstring@acl@@HU?$less@Vstring@acl@@@std@@V?$allocator@U?$pair@$$CBVstring@acl@@H@std@@@4@$0A@@std@@@std@@IEAA?AV?$_Tree_iterator@V?$_Tree_val@U?$_Tree_simple_types@U?$pair@$$CBVstring@acl@@H@std@@@std@@@std@@@1@_NPEAU?$_Tree_node@U?$pair@$$CBVstring@acl@@H@std@@PEAX@1@AEAU?$pair@$$CBVstring@acl@@H@1@1@Z 0000000180059010 f i check_timer.obj
 0001:00058580       ??$_Insert_hint@AEAU?$pair@$$CBVstring@acl@@H@std@@PEAU?$_Tree_node@U?$pair@$$CBVstring@acl@@H@std@@PEAX@2@@?$_Tree@V?$_Tmap_traits@Vstring@acl@@HU?$less@Vstring@acl@@@std@@V?$allocator@U?$pair@$$CBVstring@acl@@H@std@@@4@$0A@@std@@@std@@IEAA?AV?$_Tree_iterator@V?$_Tree_val@U?$_Tree_simple_types@U?$pair@$$CBVstring@acl@@H@std@@@std@@@std@@@1@V?$_Tree_const_iterator@V?$_Tree_val@U?$_Tree_simple_types@U?$pair@$$CBVstring@acl@@H@std@@@std@@@std@@@1@AEAU?$pair@$$CBVstring@acl@@H@1@PEAU?$_Tree_node@U?$pair@$$CBVstring@acl@@H@std@@PEAX@1@@Z 0000000180059580 f i check_timer.obj
 0001:0005a270       ??$_Insert_nohint@AEAU?$pair@$$CBVstring@acl@@H@std@@PEAU?$_Tree_node@U?$pair@$$CBVstring@acl@@H@std@@PEAX@2@@?$_Tree@V?$_Tmap_traits@Vstring@acl@@HU?$less@Vstring@acl@@@std@@V?$allocator@U?$pair@$$CBVstring@acl@@H@std@@@4@$0A@@std@@@std@@IEAA?AU?$pair@V?$_Tree_iterator@V?$_Tree_val@U?$_Tree_simple_types@U?$pair@$$CBVstring@acl@@H@std@@@std@@@std@@@std@@_N@1@_NAEAU?$pair@$$CBVstring@acl@@H@1@PEAU?$_Tree_node@U?$pair@$$CBVstring@acl@@H@std@@PEAX@1@@Z 000000018005b270 f i check_timer.obj
 0001:0005aab0       ??$_Iter_cat@PEAPEAVcheck_client@acl@@@std@@YA?AUrandom_access_iterator_tag@0@AEBQEAPEAVcheck_client@acl@@@Z 000000018005bab0 f i check_timer.obj
 0001:0005ab20       ??$_Kfn@$$CBVstring@acl@@H@?$_Tmap_traits@Vstring@acl@@HU?$less@Vstring@acl@@@std@@V?$allocator@U?$pair@$$CBVstring@acl@@H@std@@@4@$0A@@std@@SAAEBVstring@acl@@AEBU?$pair@$$CBVstring@acl@@H@1@@Z 000000018005bb20 f i check_timer.obj
 0001:0005ab30       ??$_Move@PEAPEAVcheck_client@acl@@PEAPEAV12@@std@@YAPEAPEAVcheck_client@acl@@PEAPEAV12@00@Z 000000018005bb30 f i check_timer.obj
 0001:0005abb0       ??$_Move@PEAPEAVcheck_client@acl@@PEAPEAV12@@std@@YAPEAPEAVcheck_client@acl@@PEAPEAV12@00U_Scalar_ptr_iterator_tag@0@@Z 000000018005bbb0 f i check_timer.obj
 0001:0005ac50       ??$_Ptr_cat@PEAVcheck_client@acl@@PEAV12@@std@@YA?AU_Scalar_ptr_iterator_tag@0@PEAPEAVcheck_client@acl@@0@Z 000000018005bc50 f i check_timer.obj
 0001:0005acb0       ??$_Rechecked@PEAPEAVcheck_client@acl@@PEAPEAV12@@std@@YAAEAPEAPEAVcheck_client@acl@@AEAPEAPEAV12@PEAPEAV12@@Z 000000018005bcb0 f i check_timer.obj
 0001:0005ace0       ??$_Umove@PEAPEAVcheck_client@acl@@@?$vector@PEAVcheck_client@acl@@V?$allocator@PEAVcheck_client@acl@@@std@@@std@@IEAAPEAPEAVcheck_client@acl@@PEAPEAV23@00@Z 000000018005bce0 f i check_timer.obj
 0001:0005ad70       ??$_Unchecked@PEAPEAVcheck_client@acl@@@std@@YAPEAPEAVcheck_client@acl@@PEAPEAV12@@Z 000000018005bd70 f i check_timer.obj
 0001:0005ad80       ??$_Uninit_move@PEAPEAVcheck_client@acl@@PEAPEAV12@U?$_Wrap_alloc@V?$allocator@PEAVcheck_client@acl@@@std@@@std@@@std@@YAPEAPEAVcheck_client@acl@@PEAPEAV12@00AEAU?$_Wrap_alloc@V?$allocator@PEAVcheck_client@acl@@@std@@@0@@Z 000000018005bd80 f i check_timer.obj
 0001:0005ae20       ??$_Uninit_move@PEAVcheck_client@acl@@PEAV12@PEAV12@@std@@YAPEAPEAVcheck_client@acl@@PEAPEAV12@00AEAU?$_Wrap_alloc@V?$allocator@PEAVcheck_client@acl@@@std@@@0@0U_Scalar_ptr_iterator_tag@0@@Z 000000018005be20 f i check_timer.obj
 0001:0005aef0       ??$_Uninitialized_move@PEAPEAVcheck_client@acl@@PEAPEAV12@U?$_Wrap_alloc@V?$allocator@PEAVcheck_client@acl@@@std@@@std@@@std@@YAPEAPEAVcheck_client@acl@@PEAPEAV12@00AEAU?$_Wrap_alloc@V?$allocator@PEAVcheck_client@acl@@@std@@@0@@Z 000000018005bef0 f i check_timer.obj
 0001:0005afa0       ??$_Val_type@PEAPEAVcheck_client@acl@@@std@@YAPEAPEAVcheck_client@acl@@PEAPEAV12@@Z 000000018005bfa0 f i check_timer.obj
 0001:0005afb0       ??$addressof@PEAU?$_Tree_node@U?$pair@$$CBVstring@acl@@H@std@@PEAX@std@@@std@@YAPEAPEAU?$_Tree_node@U?$pair@$$CBVstring@acl@@H@std@@PEAX@0@AEAPEAU10@@Z 000000018005bfb0 f i check_timer.obj
 0001:0005afc0       ??$addressof@QEAVcheck_client@acl@@@std@@YAPEBQEAVcheck_client@acl@@AEBQEAV12@@Z 000000018005bfc0 f i check_timer.obj
 0001:0005afd0       ??$addressof@U?$pair@$$CBVstring@acl@@H@std@@@std@@YAPEAU?$pair@$$CBVstring@acl@@H@0@AEAU10@@Z 000000018005bfd0 f i check_timer.obj
 0001:0005afe0       ??$construct@PEAU?$_Tree_node@U?$pair@$$CBVstring@acl@@H@std@@PEAX@std@@AEAPEAU12@@?$_Wrap_alloc@V?$allocator@U?$_Tree_node@U?$pair@$$CBVstring@acl@@H@std@@PEAX@std@@@std@@@std@@QEAAXPEAPEAU?$_Tree_node@U?$pair@$$CBVstring@acl@@H@std@@PEAX@1@AEAPEAU21@@Z 000000018005bfe0 f i check_timer.obj
 0001:0005b040       ??$construct@PEAU?$_Tree_node@U?$pair@$$CBVstring@acl@@H@std@@PEAX@std@@AEAPEAU12@@?$allocator@U?$_Tree_node@U?$pair@$$CBVstring@acl@@H@std@@PEAX@std@@@std@@QEAAXPEAPEAU?$_Tree_node@U?$pair@$$CBVstring@acl@@H@std@@PEAX@1@AEAPEAU21@@Z 000000018005c040 f i check_timer.obj
 0001:0005b0f0       ??$construct@PEAU?$_Tree_node@U?$pair@$$CBVstring@acl@@H@std@@PEAX@std@@AEAPEAU12@@?$allocator_traits@V?$allocator@U?$_Tree_node@U?$pair@$$CBVstring@acl@@H@std@@PEAX@std@@@std@@@std@@SAXAEAV?$allocator@U?$_Tree_node@U?$pair@$$CBVstring@acl@@H@std@@PEAX@std@@@1@PEAPEAU?$_Tree_node@U?$pair@$$CBVstring@acl@@H@std@@PEAX@1@AEAPEAU31@@Z 000000018005c0f0 f i check_timer.obj
 0001:0005b150       ??$construct@PEAVcheck_client@acl@@AEAPEAV12@@?$_Wrap_alloc@V?$allocator@PEAVcheck_client@acl@@@std@@@std@@QEAAXPEAPEAVcheck_client@acl@@AEAPEAV23@@Z 000000018005c150 f i check_timer.obj
 0001:0005b1b0       ??$construct@PEAVcheck_client@acl@@AEAPEAV12@@?$allocator@PEAVcheck_client@acl@@@std@@QEAAXPEAPEAVcheck_client@acl@@AEAPEAV23@@Z 000000018005c1b0 f i check_timer.obj
 0001:0005b260       ??$construct@PEAVcheck_client@acl@@AEAPEAV12@@?$allocator_traits@V?$allocator@PEAVcheck_client@acl@@@std@@@std@@SAXAEAV?$allocator@PEAVcheck_client@acl@@@1@PEAPEAVcheck_client@acl@@AEAPEAV34@@Z 000000018005c260 f i check_timer.obj
 0001:0005b2c0       ??$construct@PEAVcheck_client@acl@@AEBQEAV12@@?$_Wrap_alloc@V?$allocator@PEAVcheck_client@acl@@@std@@@std@@QEAAXPEAPEAVcheck_client@acl@@AEBQEAV23@@Z 000000018005c2c0 f i check_timer.obj
 0001:0005b320       ??$construct@PEAVcheck_client@acl@@AEBQEAV12@@?$allocator_traits@V?$allocator@PEAVcheck_client@acl@@@std@@@std@@SAXAEAV?$allocator@PEAVcheck_client@acl@@@1@PEAPEAVcheck_client@acl@@AEBQEAV34@@Z 000000018005c320 f i check_timer.obj
 0001:0005b380       ??$construct@U?$pair@$$CBVstring@acl@@H@std@@AEBUpiecewise_construct_t@2@V?$tuple@$$QEAVstring@acl@@@2@V?$tuple@$$$V@2@@?$_Wrap_alloc@V?$allocator@U?$_Tree_node@U?$pair@$$CBVstring@acl@@H@std@@PEAX@std@@@std@@@std@@QEAAXPEAU?$pair@$$CBVstring@acl@@H@1@AEBUpiecewise_construct_t@1@$$QEAV?$tuple@$$QEAVstring@acl@@@1@$$QEAV?$tuple@$$$V@1@@Z 000000018005c380 f i check_timer.obj
 0001:0005b420       ??$construct@U?$pair@$$CBVstring@acl@@H@std@@AEBUpiecewise_construct_t@2@V?$tuple@$$QEAVstring@acl@@@2@V?$tuple@$$$V@2@@?$allocator@U?$_Tree_node@U?$pair@$$CBVstring@acl@@H@std@@PEAX@std@@@std@@QEAAXPEAU?$pair@$$CBVstring@acl@@H@1@AEBUpiecewise_construct_t@1@$$QEAV?$tuple@$$QEAVstring@acl@@@1@$$QEAV?$tuple@$$$V@1@@Z 000000018005c420 f i check_timer.obj
 0001:0005b560       ??$construct@U?$pair@$$CBVstring@acl@@H@std@@AEBUpiecewise_construct_t@2@V?$tuple@$$QEAVstring@acl@@@2@V?$tuple@$$$V@2@@?$allocator_traits@V?$allocator@U?$_Tree_node@U?$pair@$$CBVstring@acl@@H@std@@PEAX@std@@@std@@@std@@SAXAEAV?$allocator@U?$_Tree_node@U?$pair@$$CBVstring@acl@@H@std@@PEAX@std@@@1@PEAU?$pair@$$CBVstring@acl@@H@1@AEBUpiecewise_construct_t@1@$$QEAV?$tuple@$$QEAVstring@acl@@@1@$$QEAV?$tuple@$$$V@1@@Z 000000018005c560 f i check_timer.obj
 0001:0005b600       ??$destroy@PEAU?$_Tree_node@U?$pair@$$CBVstring@acl@@H@std@@PEAX@std@@@?$_Wrap_alloc@V?$allocator@U?$_Tree_node@U?$pair@$$CBVstring@acl@@H@std@@PEAX@std@@@std@@@std@@QEAAXPEAPEAU?$_Tree_node@U?$pair@$$CBVstring@acl@@H@std@@PEAX@1@@Z 000000018005c600 f i check_timer.obj
 0001:0005b650       ??$destroy@PEAU?$_Tree_node@U?$pair@$$CBVstring@acl@@H@std@@PEAX@std@@@?$allocator@U?$_Tree_node@U?$pair@$$CBVstring@acl@@H@std@@PEAX@std@@@std@@QEAAXPEAPEAU?$_Tree_node@U?$pair@$$CBVstring@acl@@H@std@@PEAX@1@@Z 000000018005c650 f i check_timer.obj
 0001:0005b660       ??$destroy@PEAU?$_Tree_node@U?$pair@$$CBVstring@acl@@H@std@@PEAX@std@@@?$allocator_traits@V?$allocator@U?$_Tree_node@U?$pair@$$CBVstring@acl@@H@std@@PEAX@std@@@std@@@std@@SAXAEAV?$allocator@U?$_Tree_node@U?$pair@$$CBVstring@acl@@H@std@@PEAX@std@@@1@PEAPEAU?$_Tree_node@U?$pair@$$CBVstring@acl@@H@std@@PEAX@1@@Z 000000018005c660 f i check_timer.obj
 0001:0005b6b0       ??$destroy@U?$pair@$$CBVstring@acl@@H@std@@@?$_Wrap_alloc@V?$allocator@U?$_Tree_node@U?$pair@$$CBVstring@acl@@H@std@@PEAX@std@@@std@@@std@@QEAAXPEAU?$pair@$$CBVstring@acl@@H@1@@Z 000000018005c6b0 f i check_timer.obj
 0001:0005b700       ??$destroy@U?$pair@$$CBVstring@acl@@H@std@@@?$allocator@U?$_Tree_node@U?$pair@$$CBVstring@acl@@H@std@@PEAX@std@@@std@@QEAAXPEAU?$pair@$$CBVstring@acl@@H@1@@Z 000000018005c700 f i check_timer.obj
 0001:0005b750       ??$destroy@U?$pair@$$CBVstring@acl@@H@std@@@?$allocator_traits@V?$allocator@U?$_Tree_node@U?$pair@$$CBVstring@acl@@H@std@@PEAX@std@@@std@@@std@@SAXAEAV?$allocator@U?$_Tree_node@U?$pair@$$CBVstring@acl@@H@std@@PEAX@std@@@1@PEAU?$pair@$$CBVstring@acl@@H@1@@Z 000000018005c750 f i check_timer.obj
 0001:0005b7a0       ??$emplace_hint@AEBUpiecewise_construct_t@std@@V?$tuple@$$QEAVstring@acl@@@2@V?$tuple@$$$V@2@@?$_Tree@V?$_Tmap_traits@Vstring@acl@@HU?$less@Vstring@acl@@@std@@V?$allocator@U?$pair@$$CBVstring@acl@@H@std@@@4@$0A@@std@@@std@@QEAA?AV?$_Tree_iterator@V?$_Tree_val@U?$_Tree_simple_types@U?$pair@$$CBVstring@acl@@H@std@@@std@@@std@@@1@V?$_Tree_const_iterator@V?$_Tree_val@U?$_Tree_simple_types@U?$pair@$$CBVstring@acl@@H@std@@@std@@@std@@@1@AEBUpiecewise_construct_t@1@$$QEAV?$tuple@$$QEAVstring@acl@@@1@$$QEAV?$tuple@$$$V@1@@Z 000000018005c7a0 f i check_timer.obj
 0001:0005b910       ??$forward@$$QEAVstring@acl@@@std@@YA$$QEAVstring@acl@@AEAV12@@Z 000000018005c910 f i check_timer.obj
 0001:0005b920       ??$forward@AEAPEAU?$_Tree_node@U?$pair@$$CBVstring@acl@@H@std@@PEAX@std@@@std@@YAAEAPEAU?$_Tree_node@U?$pair@$$CBVstring@acl@@H@std@@PEAX@0@AEAPEAU10@@Z 000000018005c920 f i check_timer.obj
 0001:0005b930       ??$forward@AEAPEAVcheck_client@acl@@@std@@YAAEAPEAVcheck_client@acl@@AEAPEAV12@@Z 000000018005c930 f i check_timer.obj
 0001:0005b940       ??$forward@AEAU?$pair@$$CBVstring@acl@@H@std@@@std@@YAAEAU?$pair@$$CBVstring@acl@@H@0@AEAU10@@Z 000000018005c940 f i check_timer.obj
 0001:0005b950       ??$forward@AEAV?$_Tree_iterator@V?$_Tree_val@U?$_Tree_simple_types@U?$pair@$$CBVstring@acl@@H@std@@@std@@@std@@@std@@@std@@YAAEAV?$_Tree_iterator@V?$_Tree_val@U?$_Tree_simple_types@U?$pair@$$CBVstring@acl@@H@std@@@std@@@std@@@0@AEAV10@@Z 000000018005c950 f i check_timer.obj
 0001:0005b960       ??$forward@AEBQEAVcheck_client@acl@@@std@@YAAEBQEAVcheck_client@acl@@AEBQEAV12@@Z 000000018005c960 f i check_timer.obj
 0001:0005b970       ??$forward@AEBUpiecewise_construct_t@std@@@std@@YAAEBUpiecewise_construct_t@0@AEBU10@@Z 000000018005c970 f i check_timer.obj
 0001:0005b980       ??$forward@V?$_Tree_iterator@V?$_Tree_val@U?$_Tree_simple_types@U?$pair@$$CBVstring@acl@@H@std@@@std@@@std@@@std@@@std@@YA$$QEAV?$_Tree_iterator@V?$_Tree_val@U?$_Tree_simple_types@U?$pair@$$CBVstring@acl@@H@std@@@std@@@std@@@0@AEAV10@@Z 000000018005c980 f i check_timer.obj
 0001:0005b990       ??$forward@V?$tuple@$$$V@std@@@std@@YA$$QEAV?$tuple@$$$V@0@AEAV10@@Z 000000018005c990 f i check_timer.obj
 0001:0005b9a0       ??$forward@V?$tuple@$$QEAVstring@acl@@@std@@@std@@YA$$QEAV?$tuple@$$QEAVstring@acl@@@0@AEAV10@@Z 000000018005c9a0 f i check_timer.obj
 0001:0005b9b0       ??$forward@Vstring@acl@@@std@@YA$$QEAVstring@acl@@AEAV12@@Z 000000018005c9b0 f i check_timer.obj
 0001:0005b9c0       ??$forward_as_tuple@Vstring@acl@@@std@@YA?AV?$tuple@$$QEAVstring@acl@@@0@$$QEAVstring@acl@@@Z 000000018005c9c0 f i check_timer.obj
 0001:0005ba20       ??$get@$0A@$$QEAVstring@acl@@@std@@YA$$QEAVstring@acl@@$$QEAV?$tuple@$$QEAVstring@acl@@@0@@Z 000000018005ca20 f i check_timer.obj
 0001:0005ba60       ??$move@AEAV?$tuple@$$QEAVstring@acl@@@std@@@std@@YA$$QEAV?$tuple@$$QEAVstring@acl@@@0@AEAV10@@Z 000000018005ca60 f i check_timer.obj
 0001:0005ba70       ??$move@AEAVstring@acl@@@std@@YA$$QEAVstring@acl@@AEAV12@@Z 000000018005ca70 f i check_timer.obj
 0001:0005ba80       ??0?$_Iterator012@Ubidirectional_iterator_tag@std@@U?$pair@$$CBVstring@acl@@H@2@_JPEBU32@AEBU32@U_Iterator_base12@2@@std@@QEAA@AEBU01@@Z 000000018005ca80 f i check_timer.obj
 0001:0005bad0       ??0?$_Iterator012@Ubidirectional_iterator_tag@std@@U?$pair@$$CBVstring@acl@@H@2@_JPEBU32@AEBU32@U_Iterator_base12@2@@std@@QEAA@XZ 000000018005cad0 f i check_timer.obj
 0001:0005bb10       ??0?$_Iterator012@Urandom_access_iterator_tag@std@@PEAVcheck_client@acl@@_JPEBQEAV34@AEBQEAV34@U_Iterator_base12@2@@std@@QEAA@AEBU01@@Z 000000018005cb10 f i check_timer.obj
 0001:0005bb60       ??0?$_Iterator012@Urandom_access_iterator_tag@std@@PEAVcheck_client@acl@@_JPEBQEAV34@AEBQEAV34@U_Iterator_base12@2@@std@@QEAA@XZ 000000018005cb60 f i check_timer.obj
 0001:0005bba0       ??0?$_Iterator012@Urandom_access_iterator_tag@std@@PEAVconnect_pool@acl@@_JPEBQEAV34@AEBQEAV34@U_Iterator_base12@2@@std@@QEAA@XZ 000000018005cba0 f i check_timer.obj
 0001:0005bbe0       ??0?$_Tree@V?$_Tmap_traits@Vstring@acl@@HU?$less@Vstring@acl@@@std@@V?$allocator@U?$pair@$$CBVstring@acl@@H@std@@@4@$0A@@std@@@std@@QEAA@AEBU?$less@Vstring@acl@@@1@AEBV?$allocator@U?$pair@$$CBVstring@acl@@H@std@@@1@@Z 000000018005cbe0 f i check_timer.obj
 0001:0005bc40       ??0?$_Tree_alloc@$0A@U?$_Tree_base_types@U?$pair@$$CBVstring@acl@@H@std@@V?$allocator@U?$pair@$$CBVstring@acl@@H@std@@@2@@std@@@std@@QEAA@AEBV?$allocator@U?$pair@$$CBVstring@acl@@H@std@@@1@@Z 000000018005cc40 f i check_timer.obj
 0001:0005bcc0       ??0?$_Tree_buy@U?$pair@$$CBVstring@acl@@H@std@@V?$allocator@U?$pair@$$CBVstring@acl@@H@std@@@2@@std@@QEAA@AEBV?$allocator@U?$pair@$$CBVstring@acl@@H@std@@@1@@Z 000000018005ccc0 f i check_timer.obj
 0001:0005bd10       ??0?$_Tree_comp@$0A@V?$_Tmap_traits@Vstring@acl@@HU?$less@Vstring@acl@@@std@@V?$allocator@U?$pair@$$CBVstring@acl@@H@std@@@4@$0A@@std@@@std@@QEAA@AEBU?$less@Vstring@acl@@@1@AEBV?$allocator@U?$pair@$$CBVstring@acl@@H@std@@@1@@Z 000000018005cd10 f i check_timer.obj
 0001:0005bd70       ??0?$_Tree_const_iterator@V?$_Tree_val@U?$_Tree_simple_types@U?$pair@$$CBVstring@acl@@H@std@@@std@@@std@@@std@@QEAA@AEBV01@@Z 000000018005cd70 f i check_timer.obj
 0001:0005bdc0       ??0?$_Tree_const_iterator@V?$_Tree_val@U?$_Tree_simple_types@U?$pair@$$CBVstring@acl@@H@std@@@std@@@std@@@std@@QEAA@PEAU?$_Tree_node@U?$pair@$$CBVstring@acl@@H@std@@PEAX@1@PEBV?$_Tree_val@U?$_Tree_simple_types@U?$pair@$$CBVstring@acl@@H@std@@@std@@@1@@Z 000000018005cdc0 f i check_timer.obj
 0001:0005be20       ??0?$_Tree_const_iterator@V?$_Tree_val@U?$_Tree_simple_types@U?$pair@$$CBVstring@acl@@H@std@@@std@@@std@@@std@@QEAA@XZ 000000018005ce20 f i check_timer.obj
 0001:0005be60       ??0?$_Tree_iterator@V?$_Tree_val@U?$_Tree_simple_types@U?$pair@$$CBVstring@acl@@H@std@@@std@@@std@@@std@@QEAA@AEBV01@@Z 000000018005ce60 f i check_timer.obj
 0001:0005beb0       ??0?$_Tree_iterator@V?$_Tree_val@U?$_Tree_simple_types@U?$pair@$$CBVstring@acl@@H@std@@@std@@@std@@@std@@QEAA@PEAU?$_Tree_node@U?$pair@$$CBVstring@acl@@H@std@@PEAX@1@PEBV?$_Tree_val@U?$_Tree_simple_types@U?$pair@$$CBVstring@acl@@H@std@@@std@@@1@@Z 000000018005ceb0 f i check_timer.obj
 0001:0005bf10       ??0?$_Tree_iterator@V?$_Tree_val@U?$_Tree_simple_types@U?$pair@$$CBVstring@acl@@H@std@@@std@@@std@@@std@@QEAA@XZ 000000018005cf10 f i check_timer.obj
 0001:0005bf50       ??0?$_Tree_unchecked_const_iterator@V?$_Tree_val@U?$_Tree_simple_types@U?$pair@$$CBVstring@acl@@H@std@@@std@@@std@@U_Iterator_base12@2@@std@@QEAA@AEBV01@@Z 000000018005cf50 f i check_timer.obj
 0001:0005bfc0       ??0?$_Tree_unchecked_const_iterator@V?$_Tree_val@U?$_Tree_simple_types@U?$pair@$$CBVstring@acl@@H@std@@@std@@@std@@U_Iterator_base12@2@@std@@QEAA@PEAU?$_Tree_node@U?$pair@$$CBVstring@acl@@H@std@@PEAX@1@PEBV?$_Tree_val@U?$_Tree_simple_types@U?$pair@$$CBVstring@acl@@H@std@@@std@@@1@@Z 000000018005cfc0 f i check_timer.obj
 0001:0005c040       ??0?$_Tree_unchecked_const_iterator@V?$_Tree_val@U?$_Tree_simple_types@U?$pair@$$CBVstring@acl@@H@std@@@std@@@std@@U_Iterator_base12@2@@std@@QEAA@XZ 000000018005d040 f i check_timer.obj
 0001:0005c090       ??0?$_Tree_val@U?$_Tree_simple_types@U?$pair@$$CBVstring@acl@@H@std@@@std@@@std@@QEAA@XZ 000000018005d090 f i check_timer.obj
 0001:0005c100       ??0?$_Vector_alloc@$0A@U?$_Vec_base_types@PEAVcheck_client@acl@@V?$allocator@PEAVcheck_client@acl@@@std@@@std@@@std@@QEAA@AEBV?$allocator@PEAVcheck_client@acl@@@1@@Z 000000018005d100 f i check_timer.obj
 0001:0005c160       ??0?$_Vector_const_iterator@V?$_Vector_val@U?$_Simple_types@PEAVcheck_client@acl@@@std@@@std@@@std@@QEAA@AEBV01@@Z 000000018005d160 f i check_timer.obj
 0001:0005c1d0       ??0?$_Vector_const_iterator@V?$_Vector_val@U?$_Simple_types@PEAVcheck_client@acl@@@std@@@std@@@std@@QEAA@PEAPEAVcheck_client@acl@@PEBU_Container_base12@1@@Z 000000018005d1d0 f i check_timer.obj
 0001:0005c250       ??0?$_Vector_const_iterator@V?$_Vector_val@U?$_Simple_types@PEAVconnect_pool@acl@@@std@@@std@@@std@@QEAA@PEAPEAVconnect_pool@acl@@PEBU_Container_base12@1@@Z 000000018005d250 f i check_timer.obj
 0001:0005c2d0       ??0?$_Vector_iterator@V?$_Vector_val@U?$_Simple_types@PEAVcheck_client@acl@@@std@@@std@@@std@@QEAA@PEAPEAVcheck_client@acl@@PEBU_Container_base12@1@@Z 000000018005d2d0 f i check_timer.obj
 0001:0005c330       ??0?$_Vector_val@U?$_Simple_types@PEAVcheck_client@acl@@@std@@@std@@QEAA@XZ 000000018005d330 f i check_timer.obj
 0001:0005c3b0       ??0?$_Wrap_alloc@V?$allocator@PEAVcheck_client@acl@@@std@@@std@@QEAA@XZ 000000018005d3b0 f i check_timer.obj
 0001:0005c3f0       ??0?$_Wrap_alloc@V?$allocator@U?$_Tree_node@U?$pair@$$CBVstring@acl@@H@std@@PEAX@std@@@std@@@std@@QEAA@XZ 000000018005d3f0 f i check_timer.obj
 0001:0005c430       ??0?$allocator@PEAVcheck_client@acl@@@std@@QEAA@XZ 000000018005d430 f i check_timer.obj
 0001:0005c440       ??0?$allocator@U?$_Tree_node@U?$pair@$$CBVstring@acl@@H@std@@PEAX@std@@@std@@QEAA@XZ 000000018005d440 f i check_timer.obj
 0001:0005c450       ??0?$allocator@U?$pair@$$CBVstring@acl@@H@std@@@std@@QEAA@XZ 000000018005d450 f i check_timer.obj
 0001:0005c460       ??0?$map@Vstring@acl@@HU?$less@Vstring@acl@@@std@@V?$allocator@U?$pair@$$CBVstring@acl@@H@std@@@4@@std@@QEAA@XZ 000000018005d460 f i check_timer.obj
 0001:0005c4c0       ??0?$tuple@$$$V@std@@QEAA@AEBV01@@Z 000000018005d4c0 f i check_timer.obj
 0001:0005c4e0       ??0?$tuple@$$$V@std@@QEAA@XZ 000000018005d4e0 f i check_timer.obj
 0001:0005c4f0       ??0?$vector@PEAVcheck_client@acl@@V?$allocator@PEAVcheck_client@acl@@@std@@@std@@QEAA@XZ 000000018005d4f0 f i check_timer.obj
 0001:0005c540       ??1?$_Iterator012@Ubidirectional_iterator_tag@std@@U?$pair@$$CBVstring@acl@@H@2@_JPEBU32@AEBU32@U_Iterator_base12@2@@std@@QEAA@XZ 000000018005d540 f i check_timer.obj
 0001:0005c580       ??1?$_Iterator012@Urandom_access_iterator_tag@std@@PEAVcheck_client@acl@@_JPEBQEAV34@AEBQEAV34@U_Iterator_base12@2@@std@@QEAA@XZ 000000018005d580 f i check_timer.obj
 0001:0005c5c0       ??1?$_Iterator012@Urandom_access_iterator_tag@std@@PEAVconnect_pool@acl@@_JPEBQEAV34@AEBQEAV34@U_Iterator_base12@2@@std@@QEAA@XZ 000000018005d5c0 f i check_timer.obj
 0001:0005c600       ??1?$_Tree@V?$_Tmap_traits@Vstring@acl@@HU?$less@Vstring@acl@@@std@@V?$allocator@U?$pair@$$CBVstring@acl@@H@std@@@4@$0A@@std@@@std@@QEAA@XZ 000000018005d600 f i check_timer.obj
 0001:0005c650       ??1?$_Tree_alloc@$0A@U?$_Tree_base_types@U?$pair@$$CBVstring@acl@@H@std@@V?$allocator@U?$pair@$$CBVstring@acl@@H@std@@@2@@std@@@std@@QEAA@XZ 000000018005d650 f i check_timer.obj
 0001:0005c6b0       ??1?$_Tree_buy@U?$pair@$$CBVstring@acl@@H@std@@V?$allocator@U?$pair@$$CBVstring@acl@@H@std@@@2@@std@@QEAA@XZ 000000018005d6b0 f i check_timer.obj
 0001:0005c6f0       ??1?$_Tree_comp@$0A@V?$_Tmap_traits@Vstring@acl@@HU?$less@Vstring@acl@@@std@@V?$allocator@U?$pair@$$CBVstring@acl@@H@std@@@4@$0A@@std@@@std@@QEAA@XZ 000000018005d6f0 f i check_timer.obj
 0001:0005c730       ??1?$_Tree_const_iterator@V?$_Tree_val@U?$_Tree_simple_types@U?$pair@$$CBVstring@acl@@H@std@@@std@@@std@@@std@@QEAA@XZ 000000018005d730 f i check_timer.obj
 0001:0005c770       ??1?$_Tree_iterator@V?$_Tree_val@U?$_Tree_simple_types@U?$pair@$$CBVstring@acl@@H@std@@@std@@@std@@@std@@QEAA@XZ 000000018005d770 f i check_timer.obj
 0001:0005c7b0       ??1?$_Tree_unchecked_const_iterator@V?$_Tree_val@U?$_Tree_simple_types@U?$pair@$$CBVstring@acl@@H@std@@@std@@@std@@U_Iterator_base12@2@@std@@QEAA@XZ 000000018005d7b0 f i check_timer.obj
 0001:0005c7f0       ??1?$_Tree_val@U?$_Tree_simple_types@U?$pair@$$CBVstring@acl@@H@std@@@std@@@std@@QEAA@XZ 000000018005d7f0 f i check_timer.obj
 0001:0005c830       ??1?$_Vector_alloc@$0A@U?$_Vec_base_types@PEAVcheck_client@acl@@V?$allocator@PEAVcheck_client@acl@@@std@@@std@@@std@@QEAA@XZ 000000018005d830 f i check_timer.obj
 0001:0005c880       ??1?$_Vector_const_iterator@V?$_Vector_val@U?$_Simple_types@PEAVcheck_client@acl@@@std@@@std@@@std@@QEAA@XZ 000000018005d880 f i check_timer.obj
 0001:0005c8c0       ??1?$_Vector_const_iterator@V?$_Vector_val@U?$_Simple_types@PEAVconnect_pool@acl@@@std@@@std@@@std@@QEAA@XZ 000000018005d8c0 f i check_timer.obj
 0001:0005c900       ??1?$_Vector_iterator@V?$_Vector_val@U?$_Simple_types@PEAVcheck_client@acl@@@std@@@std@@@std@@QEAA@XZ 000000018005d900 f i check_timer.obj
 0001:0005c940       ??1?$_Vector_val@U?$_Simple_types@PEAVcheck_client@acl@@@std@@@std@@QEAA@XZ 000000018005d940 f i check_timer.obj
 0001:0005c980       ??1?$map@Vstring@acl@@HU?$less@Vstring@acl@@@std@@V?$allocator@U?$pair@$$CBVstring@acl@@H@std@@@4@@std@@QEAA@XZ 000000018005d980 f i check_timer.obj
 0001:0005c9c0       ??1?$pair@$$CBVstring@acl@@H@std@@QEAA@XZ 000000018005d9c0 f i check_timer.obj
 0001:0005ca00       ??1?$pair@V?$_Tree_iterator@V?$_Tree_val@U?$_Tree_simple_types@U?$pair@$$CBVstring@acl@@H@std@@@std@@@std@@@std@@_N@std@@QEAA@XZ 000000018005da00 f i check_timer.obj
 0001:0005ca40       ??1?$vector@PEAVcheck_client@acl@@V?$allocator@PEAVcheck_client@acl@@@std@@@std@@QEAA@XZ 000000018005da40 f i check_timer.obj
 0001:0005ca90       ??1check_timer@acl@@UEAA@XZ 000000018005da90 f i check_timer.obj
 0001:0005cb10       ??4?$_Iterator012@Ubidirectional_iterator_tag@std@@U?$pair@$$CBVstring@acl@@H@2@_JPEBU32@AEBU32@U_Iterator_base12@2@@std@@QEAAAEAU01@AEBU01@@Z 000000018005db10 f i check_timer.obj
 0001:0005cb60       ??4?$_Tree_const_iterator@V?$_Tree_val@U?$_Tree_simple_types@U?$pair@$$CBVstring@acl@@H@std@@@std@@@std@@@std@@QEAAAEAV01@AEBV01@@Z 000000018005db60 f i check_timer.obj
 0001:0005cbb0       ??4?$_Tree_iterator@V?$_Tree_val@U?$_Tree_simple_types@U?$pair@$$CBVstring@acl@@H@std@@@std@@@std@@@std@@QEAAAEAV01@AEBV01@@Z 000000018005dbb0 f i check_timer.obj
 0001:0005cc00       ??4?$_Tree_unchecked_const_iterator@V?$_Tree_val@U?$_Tree_simple_types@U?$pair@$$CBVstring@acl@@H@std@@@std@@@std@@U_Iterator_base12@2@@std@@QEAAAEAV01@AEBV01@@Z 000000018005dc00 f i check_timer.obj
 0001:0005cc70       ??8?$_Tree_const_iterator@V?$_Tree_val@U?$_Tree_simple_types@U?$pair@$$CBVstring@acl@@H@std@@@std@@@std@@@std@@QEBA_NAEBV01@@Z 000000018005dc70 f i check_timer.obj
 0001:0005cde0       ??8?$_Vector_const_iterator@V?$_Vector_val@U?$_Simple_types@PEAVcheck_client@acl@@@std@@@std@@@std@@QEBA_NAEBV01@@Z 000000018005dde0 f i check_timer.obj
 0001:0005ce60       ??8?$_Vector_const_iterator@V?$_Vector_val@U?$_Simple_types@PEAVconnect_pool@acl@@@std@@@std@@@std@@QEBA_NAEBV01@@Z 000000018005de60 f i check_timer.obj
 0001:0005cee0       ??9?$_Tree_const_iterator@V?$_Tree_val@U?$_Tree_simple_types@U?$pair@$$CBVstring@acl@@H@std@@@std@@@std@@@std@@QEBA_NAEBV01@@Z 000000018005dee0 f i check_timer.obj
 0001:0005cf50       ??9?$_Vector_const_iterator@V?$_Vector_val@U?$_Simple_types@PEAVcheck_client@acl@@@std@@@std@@@std@@QEBA_NAEBV01@@Z 000000018005df50 f i check_timer.obj
 0001:0005cfc0       ??9?$_Vector_const_iterator@V?$_Vector_val@U?$_Simple_types@PEAVconnect_pool@acl@@@std@@@std@@@std@@QEBA_NAEBV01@@Z 000000018005dfc0 f i check_timer.obj
 0001:0005d030       ??A?$map@Vstring@acl@@HU?$less@Vstring@acl@@@std@@V?$allocator@U?$pair@$$CBVstring@acl@@H@std@@@4@@std@@QEAAAEAH$$QEAVstring@acl@@@Z 000000018005e030 f i check_timer.obj
 0001:0005d340       ??C?$_Tree_iterator@V?$_Tree_val@U?$_Tree_simple_types@U?$pair@$$CBVstring@acl@@H@std@@@std@@@std@@@std@@QEBAPEAU?$pair@$$CBVstring@acl@@H@1@XZ 000000018005e340 f i check_timer.obj
 0001:0005d390       ??D?$_Tree_const_iterator@V?$_Tree_val@U?$_Tree_simple_types@U?$pair@$$CBVstring@acl@@H@std@@@std@@@std@@@std@@QEBAAEBU?$pair@$$CBVstring@acl@@H@1@XZ 000000018005e390 f i check_timer.obj
 0001:0005d4d0       ??D?$_Tree_iterator@V?$_Tree_val@U?$_Tree_simple_types@U?$pair@$$CBVstring@acl@@H@std@@@std@@@std@@@std@@QEBAAEAU?$pair@$$CBVstring@acl@@H@1@XZ 000000018005e4d0 f i check_timer.obj
 0001:0005d510       ??D?$_Vector_const_iterator@V?$_Vector_val@U?$_Simple_types@PEAVcheck_client@acl@@@std@@@std@@@std@@QEBAAEBQEAVcheck_client@acl@@XZ 000000018005e510 f i check_timer.obj
 0001:0005d670       ??D?$_Vector_const_iterator@V?$_Vector_val@U?$_Simple_types@PEAVconnect_pool@acl@@@std@@@std@@@std@@QEBAAEBQEAVconnect_pool@acl@@XZ 000000018005e670 f i check_timer.obj
 0001:0005d7d0       ??D?$_Vector_iterator@V?$_Vector_val@U?$_Simple_types@PEAVcheck_client@acl@@@std@@@std@@@std@@QEBAAEAPEAVcheck_client@acl@@XZ 000000018005e7d0 f i check_timer.obj
 0001:0005d810       ??E?$_Tree_const_iterator@V?$_Tree_val@U?$_Tree_simple_types@U?$pair@$$CBVstring@acl@@H@std@@@std@@@std@@@std@@QEAA?AV01@H@Z 000000018005e810 f i check_timer.obj
 0001:0005d8d0       ??E?$_Tree_const_iterator@V?$_Tree_val@U?$_Tree_simple_types@U?$pair@$$CBVstring@acl@@H@std@@@std@@@std@@@std@@QEAAAEAV01@XZ 000000018005e8d0 f i check_timer.obj
 0001:0005da10       ??E?$_Tree_iterator@V?$_Tree_val@U?$_Tree_simple_types@U?$pair@$$CBVstring@acl@@H@std@@@std@@@std@@@std@@QEAAAEAV01@XZ 000000018005ea10 f i check_timer.obj
 0001:0005da50       ??E?$_Tree_unchecked_const_iterator@V?$_Tree_val@U?$_Tree_simple_types@U?$pair@$$CBVstring@acl@@H@std@@@std@@@std@@U_Iterator_base12@2@@std@@QEAAAEAV01@XZ 000000018005ea50 f i check_timer.obj
 0001:0005db70       ??E?$_Vector_const_iterator@V?$_Vector_val@U?$_Simple_types@PEAVcheck_client@acl@@@std@@@std@@@std@@QEAAAEAV01@XZ 000000018005eb70 f i check_timer.obj
 0001:0005dcc0       ??E?$_Vector_const_iterator@V?$_Vector_val@U?$_Simple_types@PEAVconnect_pool@acl@@@std@@@std@@@std@@QEAAAEAV01@XZ 000000018005ecc0 f i check_timer.obj
 0001:0005de10       ??E?$_Vector_iterator@V?$_Vector_val@U?$_Simple_types@PEAVcheck_client@acl@@@std@@@std@@@std@@QEAAAEAV01@XZ 000000018005ee10 f i check_timer.obj
 0001:0005de50       ??F?$_Tree_const_iterator@V?$_Tree_val@U?$_Tree_simple_types@U?$pair@$$CBVstring@acl@@H@std@@@std@@@std@@@std@@QEAAAEAV01@XZ 000000018005ee50 f i check_timer.obj
 0001:0005e050       ??F?$_Tree_iterator@V?$_Tree_val@U?$_Tree_simple_types@U?$pair@$$CBVstring@acl@@H@std@@@std@@@std@@@std@@QEAAAEAV01@XZ 000000018005f050 f i check_timer.obj
 0001:0005e090       ??F?$_Tree_unchecked_const_iterator@V?$_Tree_val@U?$_Tree_simple_types@U?$pair@$$CBVstring@acl@@H@std@@@std@@@std@@U_Iterator_base12@2@@std@@QEAAAEAV01@XZ 000000018005f090 f i check_timer.obj
 0001:0005e1f0       ??_G?$pair@$$CBVstring@acl@@H@std@@QEAAPEAXI@Z 000000018005f1f0 f i check_timer.obj
 0001:0005e250       ??_Gcheck_timer@acl@@UEAAPEAXI@Z 000000018005f250 f i check_timer.obj
 0001:0005e250       ??_Echeck_timer@acl@@UEAAPEAXI@Z 000000018005f250 f i check_timer.obj
 0001:0005e2b0       ?_Alloc_proxy@?$_Tree_alloc@$0A@U?$_Tree_base_types@U?$pair@$$CBVstring@acl@@H@std@@V?$allocator@U?$pair@$$CBVstring@acl@@H@std@@@2@@std@@@std@@QEAAXXZ 000000018005f2b0 f i check_timer.obj
 0001:0005e370       ?_Alloc_proxy@?$_Vector_alloc@$0A@U?$_Vec_base_types@PEAVcheck_client@acl@@V?$allocator@PEAVcheck_client@acl@@@std@@@std@@@std@@QEAAXXZ 000000018005f370 f i check_timer.obj
 0001:0005e420       ?_Buyheadnode@?$_Tree_alloc@$0A@U?$_Tree_base_types@U?$pair@$$CBVstring@acl@@H@std@@V?$allocator@U?$pair@$$CBVstring@acl@@H@std@@@2@@std@@@std@@QEAAPEAU?$_Tree_node@U?$pair@$$CBVstring@acl@@H@std@@PEAX@2@XZ 000000018005f420 f i check_timer.obj
 0001:0005e5d0       ?_Buynode0@?$_Tree_buy@U?$pair@$$CBVstring@acl@@H@std@@V?$allocator@U?$pair@$$CBVstring@acl@@H@std@@@2@@std@@QEAAPEAU?$_Tree_node@U?$pair@$$CBVstring@acl@@H@std@@PEAX@2@XZ 000000018005f5d0 f i check_timer.obj
 0001:0005e790       ?_Color@?$_Tree_val@U?$_Tree_simple_types@U?$pair@$$CBVstring@acl@@H@std@@@std@@@std@@SAAEADPEAU?$_Tree_node@U?$pair@$$CBVstring@acl@@H@std@@PEAX@2@@Z 000000018005f790 f i check_timer.obj
 0001:0005e7b0       ?_Compat@?$_Vector_const_iterator@V?$_Vector_val@U?$_Simple_types@PEAVcheck_client@acl@@@std@@@std@@@std@@QEBAXAEBV12@@Z 000000018005f7b0 f i check_timer.obj
 0001:0005e8e0       ?_Compat@?$_Vector_const_iterator@V?$_Vector_val@U?$_Simple_types@PEAVconnect_pool@acl@@@std@@@std@@@std@@QEBAXAEBV12@@Z 000000018005f8e0 f i check_timer.obj
 0001:0005ea10       ?_Destroy@?$vector@PEAVcheck_client@acl@@V?$allocator@PEAVcheck_client@acl@@@std@@@std@@IEAAXPEAPEAVcheck_client@acl@@0@Z 000000018005fa10 f i check_timer.obj
 0001:0005ea90       ?_Destroy_if_not_nil@?$_Tree@V?$_Tmap_traits@Vstring@acl@@HU?$less@Vstring@acl@@@std@@V?$allocator@U?$pair@$$CBVstring@acl@@H@std@@@4@$0A@@std@@@std@@IEAAXPEAU?$_Tree_node@U?$pair@$$CBVstring@acl@@H@std@@PEAX@2@@Z 000000018005fa90 f i check_timer.obj
 0001:0005eb40       ?_Erase@?$_Tree@V?$_Tmap_traits@Vstring@acl@@HU?$less@Vstring@acl@@@std@@V?$allocator@U?$pair@$$CBVstring@acl@@H@std@@@4@$0A@@std@@@std@@IEAAXPEAU?$_Tree_node@U?$pair@$$CBVstring@acl@@H@std@@PEAX@2@@Z 000000018005fb40 f i check_timer.obj
 0001:0005ec50       ?_Free_proxy@?$_Tree_alloc@$0A@U?$_Tree_base_types@U?$pair@$$CBVstring@acl@@H@std@@V?$allocator@U?$pair@$$CBVstring@acl@@H@std@@@2@@std@@@std@@QEAAXXZ 000000018005fc50 f i check_timer.obj
 0001:0005ed10       ?_Free_proxy@?$_Vector_alloc@$0A@U?$_Vec_base_types@PEAVcheck_client@acl@@V?$allocator@PEAVcheck_client@acl@@@std@@@std@@@std@@QEAAXXZ 000000018005fd10 f i check_timer.obj
 0001:0005edb0       ?_Freeheadnode@?$_Tree_alloc@$0A@U?$_Tree_base_types@U?$pair@$$CBVstring@acl@@H@std@@V?$allocator@U?$pair@$$CBVstring@acl@@H@std@@@2@@std@@@std@@QEAAXPEAU?$_Tree_node@U?$pair@$$CBVstring@acl@@H@std@@PEAX@2@@Z 000000018005fdb0 f i check_timer.obj
 0001:0005eee0       ?_Freenode0@?$_Tree_buy@U?$pair@$$CBVstring@acl@@H@std@@V?$allocator@U?$pair@$$CBVstring@acl@@H@std@@@2@@std@@QEAAXPEAU?$_Tree_node@U?$pair@$$CBVstring@acl@@H@std@@PEAX@2@@Z 000000018005fee0 f i check_timer.obj
 0001:0005f010       ?_Get_rest@?$tuple@$$QEAVstring@acl@@@std@@QEAAAEAV?$tuple@$$$V@2@XZ 0000000180060010 f i check_timer.obj
 0001:0005f020       ?_Getal@?$_Tree_alloc@$0A@U?$_Tree_base_types@U?$pair@$$CBVstring@acl@@H@std@@V?$allocator@U?$pair@$$CBVstring@acl@@H@std@@@2@@std@@@std@@QEBA?AU?$_Wrap_alloc@V?$allocator@U?$_Tree_node@U?$pair@$$CBVstring@acl@@H@std@@PEAX@std@@@std@@@2@XZ 0000000180060020 f i check_timer.obj
 0001:0005f070       ?_Getal@?$_Vector_alloc@$0A@U?$_Vec_base_types@PEAVcheck_client@acl@@V?$allocator@PEAVcheck_client@acl@@@std@@@std@@@std@@QEBA?AU?$_Wrap_alloc@V?$allocator@PEAVcheck_client@acl@@@std@@@2@XZ 0000000180060070 f i check_timer.obj
 0001:0005f0c0       ?_Getcomp@?$_Tree_comp@$0A@V?$_Tmap_traits@Vstring@acl@@HU?$less@Vstring@acl@@@std@@V?$allocator@U?$pair@$$CBVstring@acl@@H@std@@@4@$0A@@std@@@std@@QEBA?AU?$less@Vstring@acl@@@2@XZ 00000001800600c0 f i check_timer.obj
 0001:0005f100       ?_Grow_to@?$vector@PEAVcheck_client@acl@@V?$allocator@PEAVcheck_client@acl@@@std@@@std@@IEBA_K_K@Z 0000000180060100 f i check_timer.obj
 0001:0005f1f0       ?_Inside@?$vector@PEAVcheck_client@acl@@V?$allocator@PEAVcheck_client@acl@@@std@@@std@@IEBA_NPEBQEAVcheck_client@acl@@@Z 00000001800601f0 f i check_timer.obj
 0001:0005f270       ?_Isnil@?$_Tree_val@U?$_Tree_simple_types@U?$pair@$$CBVstring@acl@@H@std@@@std@@@std@@SAAEADPEAU?$_Tree_node@U?$pair@$$CBVstring@acl@@H@std@@PEAX@2@@Z 0000000180060270 f i check_timer.obj
 0001:0005f290       ?_Key@?$_Tree@V?$_Tmap_traits@Vstring@acl@@HU?$less@Vstring@acl@@@std@@V?$allocator@U?$pair@$$CBVstring@acl@@H@std@@@4@$0A@@std@@@std@@IEBAAEBVstring@acl@@PEAU?$_Tree_node@U?$pair@$$CBVstring@acl@@H@std@@PEAX@2@@Z 0000000180060290 f i check_timer.obj
 0001:0005f2e0       ?_Kfn@?$_Tree@V?$_Tmap_traits@Vstring@acl@@HU?$less@Vstring@acl@@@std@@V?$allocator@U?$pair@$$CBVstring@acl@@H@std@@@4@$0A@@std@@@std@@IEBAAEBVstring@acl@@AEBU?$pair@$$CBVstring@acl@@H@2@@Z 00000001800602e0 f i check_timer.obj
 0001:0005f320       ?_Lbound@?$_Tree@V?$_Tmap_traits@Vstring@acl@@HU?$less@Vstring@acl@@@std@@V?$allocator@U?$pair@$$CBVstring@acl@@H@std@@@4@$0A@@std@@@std@@IEAAPEAU?$_Tree_node@U?$pair@$$CBVstring@acl@@H@std@@PEAX@2@AEBVstring@acl@@@Z 0000000180060320 f i check_timer.obj
 0001:0005f440       ?_Left@?$_Tree_val@U?$_Tree_simple_types@U?$pair@$$CBVstring@acl@@H@std@@@std@@@std@@SAAEAPEAU?$_Tree_node@U?$pair@$$CBVstring@acl@@H@std@@PEAX@2@PEAU32@@Z 0000000180060440 f i check_timer.obj
 0001:0005f450       ?_Lmost@?$_Tree@V?$_Tmap_traits@Vstring@acl@@HU?$less@Vstring@acl@@@std@@V?$allocator@U?$pair@$$CBVstring@acl@@H@std@@@4@$0A@@std@@@std@@IEBAAEAPEAU?$_Tree_node@U?$pair@$$CBVstring@acl@@H@std@@PEAX@2@XZ 0000000180060450 f i check_timer.obj
 0001:0005f490       ?_Lrotate@?$_Tree@V?$_Tmap_traits@Vstring@acl@@HU?$less@Vstring@acl@@@std@@V?$allocator@U?$pair@$$CBVstring@acl@@H@std@@@4@$0A@@std@@@std@@IEAAXPEAU?$_Tree_node@U?$pair@$$CBVstring@acl@@H@std@@PEAX@2@@Z 0000000180060490 f i check_timer.obj
 0001:0005f640       ?_Make_iter@?$vector@PEAVcheck_client@acl@@V?$allocator@PEAVcheck_client@acl@@@std@@@std@@QEBA?AV?$_Vector_iterator@V?$_Vector_val@U?$_Simple_types@PEAVcheck_client@acl@@@std@@@std@@@2@V?$_Vector_const_iterator@V?$_Vector_val@U?$_Simple_types@PEAVcheck_client@acl@@@std@@@std@@@2@@Z 0000000180060640 f i check_timer.obj
 0001:0005f6d0       ?_Max@?$_Tree_val@U?$_Tree_simple_types@U?$pair@$$CBVstring@acl@@H@std@@@std@@@std@@SAPEAU?$_Tree_node@U?$pair@$$CBVstring@acl@@H@std@@PEAX@2@PEAU32@@Z 00000001800606d0 f i check_timer.obj
 0001:0005f740       ?_Min@?$_Tree_val@U?$_Tree_simple_types@U?$pair@$$CBVstring@acl@@H@std@@@std@@@std@@SAPEAU?$_Tree_node@U?$pair@$$CBVstring@acl@@H@std@@PEAX@2@PEAU32@@Z 0000000180060740 f i check_timer.obj
 0001:0005f7b0       ?_Mynode@?$_Tree_unchecked_const_iterator@V?$_Tree_val@U?$_Tree_simple_types@U?$pair@$$CBVstring@acl@@H@std@@@std@@@std@@U_Iterator_base12@2@@std@@QEBAPEAU?$_Tree_node@U?$pair@$$CBVstring@acl@@H@std@@PEAX@2@XZ 00000001800607b0 f i check_timer.obj
 0001:0005f7d0       ?_Myval@?$_Tree_val@U?$_Tree_simple_types@U?$pair@$$CBVstring@acl@@H@std@@@std@@@std@@SAAEAU?$pair@$$CBVstring@acl@@H@2@PEAU?$_Tree_node@U?$pair@$$CBVstring@acl@@H@std@@PEAX@2@@Z 00000001800607d0 f i check_timer.obj
 0001:0005f7f0       ?_Orphan_ptr@?$_Tree@V?$_Tmap_traits@Vstring@acl@@HU?$less@Vstring@acl@@@std@@V?$allocator@U?$pair@$$CBVstring@acl@@H@std@@@4@$0A@@std@@@std@@IEBAXAEAV12@PEAU?$_Tree_node@U?$pair@$$CBVstring@acl@@H@std@@PEAX@2@@Z 00000001800607f0 f i check_timer.obj
 0001:0005f920       ?_Orphan_range@?$vector@PEAVcheck_client@acl@@V?$allocator@PEAVcheck_client@acl@@@std@@@std@@IEBAXPEAPEAVcheck_client@acl@@0@Z 0000000180060920 f i check_timer.obj
 0001:0005fa40       ?_Parent@?$_Tree_val@U?$_Tree_simple_types@U?$pair@$$CBVstring@acl@@H@std@@@std@@@std@@SAAEAPEAU?$_Tree_node@U?$pair@$$CBVstring@acl@@H@std@@PEAX@2@PEAU32@@Z 0000000180060a40 f i check_timer.obj
 0001:0005fa60       ?_Reallocate@?$vector@PEAVcheck_client@acl@@V?$allocator@PEAVcheck_client@acl@@@std@@@std@@IEAAX_K@Z 0000000180060a60 f i check_timer.obj
 0001:0005fbf0       ?_Reserve@?$vector@PEAVcheck_client@acl@@V?$allocator@PEAVcheck_client@acl@@@std@@@std@@IEAAX_K@Z 0000000180060bf0 f i check_timer.obj
 0001:0005fcb0       ?_Right@?$_Tree_val@U?$_Tree_simple_types@U?$pair@$$CBVstring@acl@@H@std@@@std@@@std@@SAAEAPEAU?$_Tree_node@U?$pair@$$CBVstring@acl@@H@std@@PEAX@2@PEAU32@@Z 0000000180060cb0 f i check_timer.obj
 0001:0005fcd0       ?_Rmost@?$_Tree@V?$_Tmap_traits@Vstring@acl@@HU?$less@Vstring@acl@@@std@@V?$allocator@U?$pair@$$CBVstring@acl@@H@std@@@4@$0A@@std@@@std@@IEBAAEAPEAU?$_Tree_node@U?$pair@$$CBVstring@acl@@H@std@@PEAX@2@XZ 0000000180060cd0 f i check_timer.obj
 0001:0005fd10       ?_Root@?$_Tree@V?$_Tmap_traits@Vstring@acl@@HU?$less@Vstring@acl@@@std@@V?$allocator@U?$pair@$$CBVstring@acl@@H@std@@@4@$0A@@std@@@std@@IEBAAEAPEAU?$_Tree_node@U?$pair@$$CBVstring@acl@@H@std@@PEAX@2@XZ 0000000180060d10 f i check_timer.obj
 0001:0005fd50       ?_Rrotate@?$_Tree@V?$_Tmap_traits@Vstring@acl@@HU?$less@Vstring@acl@@@std@@V?$allocator@U?$pair@$$CBVstring@acl@@H@std@@@4@$0A@@std@@@std@@IEAAXPEAU?$_Tree_node@U?$pair@$$CBVstring@acl@@H@std@@PEAX@2@@Z 0000000180060d50 f i check_timer.obj
 0001:0005ff00       ?_Tidy@?$_Tree@V?$_Tmap_traits@Vstring@acl@@HU?$less@Vstring@acl@@@std@@V?$allocator@U?$pair@$$CBVstring@acl@@H@std@@@4@$0A@@std@@@std@@IEAAXXZ 0000000180060f00 f i check_timer.obj
 0001:00060080       ?_Tidy@?$vector@PEAVcheck_client@acl@@V?$allocator@PEAVcheck_client@acl@@@std@@@std@@IEAAXXZ 0000000180061080 f i check_timer.obj
 0001:00060180       ?_Unused_capacity@?$vector@PEAVcheck_client@acl@@V?$allocator@PEAVcheck_client@acl@@@std@@@std@@QEBA_KXZ 0000000180061180 f i check_timer.obj
 0001:000601b0       ?_Xlen@?$vector@PEAVcheck_client@acl@@V?$allocator@PEAVcheck_client@acl@@@std@@@std@@IEBAXXZ 00000001800611b0 f i check_timer.obj
 0001:000601f0       ?allocate@?$_Wrap_alloc@V?$allocator@PEAVcheck_client@acl@@@std@@@std@@QEAAPEAPEAVcheck_client@acl@@_K@Z 00000001800611f0 f i check_timer.obj
 0001:00060240       ?allocate@?$_Wrap_alloc@V?$allocator@U?$_Tree_node@U?$pair@$$CBVstring@acl@@H@std@@PEAX@std@@@std@@@std@@QEAAPEAU?$_Tree_node@U?$pair@$$CBVstring@acl@@H@std@@PEAX@2@_K@Z 0000000180061240 f i check_timer.obj
 0001:00060290       ?allocate@?$allocator@PEAVcheck_client@acl@@@std@@QEAAPEAPEAVcheck_client@acl@@_K@Z 0000000180061290 f i check_timer.obj
 0001:000602e0       ?allocate@?$allocator@U?$_Tree_node@U?$pair@$$CBVstring@acl@@H@std@@PEAX@std@@@std@@QEAAPEAU?$_Tree_node@U?$pair@$$CBVstring@acl@@H@std@@PEAX@2@_K@Z 00000001800612e0 f i check_timer.obj
 0001:00060330       ?begin@?$_Tree@V?$_Tmap_traits@Vstring@acl@@HU?$less@Vstring@acl@@@std@@V?$allocator@U?$pair@$$CBVstring@acl@@H@std@@@4@$0A@@std@@@std@@QEAA?AV?$_Tree_iterator@V?$_Tree_val@U?$_Tree_simple_types@U?$pair@$$CBVstring@acl@@H@std@@@std@@@std@@@2@XZ 0000000180061330 f i check_timer.obj
 0001:00060390       ?begin@?$vector@PEAVcheck_client@acl@@V?$allocator@PEAVcheck_client@acl@@@std@@@std@@QEAA?AV?$_Vector_iterator@V?$_Vector_val@U?$_Simple_types@PEAVcheck_client@acl@@@std@@@std@@@2@XZ 0000000180061390 f i check_timer.obj
 0001:000603f0       ?begin@?$vector@PEAVconnect_pool@acl@@V?$allocator@PEAVconnect_pool@acl@@@std@@@std@@QEBA?AV?$_Vector_const_iterator@V?$_Vector_val@U?$_Simple_types@PEAVconnect_pool@acl@@@std@@@std@@@2@XZ 00000001800613f0 f i check_timer.obj
 0001:00060450       ?capacity@?$vector@PEAVcheck_client@acl@@V?$allocator@PEAVcheck_client@acl@@@std@@@std@@QEBA_KXZ 0000000180061450 f i check_timer.obj
 0001:00060480       ?clear@?$_Tree@V?$_Tmap_traits@Vstring@acl@@HU?$less@Vstring@acl@@@std@@V?$allocator@U?$pair@$$CBVstring@acl@@H@std@@@4@$0A@@std@@@std@@QEAAXXZ 0000000180061480 f i check_timer.obj
 0001:00060550       ?construct@?$allocator@PEAVcheck_client@acl@@@std@@QEAAXPEAPEAVcheck_client@acl@@AEBQEAV34@@Z 0000000180061550 f i check_timer.obj
 0001:000605e0       ?deallocate@?$_Wrap_alloc@V?$allocator@PEAVcheck_client@acl@@@std@@@std@@QEAAXPEAPEAVcheck_client@acl@@_K@Z 00000001800615e0 f i check_timer.obj
 0001:00060640       ?deallocate@?$_Wrap_alloc@V?$allocator@U?$_Tree_node@U?$pair@$$CBVstring@acl@@H@std@@PEAX@std@@@std@@@std@@QEAAXPEAU?$_Tree_node@U?$pair@$$CBVstring@acl@@H@std@@PEAX@2@_K@Z 0000000180061640 f i check_timer.obj
 0001:000606a0       ?deallocate@?$allocator@PEAVcheck_client@acl@@@std@@QEAAXPEAPEAVcheck_client@acl@@_K@Z 00000001800616a0 f i check_timer.obj
 0001:000606f0       ?deallocate@?$allocator@U?$_Tree_node@U?$pair@$$CBVstring@acl@@H@std@@PEAX@std@@@std@@QEAAXPEAU?$_Tree_node@U?$pair@$$CBVstring@acl@@H@std@@PEAX@2@_K@Z 00000001800616f0 f i check_timer.obj
 0001:00060740       ?destroy@check_timer@acl@@MEAAXXZ 0000000180061740 f i check_timer.obj
 0001:00060750       ?empty@?$vector@PEAVcheck_client@acl@@V?$allocator@PEAVcheck_client@acl@@@std@@@std@@QEBA_NXZ 0000000180061750 f i check_timer.obj
 0001:000607b0       ?end@?$_Tree@V?$_Tmap_traits@Vstring@acl@@HU?$less@Vstring@acl@@@std@@V?$allocator@U?$pair@$$CBVstring@acl@@H@std@@@4@$0A@@std@@@std@@QEAA?AV?$_Tree_iterator@V?$_Tree_val@U?$_Tree_simple_types@U?$pair@$$CBVstring@acl@@H@std@@@std@@@std@@@2@XZ 00000001800617b0 f i check_timer.obj
 0001:00060810       ?end@?$vector@PEAVcheck_client@acl@@V?$allocator@PEAVcheck_client@acl@@@std@@@std@@QEAA?AV?$_Vector_iterator@V?$_Vector_val@U?$_Simple_types@PEAVcheck_client@acl@@@std@@@std@@@2@XZ 0000000180061810 f i check_timer.obj
 0001:00060870       ?end@?$vector@PEAVconnect_pool@acl@@V?$allocator@PEAVconnect_pool@acl@@@std@@@std@@QEBA?AV?$_Vector_const_iterator@V?$_Vector_val@U?$_Simple_types@PEAVconnect_pool@acl@@@std@@@std@@@2@XZ 0000000180061870 f i check_timer.obj
 0001:000608d0       ?erase@?$_Tree@V?$_Tmap_traits@Vstring@acl@@HU?$less@Vstring@acl@@@std@@V?$allocator@U?$pair@$$CBVstring@acl@@H@std@@@4@$0A@@std@@@std@@QEAA?AV?$_Tree_iterator@V?$_Tree_val@U?$_Tree_simple_types@U?$pair@$$CBVstring@acl@@H@std@@@std@@@std@@@2@V?$_Tree_const_iterator@V?$_Tree_val@U?$_Tree_simple_types@U?$pair@$$CBVstring@acl@@H@std@@@std@@@std@@@2@0@Z 00000001800618d0 f i check_timer.obj
 0001:00060c30       ?erase@?$_Tree@V?$_Tmap_traits@Vstring@acl@@HU?$less@Vstring@acl@@@std@@V?$allocator@U?$pair@$$CBVstring@acl@@H@std@@@4@$0A@@std@@@std@@QEAA?AV?$_Tree_iterator@V?$_Tree_val@U?$_Tree_simple_types@U?$pair@$$CBVstring@acl@@H@std@@@std@@@std@@@2@V?$_Tree_const_iterator@V?$_Tree_val@U?$_Tree_simple_types@U?$pair@$$CBVstring@acl@@H@std@@@std@@@std@@@2@@Z 0000000180061c30 f i check_timer.obj
 0001:00061750       ?erase@?$vector@PEAVcheck_client@acl@@V?$allocator@PEAVcheck_client@acl@@@std@@@std@@QEAA?AV?$_Vector_iterator@V?$_Vector_val@U?$_Simple_types@PEAVcheck_client@acl@@@std@@@std@@@2@V?$_Vector_const_iterator@V?$_Vector_val@U?$_Simple_types@PEAVcheck_client@acl@@@std@@@std@@@2@@Z 0000000180062750 f i check_timer.obj
 0001:00061920       ?find@?$_Tree@V?$_Tmap_traits@Vstring@acl@@HU?$less@Vstring@acl@@@std@@V?$allocator@U?$pair@$$CBVstring@acl@@H@std@@@4@$0A@@std@@@std@@QEAA?AV?$_Tree_iterator@V?$_Tree_val@U?$_Tree_simple_types@U?$pair@$$CBVstring@acl@@H@std@@@std@@@std@@@2@AEBVstring@acl@@@Z 0000000180062920 f i check_timer.obj
 0001:00061c50       ?lower_bound@?$_Tree@V?$_Tmap_traits@Vstring@acl@@HU?$less@Vstring@acl@@@std@@V?$allocator@U?$pair@$$CBVstring@acl@@H@std@@@4@$0A@@std@@@std@@QEAA?AV?$_Tree_iterator@V?$_Tree_val@U?$_Tree_simple_types@U?$pair@$$CBVstring@acl@@H@std@@@std@@@std@@@2@AEBVstring@acl@@@Z 0000000180062c50 f i check_timer.obj
 0001:00061cd0       ?max_size@?$_Tree@V?$_Tmap_traits@Vstring@acl@@HU?$less@Vstring@acl@@@std@@V?$allocator@U?$pair@$$CBVstring@acl@@H@std@@@4@$0A@@std@@@std@@QEBA_KXZ 0000000180062cd0 f i check_timer.obj
 0001:00061d20       ?max_size@?$_Wrap_alloc@V?$allocator@PEAVcheck_client@acl@@@std@@@std@@QEBA_KXZ 0000000180062d20 f i check_timer.obj
 0001:00061d60       ?max_size@?$_Wrap_alloc@V?$allocator@U?$_Tree_node@U?$pair@$$CBVstring@acl@@H@std@@PEAX@std@@@std@@@std@@QEBA_KXZ 0000000180062d60 f i check_timer.obj
 0001:00061da0       ?max_size@?$allocator@PEAVcheck_client@acl@@@std@@QEBA_KXZ 0000000180062da0 f i check_timer.obj
 0001:00061dc0       ?max_size@?$allocator@U?$_Tree_node@U?$pair@$$CBVstring@acl@@H@std@@PEAX@std@@@std@@QEBA_KXZ 0000000180062dc0 f i check_timer.obj
 0001:00061de0       ?max_size@?$allocator_traits@V?$allocator@PEAVcheck_client@acl@@@std@@@std@@SA_KAEBV?$allocator@PEAVcheck_client@acl@@@2@@Z 0000000180062de0 f i check_timer.obj
 0001:00061e20       ?max_size@?$allocator_traits@V?$allocator@U?$_Tree_node@U?$pair@$$CBVstring@acl@@H@std@@PEAX@std@@@std@@@std@@SA_KAEBV?$allocator@U?$_Tree_node@U?$pair@$$CBVstring@acl@@H@std@@PEAX@std@@@2@@Z 0000000180062e20 f i check_timer.obj
 0001:00061e60       ?max_size@?$vector@PEAVcheck_client@acl@@V?$allocator@PEAVcheck_client@acl@@@std@@@std@@QEBA_KXZ 0000000180062e60 f i check_timer.obj
 0001:00061eb0       ?pointer_to@?$pointer_traits@PEAU?$pair@$$CBVstring@acl@@H@std@@@std@@SAPEAU?$pair@$$CBVstring@acl@@H@2@AEAU32@@Z 0000000180062eb0 f i check_timer.obj
 0001:00061ef0       ?push_back@?$vector@PEAVcheck_client@acl@@V?$allocator@PEAVcheck_client@acl@@@std@@@std@@QEAAXAEBQEAVcheck_client@acl@@@Z 0000000180062ef0 f i check_timer.obj
 0001:000620d0       ?size@?$_Tree@V?$_Tmap_traits@Vstring@acl@@HU?$less@Vstring@acl@@@std@@V?$allocator@U?$pair@$$CBVstring@acl@@H@std@@@4@$0A@@std@@@std@@QEBA_KXZ 00000001800630d0 f i check_timer.obj
 0001:000620f0       ?size@?$vector@PEAVcheck_client@acl@@V?$allocator@PEAVcheck_client@acl@@@std@@@std@@QEBA_KXZ 00000001800630f0 f i check_timer.obj
 0001:00062120       ??0connect_manager@acl@@QEAA@XZ 0000000180063120 f   connect_manager.obj
 0001:00062230       ??1connect_manager@acl@@UEAA@XZ 0000000180063230 f   connect_manager.obj
 0001:00062520       ?bind_thread@connect_manager@acl@@QEAAX_N@Z 0000000180063520 f   connect_manager.obj
 0001:00062540       ?init@connect_manager@acl@@QEAAXPEBD0_KHH@Z 0000000180063540 f   connect_manager.obj
 0001:000626d0       ?set@connect_manager@acl@@QEAAXPEBD_KHH@Z 00000001800636d0 f   connect_manager.obj
 0001:000628e0       ?set_retry_inter@connect_manager@acl@@QEAAXH@Z 00000001800638e0 f   connect_manager.obj
 0001:00062b00       ?set_idle_ttl@connect_manager@acl@@QEAAX_J@Z 0000000180063b00 f   connect_manager.obj
 0001:00062b30       ?set_check_inter@connect_manager@acl@@QEAAXH@Z 0000000180063b30 f   connect_manager.obj
 0001:00062b60       ?remove@connect_manager@acl@@QEAAXPEBD@Z 0000000180063b60 f   connect_manager.obj
 0001:00062cf0       ?get@connect_manager@acl@@QEAAPEAVconnect_pool@2@PEBD_N1@Z 0000000180063cf0 f   connect_manager.obj
 0001:000631a0       ?peek@connect_manager@acl@@UEAAPEAVconnect_pool@2@XZ 00000001800641a0 f   connect_manager.obj
 0001:000633e0       ?peek@connect_manager@acl@@UEAAPEAVconnect_pool@2@PEBD_N@Z 00000001800643e0 f   connect_manager.obj
 0001:000635a0       ?lock@connect_manager@acl@@QEAAXXZ 00000001800645a0 f   connect_manager.obj
 0001:000635e0       ?unlock@connect_manager@acl@@QEAAXXZ 00000001800645e0 f   connect_manager.obj
 0001:00063620       ?get_pools@connect_manager@acl@@QEAAAEAV?$vector@PEAVconnect_pool@acl@@V?$allocator@PEAVconnect_pool@acl@@@std@@@std@@XZ 0000000180064620 f   connect_manager.obj
 0001:000636c0       ?check_idle@connect_manager@acl@@QEAA_K_KPEA_K@Z 00000001800646c0 f   connect_manager.obj
 0001:00063900       ?size@connect_manager@acl@@QEBA_KXZ 0000000180064900 f   connect_manager.obj
 0001:00063a50       ?statistics@connect_manager@acl@@QEAAXXZ 0000000180064a50 f   connect_manager.obj
 0001:00063c30       ?start_monitor@connect_manager@acl@@QEAA_NPEAVconnect_monitor@2@@Z 0000000180064c30 f   connect_manager.obj
 0001:00063cd0       ?stop_monitor@connect_manager@acl@@QEAAPEAVconnect_monitor@2@_N@Z 0000000180064cd0 f   connect_manager.obj
 0001:00063d50       ?set_pools_status@connect_manager@acl@@QEAAXPEBD_N@Z 0000000180064d50 f   connect_manager.obj
 0001:00063ed0       ?set_service_list@connect_manager@acl@@IEAAXPEBDHHH@Z 0000000180064ed0 f   connect_manager.obj
 0001:00064140       ?get_pools_by_id@connect_manager@acl@@IEAAAEAUconns_pools@2@K@Z 0000000180065140 f   connect_manager.obj
 0001:000643b0       ?create_pool@connect_manager@acl@@IEAAPEAVconnect_pool@2@AEBUconn_config@12@_K@Z 00000001800653b0 f   connect_manager.obj
 0001:000645c0       ?create_pools_for@connect_manager@acl@@IEAAXAEAV?$vector@PEAVconnect_pool@acl@@V?$allocator@PEAVconnect_pool@acl@@@std@@@std@@@Z 00000001800655c0 f   connect_manager.obj
 0001:00064740       ?remove@connect_manager@acl@@IEAAXAEAV?$vector@PEAVconnect_pool@acl@@V?$allocator@PEAVconnect_pool@acl@@@std@@@std@@PEBD@Z 0000000180065740 f   connect_manager.obj
 0001:00064900       ?set_status@connect_manager@acl@@IEAAXAEAV?$vector@PEAVconnect_pool@acl@@V?$allocator@PEAVconnect_pool@acl@@@std@@@std@@PEBD_N@Z 0000000180065900 f   connect_manager.obj
 0001:00064aa0       ?get_id@connect_manager@acl@@IEBAKXZ 0000000180065aa0 f   connect_manager.obj
 0001:00064af0       ?get_key@connect_manager@acl@@IEAAXPEBDAEAVstring@2@@Z 0000000180065af0 f   connect_manager.obj
 0001:00064b40       ?get_addr@connect_manager@acl@@IEAAXPEBDAEAVstring@2@@Z 0000000180065b40 f   connect_manager.obj
 0001:00064b90       ?thread_oninit@connect_manager@acl@@KAXXZ 0000000180065b90 f   connect_manager.obj
 0001:00064c40       ?thread_onexit@connect_manager@acl@@KAXPEAX@Z 0000000180065c40 f   connect_manager.obj
 0001:00065ce0       ??$?0AEAV?$_Tree_iterator@V?$_Tree_val@U?$_Tree_simple_types@U?$pair@$$CBKPEAUconns_pools@acl@@@std@@@std@@@std@@@std@@_NX@?$pair@V?$_Tree_iterator@V?$_Tree_val@U?$_Tree_simple_types@U?$pair@$$CBKPEAUconns_pools@acl@@@std@@@std@@@std@@@std@@_N@std@@QEAA@AEAV?$_Tree_iterator@V?$_Tree_val@U?$_Tree_simple_types@U?$pair@$$CBKPEAUconns_pools@acl@@@std@@@std@@@std@@@1@$$QEA_N@Z 0000000180066ce0 f i connect_manager.obj
 0001:00065d70       ??$?0AEAV?$_Tree_iterator@V?$_Tree_val@U?$_Tree_simple_types@U?$pair@$$CBVstring@acl@@Uconn_config@connect_manager@2@@std@@@std@@@std@@@std@@_NX@?$pair@V?$_Tree_iterator@V?$_Tree_val@U?$_Tree_simple_types@U?$pair@$$CBVstring@acl@@Uconn_config@connect_manager@2@@std@@@std@@@std@@@std@@_N@std@@QEAA@AEAV?$_Tree_iterator@V?$_Tree_val@U?$_Tree_simple_types@U?$pair@$$CBVstring@acl@@Uconn_config@connect_manager@2@@std@@@std@@@std@@@1@$$QEA_N@Z 0000000180066d70 f i connect_manager.obj
 0001:00065e00       ??$?0AEBK$$$V@?$pair@$$CBKPEAUconns_pools@acl@@@std@@QEAA@Upiecewise_construct_t@1@V?$tuple@AEBK@1@V?$tuple@$$$V@1@@Z 0000000180066e00 f i connect_manager.obj
 0001:00065ea0       ??$?0AEBK@?$_Tuple_val@AEBK@std@@QEAA@AEBK@Z 0000000180066ea0 f i connect_manager.obj
 0001:00065ef0       ??$?0AEBKPEAPEAX@?$tuple@AEBK@std@@QEAA@$$QEAV01@@Z 0000000180066ef0 f i connect_manager.obj
 0001:00065f70       ??$?0AEBVstring@acl@@$$$V@?$pair@$$CBVstring@acl@@Uconn_config@connect_manager@2@@std@@QEAA@Upiecewise_construct_t@1@V?$tuple@AEBVstring@acl@@@1@V?$tuple@$$$V@1@@Z 0000000180066f70 f i connect_manager.obj
 0001:00066010       ??$?0AEBVstring@acl@@@?$_Tuple_val@AEBVstring@acl@@@std@@QEAA@AEBVstring@acl@@@Z 0000000180067010 f i connect_manager.obj
 0001:00066060       ??$?0AEBVstring@acl@@PEAPEAX@?$tuple@AEBVstring@acl@@@std@@QEAA@$$QEAV01@@Z 0000000180067060 f i connect_manager.obj
 0001:000660e0       ??$?0U?$_Tree_node@U?$pair@$$CBKPEAUconns_pools@acl@@@std@@PEAX@std@@@?$allocator@U_Container_proxy@std@@@std@@QEAA@AEBV?$allocator@U?$_Tree_node@U?$pair@$$CBKPEAUconns_pools@acl@@@std@@PEAX@std@@@1@@Z 00000001800670e0 f i connect_manager.obj
 0001:00066100       ??$?0U?$_Tree_node@U?$pair@$$CBVstring@acl@@Uconn_config@connect_manager@2@@std@@PEAX@std@@@?$allocator@U_Container_proxy@std@@@std@@QEAA@AEBV?$allocator@U?$_Tree_node@U?$pair@$$CBVstring@acl@@Uconn_config@connect_manager@2@@std@@PEAX@std@@@1@@Z 0000000180067100 f i connect_manager.obj
 0001:00066120       ??$?0U?$_Wrap_alloc@V?$allocator@U?$_Tree_node@U?$pair@$$CBKPEAUconns_pools@acl@@@std@@PEAX@std@@@std@@@std@@@?$_Wrap_alloc@V?$allocator@U_Container_proxy@std@@@std@@@std@@QEAA@AEBU?$_Wrap_alloc@V?$allocator@U?$_Tree_node@U?$pair@$$CBKPEAUconns_pools@acl@@@std@@PEAX@std@@@std@@@1@@Z 0000000180067120 f i connect_manager.obj
 0001:00066170       ??$?0U?$_Wrap_alloc@V?$allocator@U?$_Tree_node@U?$pair@$$CBVstring@acl@@Uconn_config@connect_manager@2@@std@@PEAX@std@@@std@@@std@@@?$_Wrap_alloc@V?$allocator@U_Container_proxy@std@@@std@@@std@@QEAA@AEBU?$_Wrap_alloc@V?$allocator@U?$_Tree_node@U?$pair@$$CBVstring@acl@@Uconn_config@connect_manager@2@@std@@PEAX@std@@@std@@@1@@Z 0000000180067170 f i connect_manager.obj
 0001:000661c0       ??$?0V?$_Tree_iterator@V?$_Tree_val@U?$_Tree_simple_types@U?$pair@$$CBKPEAUconns_pools@acl@@@std@@@std@@@std@@@std@@_NX@?$pair@V?$_Tree_iterator@V?$_Tree_val@U?$_Tree_simple_types@U?$pair@$$CBKPEAUconns_pools@acl@@@std@@@std@@@std@@@std@@_N@std@@QEAA@$$QEAV?$_Tree_iterator@V?$_Tree_val@U?$_Tree_simple_types@U?$pair@$$CBKPEAUconns_pools@acl@@@std@@@std@@@std@@@1@$$QEA_N@Z 00000001800671c0 f i connect_manager.obj
 0001:00066250       ??$?0V?$_Tree_iterator@V?$_Tree_val@U?$_Tree_simple_types@U?$pair@$$CBVstring@acl@@Uconn_config@connect_manager@2@@std@@@std@@@std@@@std@@_NX@?$pair@V?$_Tree_iterator@V?$_Tree_val@U?$_Tree_simple_types@U?$pair@$$CBVstring@acl@@Uconn_config@connect_manager@2@@std@@@std@@@std@@@std@@_N@std@@QEAA@$$QEAV?$_Tree_iterator@V?$_Tree_val@U?$_Tree_simple_types@U?$pair@$$CBVstring@acl@@Uconn_config@connect_manager@2@@std@@@std@@@std@@@1@$$QEA_N@Z 0000000180067250 f i connect_manager.obj
 0001:000662e0       ??$?0V?$tuple@AEBK@std@@V?$tuple@$$$V@1@$0A@$S@?$pair@$$CBKPEAUconns_pools@acl@@@std@@QEAA@AEAV?$tuple@AEBK@1@AEAV?$tuple@$$$V@1@U?$_Arg_idx@$0A@@1@U?$_Arg_idx@$S@1@@Z 00000001800672e0 f i connect_manager.obj
 0001:00066360       ??$?0V?$tuple@AEBVstring@acl@@@std@@V?$tuple@$$$V@1@$0A@$S@?$pair@$$CBVstring@acl@@Uconn_config@connect_manager@2@@std@@QEAA@AEAV?$tuple@AEBVstring@acl@@@1@AEAV?$tuple@$$$V@1@U?$_Arg_idx@$0A@@1@U?$_Arg_idx@$S@1@@Z 0000000180067360 f i connect_manager.obj
 0001:000663f0       ??$_Allocate@PEAVconnect_pool@acl@@@std@@YAPEAPEAVconnect_pool@acl@@_KPEAPEAV12@@Z 00000001800673f0 f i connect_manager.obj
 0001:00066490       ??$_Allocate@U?$_Tree_node@U?$pair@$$CBKPEAUconns_pools@acl@@@std@@PEAX@std@@@std@@YAPEAU?$_Tree_node@U?$pair@$$CBKPEAUconns_pools@acl@@@std@@PEAX@0@_KPEAU10@@Z 0000000180067490 f i connect_manager.obj
 0001:00066520       ??$_Allocate@U?$_Tree_node@U?$pair@$$CBVstring@acl@@Uconn_config@connect_manager@2@@std@@PEAX@std@@@std@@YAPEAU?$_Tree_node@U?$pair@$$CBVstring@acl@@Uconn_config@connect_manager@2@@std@@PEAX@0@_KPEAU10@@Z 0000000180067520 f i connect_manager.obj
 0001:000665c0       ??$_Buynode@AEBUpiecewise_construct_t@std@@V?$tuple@AEBK@2@V?$tuple@$$$V@2@@?$_Tree_buy@U?$pair@$$CBKPEAUconns_pools@acl@@@std@@V?$allocator@U?$pair@$$CBKPEAUconns_pools@acl@@@std@@@2@@std@@QEAAPEAU?$_Tree_node@U?$pair@$$CBKPEAUconns_pools@acl@@@std@@PEAX@1@AEBUpiecewise_construct_t@1@$$QEAV?$tuple@AEBK@1@$$QEAV?$tuple@$$$V@1@@Z 00000001800675c0 f i connect_manager.obj
 0001:00066700       ??$_Buynode@AEBUpiecewise_construct_t@std@@V?$tuple@AEBVstring@acl@@@2@V?$tuple@$$$V@2@@?$_Tree_buy@U?$pair@$$CBVstring@acl@@Uconn_config@connect_manager@2@@std@@V?$allocator@U?$pair@$$CBVstring@acl@@Uconn_config@connect_manager@2@@std@@@2@@std@@QEAAPEAU?$_Tree_node@U?$pair@$$CBVstring@acl@@Uconn_config@connect_manager@2@@std@@PEAX@1@AEBUpiecewise_construct_t@1@$$QEAV?$tuple@AEBVstring@acl@@@1@$$QEAV?$tuple@$$$V@1@@Z 0000000180067700 f i connect_manager.obj
 0001:00066840       ??$_Buynode_if_nil@AEAU?$pair@$$CBKPEAUconns_pools@acl@@@std@@@?$_Tree@V?$_Tmap_traits@KPEAUconns_pools@acl@@U?$less@K@std@@V?$allocator@U?$pair@$$CBKPEAUconns_pools@acl@@@std@@@4@$0A@@std@@@std@@IEAAPEAU?$_Tree_node@U?$pair@$$CBKPEAUconns_pools@acl@@@std@@PEAX@1@PEAU21@AEAU?$pair@$$CBKPEAUconns_pools@acl@@@1@@Z 0000000180067840 f i connect_manager.obj
 0001:00066860       ??$_Buynode_if_nil@AEAU?$pair@$$CBVstring@acl@@Uconn_config@connect_manager@2@@std@@@?$_Tree@V?$_Tmap_traits@Vstring@acl@@Uconn_config@connect_manager@2@U?$less@Vstring@acl@@@std@@V?$allocator@U?$pair@$$CBVstring@acl@@Uconn_config@connect_manager@2@@std@@@6@$0A@@std@@@std@@IEAAPEAU?$_Tree_node@U?$pair@$$CBVstring@acl@@Uconn_config@connect_manager@2@@std@@PEAX@1@PEAU21@AEAU?$pair@$$CBVstring@acl@@Uconn_config@connect_manager@2@@1@@Z 0000000180067860 f i connect_manager.obj
 0001:00066880       ??$_Debug_lt_pred@U?$less@K@std@@AEBKAEBK@std@@YA_NU?$less@K@0@AEBK1PEB_WI@Z 0000000180067880 f i connect_manager.obj
 0001:00066970       ??$_Debug_pointer@PEAVconnect_pool@acl@@@std@@YAXPEAPEAVconnect_pool@acl@@PEB_WI@Z 0000000180067970 f i connect_manager.obj
 0001:000669d0       ??$_Debug_range2@PEAPEAVconnect_pool@acl@@@std@@YAXPEAPEAVconnect_pool@acl@@0PEB_WIUrandom_access_iterator_tag@0@@Z 00000001800679d0 f i connect_manager.obj
 0001:00066a80       ??$_Debug_range@PEAPEAVconnect_pool@acl@@@std@@YAXPEAPEAVconnect_pool@acl@@0PEB_WI@Z 0000000180067a80 f i connect_manager.obj
 0001:00066b00       ??$_Destroy_range@U?$_Wrap_alloc@V?$allocator@PEAVconnect_pool@acl@@@std@@@std@@@std@@YAXPEAPEAVconnect_pool@acl@@0AEAU?$_Wrap_alloc@V?$allocator@PEAVconnect_pool@acl@@@std@@@0@@Z 0000000180067b00 f i connect_manager.obj
 0001:00066b80       ??$_Destroy_range@U?$_Wrap_alloc@V?$allocator@PEAVconnect_pool@acl@@@std@@@std@@@std@@YAXPEAPEAVconnect_pool@acl@@0AEAU?$_Wrap_alloc@V?$allocator@PEAVconnect_pool@acl@@@std@@@0@U_Scalar_ptr_iterator_tag@0@@Z 0000000180067b80 f i connect_manager.obj
 0001:00066ba0       ??$_Insert_at@AEAU?$pair@$$CBKPEAUconns_pools@acl@@@std@@PEAU?$_Tree_node@U?$pair@$$CBKPEAUconns_pools@acl@@@std@@PEAX@2@@?$_Tree@V?$_Tmap_traits@KPEAUconns_pools@acl@@U?$less@K@std@@V?$allocator@U?$pair@$$CBKPEAUconns_pools@acl@@@std@@@4@$0A@@std@@@std@@IEAA?AV?$_Tree_iterator@V?$_Tree_val@U?$_Tree_simple_types@U?$pair@$$CBKPEAUconns_pools@acl@@@std@@@std@@@std@@@1@_NPEAU?$_Tree_node@U?$pair@$$CBKPEAUconns_pools@acl@@@std@@PEAX@1@AEAU?$pair@$$CBKPEAUconns_pools@acl@@@1@1@Z 0000000180067ba0 f i connect_manager.obj
 0001:00067110       ??$_Insert_at@AEAU?$pair@$$CBVstring@acl@@Uconn_config@connect_manager@2@@std@@PEAU?$_Tree_node@U?$pair@$$CBVstring@acl@@Uconn_config@connect_manager@2@@std@@PEAX@2@@?$_Tree@V?$_Tmap_traits@Vstring@acl@@Uconn_config@connect_manager@2@U?$less@Vstring@acl@@@std@@V?$allocator@U?$pair@$$CBVstring@acl@@Uconn_config@connect_manager@2@@std@@@6@$0A@@std@@@std@@IEAA?AV?$_Tree_iterator@V?$_Tree_val@U?$_Tree_simple_types@U?$pair@$$CBVstring@acl@@Uconn_config@connect_manager@2@@std@@@std@@@std@@@1@_NPEAU?$_Tree_node@U?$pair@$$CBVstring@acl@@Uconn_config@connect_manager@2@@std@@PEAX@1@AEAU?$pair@$$CBVstring@acl@@Uconn_config@connect_manager@2@@1@1@Z 0000000180068110 f i connect_manager.obj
 0001:00067680       ??$_Insert_hint@AEAU?$pair@$$CBKPEAUconns_pools@acl@@@std@@PEAU?$_Tree_node@U?$pair@$$CBKPEAUconns_pools@acl@@@std@@PEAX@2@@?$_Tree@V?$_Tmap_traits@KPEAUconns_pools@acl@@U?$less@K@std@@V?$allocator@U?$pair@$$CBKPEAUconns_pools@acl@@@std@@@4@$0A@@std@@@std@@IEAA?AV?$_Tree_iterator@V?$_Tree_val@U?$_Tree_simple_types@U?$pair@$$CBKPEAUconns_pools@acl@@@std@@@std@@@std@@@1@V?$_Tree_const_iterator@V?$_Tree_val@U?$_Tree_simple_types@U?$pair@$$CBKPEAUconns_pools@acl@@@std@@@std@@@std@@@1@AEAU?$pair@$$CBKPEAUconns_pools@acl@@@1@PEAU?$_Tree_node@U?$pair@$$CBKPEAUconns_pools@acl@@@std@@PEAX@1@@Z 0000000180068680 f i connect_manager.obj
 0001:00069370       ??$_Insert_hint@AEAU?$pair@$$CBVstring@acl@@Uconn_config@connect_manager@2@@std@@PEAU?$_Tree_node@U?$pair@$$CBVstring@acl@@Uconn_config@connect_manager@2@@std@@PEAX@2@@?$_Tree@V?$_Tmap_traits@Vstring@acl@@Uconn_config@connect_manager@2@U?$less@Vstring@acl@@@std@@V?$allocator@U?$pair@$$CBVstring@acl@@Uconn_config@connect_manager@2@@std@@@6@$0A@@std@@@std@@IEAA?AV?$_Tree_iterator@V?$_Tree_val@U?$_Tree_simple_types@U?$pair@$$CBVstring@acl@@Uconn_config@connect_manager@2@@std@@@std@@@std@@@1@V?$_Tree_const_iterator@V?$_Tree_val@U?$_Tree_simple_types@U?$pair@$$CBVstring@acl@@Uconn_config@connect_manager@2@@std@@@std@@@std@@@1@AEAU?$pair@$$CBVstring@acl@@Uconn_config@connect_manager@2@@1@PEAU?$_Tree_node@U?$pair@$$CBVstring@acl@@Uconn_config@connect_manager@2@@std@@PEAX@1@@Z 000000018006a370 f i connect_manager.obj
 0001:0006b060       ??$_Insert_nohint@AEAU?$pair@$$CBKPEAUconns_pools@acl@@@std@@PEAU?$_Tree_node@U?$pair@$$CBKPEAUconns_pools@acl@@@std@@PEAX@2@@?$_Tree@V?$_Tmap_traits@KPEAUconns_pools@acl@@U?$less@K@std@@V?$allocator@U?$pair@$$CBKPEAUconns_pools@acl@@@std@@@4@$0A@@std@@@std@@IEAA?AU?$pair@V?$_Tree_iterator@V?$_Tree_val@U?$_Tree_simple_types@U?$pair@$$CBKPEAUconns_pools@acl@@@std@@@std@@@std@@@std@@_N@1@_NAEAU?$pair@$$CBKPEAUconns_pools@acl@@@1@PEAU?$_Tree_node@U?$pair@$$CBKPEAUconns_pools@acl@@@std@@PEAX@1@@Z 000000018006c060 f i connect_manager.obj
 0001:0006b8a0       ??$_Insert_nohint@AEAU?$pair@$$CBVstring@acl@@Uconn_config@connect_manager@2@@std@@PEAU?$_Tree_node@U?$pair@$$CBVstring@acl@@Uconn_config@connect_manager@2@@std@@PEAX@2@@?$_Tree@V?$_Tmap_traits@Vstring@acl@@Uconn_config@connect_manager@2@U?$less@Vstring@acl@@@std@@V?$allocator@U?$pair@$$CBVstring@acl@@Uconn_config@connect_manager@2@@std@@@6@$0A@@std@@@std@@IEAA?AU?$pair@V?$_Tree_iterator@V?$_Tree_val@U?$_Tree_simple_types@U?$pair@$$CBVstring@acl@@Uconn_config@connect_manager@2@@std@@@std@@@std@@@std@@_N@1@_NAEAU?$pair@$$CBVstring@acl@@Uconn_config@connect_manager@2@@1@PEAU?$_Tree_node@U?$pair@$$CBVstring@acl@@Uconn_config@connect_manager@2@@std@@PEAX@1@@Z 000000018006c8a0 f i connect_manager.obj
 0001:0006c0e0       ??$_Iter_cat@PEAPEAVconnect_pool@acl@@@std@@YA?AUrandom_access_iterator_tag@0@AEBQEAPEAVconnect_pool@acl@@@Z 000000018006d0e0 f i connect_manager.obj
 0001:0006c150       ??$_Kfn@$$CBKPEAUconns_pools@acl@@@?$_Tmap_traits@KPEAUconns_pools@acl@@U?$less@K@std@@V?$allocator@U?$pair@$$CBKPEAUconns_pools@acl@@@std@@@4@$0A@@std@@SAAEBKAEBU?$pair@$$CBKPEAUconns_pools@acl@@@1@@Z 000000018006d150 f i connect_manager.obj
 0001:0006c160       ??$_Kfn@$$CBVstring@acl@@Uconn_config@connect_manager@2@@?$_Tmap_traits@Vstring@acl@@Uconn_config@connect_manager@2@U?$less@Vstring@acl@@@std@@V?$allocator@U?$pair@$$CBVstring@acl@@Uconn_config@connect_manager@2@@std@@@6@$0A@@std@@SAAEBVstring@acl@@AEBU?$pair@$$CBVstring@acl@@Uconn_config@connect_manager@2@@1@@Z 000000018006d160 f i connect_manager.obj
 0001:0006c170       ??$_Move@PEAPEAVconnect_pool@acl@@PEAPEAV12@@std@@YAPEAPEAVconnect_pool@acl@@PEAPEAV12@00@Z 000000018006d170 f i connect_manager.obj
 0001:0006c1f0       ??$_Move@PEAPEAVconnect_pool@acl@@PEAPEAV12@@std@@YAPEAPEAVconnect_pool@acl@@PEAPEAV12@00U_Scalar_ptr_iterator_tag@0@@Z 000000018006d1f0 f i connect_manager.obj
 0001:0006c290       ??$_Ptr_cat@PEAVconnect_pool@acl@@PEAV12@@std@@YA?AU_Scalar_ptr_iterator_tag@0@PEAPEAVconnect_pool@acl@@0@Z 000000018006d290 f i connect_manager.obj
 0001:0006c2f0       ??$_Rechecked@PEAPEAVconnect_pool@acl@@PEAPEAV12@@std@@YAAEAPEAPEAVconnect_pool@acl@@AEAPEAPEAV12@PEAPEAV12@@Z 000000018006d2f0 f i connect_manager.obj
 0001:0006c320       ??$_Umove@PEAPEAVconnect_pool@acl@@@?$vector@PEAVconnect_pool@acl@@V?$allocator@PEAVconnect_pool@acl@@@std@@@std@@IEAAPEAPEAVconnect_pool@acl@@PEAPEAV23@00@Z 000000018006d320 f i connect_manager.obj
 0001:0006c3b0       ??$_Unchecked@PEAPEAVconnect_pool@acl@@@std@@YAPEAPEAVconnect_pool@acl@@PEAPEAV12@@Z 000000018006d3b0 f i connect_manager.obj
 0001:0006c3c0       ??$_Uninit_move@PEAPEAVconnect_pool@acl@@PEAPEAV12@U?$_Wrap_alloc@V?$allocator@PEAVconnect_pool@acl@@@std@@@std@@@std@@YAPEAPEAVconnect_pool@acl@@PEAPEAV12@00AEAU?$_Wrap_alloc@V?$allocator@PEAVconnect_pool@acl@@@std@@@0@@Z 000000018006d3c0 f i connect_manager.obj
 0001:0006c460       ??$_Uninit_move@PEAVconnect_pool@acl@@PEAV12@PEAV12@@std@@YAPEAPEAVconnect_pool@acl@@PEAPEAV12@00AEAU?$_Wrap_alloc@V?$allocator@PEAVconnect_pool@acl@@@std@@@0@0U_Scalar_ptr_iterator_tag@0@@Z 000000018006d460 f i connect_manager.obj
 0001:0006c530       ??$_Uninitialized_move@PEAPEAVconnect_pool@acl@@PEAPEAV12@U?$_Wrap_alloc@V?$allocator@PEAVconnect_pool@acl@@@std@@@std@@@std@@YAPEAPEAVconnect_pool@acl@@PEAPEAV12@00AEAU?$_Wrap_alloc@V?$allocator@PEAVconnect_pool@acl@@@std@@@0@@Z 000000018006d530 f i connect_manager.obj
 0001:0006c5e0       ??$_Val_type@PEAPEAVconnect_pool@acl@@@std@@YAPEAPEAVconnect_pool@acl@@PEAPEAV12@@Z 000000018006d5e0 f i connect_manager.obj
 0001:0006c5f0       ??$addressof@$$CBU?$pair@$$CBKPEAUconns_pools@acl@@@std@@@std@@YAPEBU?$pair@$$CBKPEAUconns_pools@acl@@@0@AEBU10@@Z 000000018006d5f0 f i connect_manager.obj
 0001:0006c600       ??$addressof@$$CBU?$pair@$$CBVstring@acl@@Uconn_config@connect_manager@2@@std@@@std@@YAPEBU?$pair@$$CBVstring@acl@@Uconn_config@connect_manager@2@@0@AEBU10@@Z 000000018006d600 f i connect_manager.obj
 0001:0006c610       ??$addressof@PEAU?$_Tree_node@U?$pair@$$CBKPEAUconns_pools@acl@@@std@@PEAX@std@@@std@@YAPEAPEAU?$_Tree_node@U?$pair@$$CBKPEAUconns_pools@acl@@@std@@PEAX@0@AEAPEAU10@@Z 000000018006d610 f i connect_manager.obj
 0001:0006c620       ??$addressof@PEAU?$_Tree_node@U?$pair@$$CBVstring@acl@@Uconn_config@connect_manager@2@@std@@PEAX@std@@@std@@YAPEAPEAU?$_Tree_node@U?$pair@$$CBVstring@acl@@Uconn_config@connect_manager@2@@std@@PEAX@0@AEAPEAU10@@Z 000000018006d620 f i connect_manager.obj
 0001:0006c630       ??$addressof@QEAVconnect_pool@acl@@@std@@YAPEBQEAVconnect_pool@acl@@AEBQEAV12@@Z 000000018006d630 f i connect_manager.obj
 0001:0006c640       ??$addressof@U?$pair@$$CBKPEAUconns_pools@acl@@@std@@@std@@YAPEAU?$pair@$$CBKPEAUconns_pools@acl@@@0@AEAU10@@Z 000000018006d640 f i connect_manager.obj
 0001:0006c650       ??$addressof@U?$pair@$$CBVstring@acl@@Uconn_config@connect_manager@2@@std@@@std@@YAPEAU?$pair@$$CBVstring@acl@@Uconn_config@connect_manager@2@@0@AEAU10@@Z 000000018006d650 f i connect_manager.obj
 0001:0006c660       ??$construct@PEAU?$_Tree_node@U?$pair@$$CBKPEAUconns_pools@acl@@@std@@PEAX@std@@AEAPEAU12@@?$_Wrap_alloc@V?$allocator@U?$_Tree_node@U?$pair@$$CBKPEAUconns_pools@acl@@@std@@PEAX@std@@@std@@@std@@QEAAXPEAPEAU?$_Tree_node@U?$pair@$$CBKPEAUconns_pools@acl@@@std@@PEAX@1@AEAPEAU21@@Z 000000018006d660 f i connect_manager.obj
 0001:0006c6c0       ??$construct@PEAU?$_Tree_node@U?$pair@$$CBKPEAUconns_pools@acl@@@std@@PEAX@std@@AEAPEAU12@@?$allocator@U?$_Tree_node@U?$pair@$$CBKPEAUconns_pools@acl@@@std@@PEAX@std@@@std@@QEAAXPEAPEAU?$_Tree_node@U?$pair@$$CBKPEAUconns_pools@acl@@@std@@PEAX@1@AEAPEAU21@@Z 000000018006d6c0 f i connect_manager.obj
 0001:0006c770       ??$construct@PEAU?$_Tree_node@U?$pair@$$CBKPEAUconns_pools@acl@@@std@@PEAX@std@@AEAPEAU12@@?$allocator_traits@V?$allocator@U?$_Tree_node@U?$pair@$$CBKPEAUconns_pools@acl@@@std@@PEAX@std@@@std@@@std@@SAXAEAV?$allocator@U?$_Tree_node@U?$pair@$$CBKPEAUconns_pools@acl@@@std@@PEAX@std@@@1@PEAPEAU?$_Tree_node@U?$pair@$$CBKPEAUconns_pools@acl@@@std@@PEAX@1@AEAPEAU31@@Z 000000018006d770 f i connect_manager.obj
 0001:0006c7d0       ??$construct@PEAU?$_Tree_node@U?$pair@$$CBVstring@acl@@Uconn_config@connect_manager@2@@std@@PEAX@std@@AEAPEAU12@@?$_Wrap_alloc@V?$allocator@U?$_Tree_node@U?$pair@$$CBVstring@acl@@Uconn_config@connect_manager@2@@std@@PEAX@std@@@std@@@std@@QEAAXPEAPEAU?$_Tree_node@U?$pair@$$CBVstring@acl@@Uconn_config@connect_manager@2@@std@@PEAX@1@AEAPEAU21@@Z 000000018006d7d0 f i connect_manager.obj
 0001:0006c830       ??$construct@PEAU?$_Tree_node@U?$pair@$$CBVstring@acl@@Uconn_config@connect_manager@2@@std@@PEAX@std@@AEAPEAU12@@?$allocator@U?$_Tree_node@U?$pair@$$CBVstring@acl@@Uconn_config@connect_manager@2@@std@@PEAX@std@@@std@@QEAAXPEAPEAU?$_Tree_node@U?$pair@$$CBVstring@acl@@Uconn_config@connect_manager@2@@std@@PEAX@1@AEAPEAU21@@Z 000000018006d830 f i connect_manager.obj
 0001:0006c8e0       ??$construct@PEAU?$_Tree_node@U?$pair@$$CBVstring@acl@@Uconn_config@connect_manager@2@@std@@PEAX@std@@AEAPEAU12@@?$allocator_traits@V?$allocator@U?$_Tree_node@U?$pair@$$CBVstring@acl@@Uconn_config@connect_manager@2@@std@@PEAX@std@@@std@@@std@@SAXAEAV?$allocator@U?$_Tree_node@U?$pair@$$CBVstring@acl@@Uconn_config@connect_manager@2@@std@@PEAX@std@@@1@PEAPEAU?$_Tree_node@U?$pair@$$CBVstring@acl@@Uconn_config@connect_manager@2@@std@@PEAX@1@AEAPEAU31@@Z 000000018006d8e0 f i connect_manager.obj
 0001:0006c940       ??$construct@PEAVconnect_pool@acl@@AEAPEAV12@@?$_Wrap_alloc@V?$allocator@PEAVconnect_pool@acl@@@std@@@std@@QEAAXPEAPEAVconnect_pool@acl@@AEAPEAV23@@Z 000000018006d940 f i connect_manager.obj
 0001:0006c9a0       ??$construct@PEAVconnect_pool@acl@@AEAPEAV12@@?$allocator@PEAVconnect_pool@acl@@@std@@QEAAXPEAPEAVconnect_pool@acl@@AEAPEAV23@@Z 000000018006d9a0 f i connect_manager.obj
 0001:0006ca50       ??$construct@PEAVconnect_pool@acl@@AEAPEAV12@@?$allocator_traits@V?$allocator@PEAVconnect_pool@acl@@@std@@@std@@SAXAEAV?$allocator@PEAVconnect_pool@acl@@@1@PEAPEAVconnect_pool@acl@@AEAPEAV34@@Z 000000018006da50 f i connect_manager.obj
 0001:0006cab0       ??$construct@PEAVconnect_pool@acl@@AEBQEAV12@@?$_Wrap_alloc@V?$allocator@PEAVconnect_pool@acl@@@std@@@std@@QEAAXPEAPEAVconnect_pool@acl@@AEBQEAV23@@Z 000000018006dab0 f i connect_manager.obj
 0001:0006cb10       ??$construct@PEAVconnect_pool@acl@@AEBQEAV12@@?$allocator_traits@V?$allocator@PEAVconnect_pool@acl@@@std@@@std@@SAXAEAV?$allocator@PEAVconnect_pool@acl@@@1@PEAPEAVconnect_pool@acl@@AEBQEAV34@@Z 000000018006db10 f i connect_manager.obj
 0001:0006cb70       ??$construct@U?$pair@$$CBKPEAUconns_pools@acl@@@std@@AEBUpiecewise_construct_t@2@V?$tuple@AEBK@2@V?$tuple@$$$V@2@@?$_Wrap_alloc@V?$allocator@U?$_Tree_node@U?$pair@$$CBKPEAUconns_pools@acl@@@std@@PEAX@std@@@std@@@std@@QEAAXPEAU?$pair@$$CBKPEAUconns_pools@acl@@@1@AEBUpiecewise_construct_t@1@$$QEAV?$tuple@AEBK@1@$$QEAV?$tuple@$$$V@1@@Z 000000018006db70 f i connect_manager.obj
 0001:0006cc10       ??$construct@U?$pair@$$CBKPEAUconns_pools@acl@@@std@@AEBUpiecewise_construct_t@2@V?$tuple@AEBK@2@V?$tuple@$$$V@2@@?$allocator@U?$_Tree_node@U?$pair@$$CBKPEAUconns_pools@acl@@@std@@PEAX@std@@@std@@QEAAXPEAU?$pair@$$CBKPEAUconns_pools@acl@@@1@AEBUpiecewise_construct_t@1@$$QEAV?$tuple@AEBK@1@$$QEAV?$tuple@$$$V@1@@Z 000000018006dc10 f i connect_manager.obj
 0001:0006cd50       ??$construct@U?$pair@$$CBKPEAUconns_pools@acl@@@std@@AEBUpiecewise_construct_t@2@V?$tuple@AEBK@2@V?$tuple@$$$V@2@@?$allocator_traits@V?$allocator@U?$_Tree_node@U?$pair@$$CBKPEAUconns_pools@acl@@@std@@PEAX@std@@@std@@@std@@SAXAEAV?$allocator@U?$_Tree_node@U?$pair@$$CBKPEAUconns_pools@acl@@@std@@PEAX@std@@@1@PEAU?$pair@$$CBKPEAUconns_pools@acl@@@1@AEBUpiecewise_construct_t@1@$$QEAV?$tuple@AEBK@1@$$QEAV?$tuple@$$$V@1@@Z 000000018006dd50 f i connect_manager.obj
 0001:0006cdf0       ??$construct@U?$pair@$$CBVstring@acl@@Uconn_config@connect_manager@2@@std@@AEBUpiecewise_construct_t@2@V?$tuple@AEBVstring@acl@@@2@V?$tuple@$$$V@2@@?$_Wrap_alloc@V?$allocator@U?$_Tree_node@U?$pair@$$CBVstring@acl@@Uconn_config@connect_manager@2@@std@@PEAX@std@@@std@@@std@@QEAAXPEAU?$pair@$$CBVstring@acl@@Uconn_config@connect_manager@2@@1@AEBUpiecewise_construct_t@1@$$QEAV?$tuple@AEBVstring@acl@@@1@$$QEAV?$tuple@$$$V@1@@Z 000000018006ddf0 f i connect_manager.obj
 0001:0006ce90       ??$construct@U?$pair@$$CBVstring@acl@@Uconn_config@connect_manager@2@@std@@AEBUpiecewise_construct_t@2@V?$tuple@AEBVstring@acl@@@2@V?$tuple@$$$V@2@@?$allocator@U?$_Tree_node@U?$pair@$$CBVstring@acl@@Uconn_config@connect_manager@2@@std@@PEAX@std@@@std@@QEAAXPEAU?$pair@$$CBVstring@acl@@Uconn_config@connect_manager@2@@1@AEBUpiecewise_construct_t@1@$$QEAV?$tuple@AEBVstring@acl@@@1@$$QEAV?$tuple@$$$V@1@@Z 000000018006de90 f i connect_manager.obj
 0001:0006cfd0       ??$construct@U?$pair@$$CBVstring@acl@@Uconn_config@connect_manager@2@@std@@AEBUpiecewise_construct_t@2@V?$tuple@AEBVstring@acl@@@2@V?$tuple@$$$V@2@@?$allocator_traits@V?$allocator@U?$_Tree_node@U?$pair@$$CBVstring@acl@@Uconn_config@connect_manager@2@@std@@PEAX@std@@@std@@@std@@SAXAEAV?$allocator@U?$_Tree_node@U?$pair@$$CBVstring@acl@@Uconn_config@connect_manager@2@@std@@PEAX@std@@@1@PEAU?$pair@$$CBVstring@acl@@Uconn_config@connect_manager@2@@1@AEBUpiecewise_construct_t@1@$$QEAV?$tuple@AEBVstring@acl@@@1@$$QEAV?$tuple@$$$V@1@@Z 000000018006dfd0 f i connect_manager.obj
 0001:0006d070       ??$destroy@PEAU?$_Tree_node@U?$pair@$$CBKPEAUconns_pools@acl@@@std@@PEAX@std@@@?$_Wrap_alloc@V?$allocator@U?$_Tree_node@U?$pair@$$CBKPEAUconns_pools@acl@@@std@@PEAX@std@@@std@@@std@@QEAAXPEAPEAU?$_Tree_node@U?$pair@$$CBKPEAUconns_pools@acl@@@std@@PEAX@1@@Z 000000018006e070 f i connect_manager.obj
 0001:0006d0c0       ??$destroy@PEAU?$_Tree_node@U?$pair@$$CBKPEAUconns_pools@acl@@@std@@PEAX@std@@@?$allocator@U?$_Tree_node@U?$pair@$$CBKPEAUconns_pools@acl@@@std@@PEAX@std@@@std@@QEAAXPEAPEAU?$_Tree_node@U?$pair@$$CBKPEAUconns_pools@acl@@@std@@PEAX@1@@Z 000000018006e0c0 f i connect_manager.obj
 0001:0006d0d0       ??$destroy@PEAU?$_Tree_node@U?$pair@$$CBKPEAUconns_pools@acl@@@std@@PEAX@std@@@?$allocator_traits@V?$allocator@U?$_Tree_node@U?$pair@$$CBKPEAUconns_pools@acl@@@std@@PEAX@std@@@std@@@std@@SAXAEAV?$allocator@U?$_Tree_node@U?$pair@$$CBKPEAUconns_pools@acl@@@std@@PEAX@std@@@1@PEAPEAU?$_Tree_node@U?$pair@$$CBKPEAUconns_pools@acl@@@std@@PEAX@1@@Z 000000018006e0d0 f i connect_manager.obj
 0001:0006d120       ??$destroy@PEAU?$_Tree_node@U?$pair@$$CBVstring@acl@@Uconn_config@connect_manager@2@@std@@PEAX@std@@@?$_Wrap_alloc@V?$allocator@U?$_Tree_node@U?$pair@$$CBVstring@acl@@Uconn_config@connect_manager@2@@std@@PEAX@std@@@std@@@std@@QEAAXPEAPEAU?$_Tree_node@U?$pair@$$CBVstring@acl@@Uconn_config@connect_manager@2@@std@@PEAX@1@@Z 000000018006e120 f i connect_manager.obj
 0001:0006d170       ??$destroy@PEAU?$_Tree_node@U?$pair@$$CBVstring@acl@@Uconn_config@connect_manager@2@@std@@PEAX@std@@@?$allocator@U?$_Tree_node@U?$pair@$$CBVstring@acl@@Uconn_config@connect_manager@2@@std@@PEAX@std@@@std@@QEAAXPEAPEAU?$_Tree_node@U?$pair@$$CBVstring@acl@@Uconn_config@connect_manager@2@@std@@PEAX@1@@Z 000000018006e170 f i connect_manager.obj
 0001:0006d180       ??$destroy@PEAU?$_Tree_node@U?$pair@$$CBVstring@acl@@Uconn_config@connect_manager@2@@std@@PEAX@std@@@?$allocator_traits@V?$allocator@U?$_Tree_node@U?$pair@$$CBVstring@acl@@Uconn_config@connect_manager@2@@std@@PEAX@std@@@std@@@std@@SAXAEAV?$allocator@U?$_Tree_node@U?$pair@$$CBVstring@acl@@Uconn_config@connect_manager@2@@std@@PEAX@std@@@1@PEAPEAU?$_Tree_node@U?$pair@$$CBVstring@acl@@Uconn_config@connect_manager@2@@std@@PEAX@1@@Z 000000018006e180 f i connect_manager.obj
 0001:0006d1d0       ??$destroy@U?$pair@$$CBKPEAUconns_pools@acl@@@std@@@?$_Wrap_alloc@V?$allocator@U?$_Tree_node@U?$pair@$$CBKPEAUconns_pools@acl@@@std@@PEAX@std@@@std@@@std@@QEAAXPEAU?$pair@$$CBKPEAUconns_pools@acl@@@1@@Z 000000018006e1d0 f i connect_manager.obj
 0001:0006d220       ??$destroy@U?$pair@$$CBKPEAUconns_pools@acl@@@std@@@?$allocator@U?$_Tree_node@U?$pair@$$CBKPEAUconns_pools@acl@@@std@@PEAX@std@@@std@@QEAAXPEAU?$pair@$$CBKPEAUconns_pools@acl@@@1@@Z 000000018006e220 f i connect_manager.obj
 0001:0006d230       ??$destroy@U?$pair@$$CBKPEAUconns_pools@acl@@@std@@@?$allocator_traits@V?$allocator@U?$_Tree_node@U?$pair@$$CBKPEAUconns_pools@acl@@@std@@PEAX@std@@@std@@@std@@SAXAEAV?$allocator@U?$_Tree_node@U?$pair@$$CBKPEAUconns_pools@acl@@@std@@PEAX@std@@@1@PEAU?$pair@$$CBKPEAUconns_pools@acl@@@1@@Z 000000018006e230 f i connect_manager.obj
 0001:0006d280       ??$destroy@U?$pair@$$CBVstring@acl@@Uconn_config@connect_manager@2@@std@@@?$_Wrap_alloc@V?$allocator@U?$_Tree_node@U?$pair@$$CBVstring@acl@@Uconn_config@connect_manager@2@@std@@PEAX@std@@@std@@@std@@QEAAXPEAU?$pair@$$CBVstring@acl@@Uconn_config@connect_manager@2@@1@@Z 000000018006e280 f i connect_manager.obj
 0001:0006d2d0       ??$destroy@U?$pair@$$CBVstring@acl@@Uconn_config@connect_manager@2@@std@@@?$allocator@U?$_Tree_node@U?$pair@$$CBVstring@acl@@Uconn_config@connect_manager@2@@std@@PEAX@std@@@std@@QEAAXPEAU?$pair@$$CBVstring@acl@@Uconn_config@connect_manager@2@@1@@Z 000000018006e2d0 f i connect_manager.obj
 0001:0006d320       ??$destroy@U?$pair@$$CBVstring@acl@@Uconn_config@connect_manager@2@@std@@@?$allocator_traits@V?$allocator@U?$_Tree_node@U?$pair@$$CBVstring@acl@@Uconn_config@connect_manager@2@@std@@PEAX@std@@@std@@@std@@SAXAEAV?$allocator@U?$_Tree_node@U?$pair@$$CBVstring@acl@@Uconn_config@connect_manager@2@@std@@PEAX@std@@@1@PEAU?$pair@$$CBVstring@acl@@Uconn_config@connect_manager@2@@1@@Z 000000018006e320 f i connect_manager.obj
 0001:0006d370       ??$emplace_hint@AEBUpiecewise_construct_t@std@@V?$tuple@AEBK@2@V?$tuple@$$$V@2@@?$_Tree@V?$_Tmap_traits@KPEAUconns_pools@acl@@U?$less@K@std@@V?$allocator@U?$pair@$$CBKPEAUconns_pools@acl@@@std@@@4@$0A@@std@@@std@@QEAA?AV?$_Tree_iterator@V?$_Tree_val@U?$_Tree_simple_types@U?$pair@$$CBKPEAUconns_pools@acl@@@std@@@std@@@std@@@1@V?$_Tree_const_iterator@V?$_Tree_val@U?$_Tree_simple_types@U?$pair@$$CBKPEAUconns_pools@acl@@@std@@@std@@@std@@@1@AEBUpiecewise_construct_t@1@$$QEAV?$tuple@AEBK@1@$$QEAV?$tuple@$$$V@1@@Z 000000018006e370 f i connect_manager.obj
 0001:0006d4e0       ??$emplace_hint@AEBUpiecewise_construct_t@std@@V?$tuple@AEBVstring@acl@@@2@V?$tuple@$$$V@2@@?$_Tree@V?$_Tmap_traits@Vstring@acl@@Uconn_config@connect_manager@2@U?$less@Vstring@acl@@@std@@V?$allocator@U?$pair@$$CBVstring@acl@@Uconn_config@connect_manager@2@@std@@@6@$0A@@std@@@std@@QEAA?AV?$_Tree_iterator@V?$_Tree_val@U?$_Tree_simple_types@U?$pair@$$CBVstring@acl@@Uconn_config@connect_manager@2@@std@@@std@@@std@@@1@V?$_Tree_const_iterator@V?$_Tree_val@U?$_Tree_simple_types@U?$pair@$$CBVstring@acl@@Uconn_config@connect_manager@2@@std@@@std@@@std@@@1@AEBUpiecewise_construct_t@1@$$QEAV?$tuple@AEBVstring@acl@@@1@$$QEAV?$tuple@$$$V@1@@Z 000000018006e4e0 f i connect_manager.obj
 0001:0006d650       ??$forward@AEAPEAU?$_Tree_node@U?$pair@$$CBKPEAUconns_pools@acl@@@std@@PEAX@std@@@std@@YAAEAPEAU?$_Tree_node@U?$pair@$$CBKPEAUconns_pools@acl@@@std@@PEAX@0@AEAPEAU10@@Z 000000018006e650 f i connect_manager.obj
 0001:0006d660       ??$forward@AEAPEAU?$_Tree_node@U?$pair@$$CBVstring@acl@@Uconn_config@connect_manager@2@@std@@PEAX@std@@@std@@YAAEAPEAU?$_Tree_node@U?$pair@$$CBVstring@acl@@Uconn_config@connect_manager@2@@std@@PEAX@0@AEAPEAU10@@Z 000000018006e660 f i connect_manager.obj
 0001:0006d670       ??$forward@AEAPEAVconnect_pool@acl@@@std@@YAAEAPEAVconnect_pool@acl@@AEAPEAV12@@Z 000000018006e670 f i connect_manager.obj
 0001:0006d680       ??$forward@AEAU?$pair@$$CBKPEAUconns_pools@acl@@@std@@@std@@YAAEAU?$pair@$$CBKPEAUconns_pools@acl@@@0@AEAU10@@Z 000000018006e680 f i connect_manager.obj
 0001:0006d690       ??$forward@AEAU?$pair@$$CBVstring@acl@@Uconn_config@connect_manager@2@@std@@@std@@YAAEAU?$pair@$$CBVstring@acl@@Uconn_config@connect_manager@2@@0@AEAU10@@Z 000000018006e690 f i connect_manager.obj
 0001:0006d6a0       ??$forward@AEAV?$_Tree_iterator@V?$_Tree_val@U?$_Tree_simple_types@U?$pair@$$CBKPEAUconns_pools@acl@@@std@@@std@@@std@@@std@@@std@@YAAEAV?$_Tree_iterator@V?$_Tree_val@U?$_Tree_simple_types@U?$pair@$$CBKPEAUconns_pools@acl@@@std@@@std@@@std@@@0@AEAV10@@Z 000000018006e6a0 f i connect_manager.obj
 0001:0006d6b0       ??$forward@AEAV?$_Tree_iterator@V?$_Tree_val@U?$_Tree_simple_types@U?$pair@$$CBVstring@acl@@Uconn_config@connect_manager@2@@std@@@std@@@std@@@std@@@std@@YAAEAV?$_Tree_iterator@V?$_Tree_val@U?$_Tree_simple_types@U?$pair@$$CBVstring@acl@@Uconn_config@connect_manager@2@@std@@@std@@@std@@@0@AEAV10@@Z 000000018006e6b0 f i connect_manager.obj
 0001:0006d6c0       ??$forward@AEBK@std@@YAAEBKAEBK@Z 000000018006e6c0 f i connect_manager.obj
 0001:0006d6d0       ??$forward@AEBQEAVconnect_pool@acl@@@std@@YAAEBQEAVconnect_pool@acl@@AEBQEAV12@@Z 000000018006e6d0 f i connect_manager.obj
 0001:0006d6e0       ??$forward@V?$_Tree_iterator@V?$_Tree_val@U?$_Tree_simple_types@U?$pair@$$CBKPEAUconns_pools@acl@@@std@@@std@@@std@@@std@@@std@@YA$$QEAV?$_Tree_iterator@V?$_Tree_val@U?$_Tree_simple_types@U?$pair@$$CBKPEAUconns_pools@acl@@@std@@@std@@@std@@@0@AEAV10@@Z 000000018006e6e0 f i connect_manager.obj
 0001:0006d6f0       ??$forward@V?$_Tree_iterator@V?$_Tree_val@U?$_Tree_simple_types@U?$pair@$$CBVstring@acl@@Uconn_config@connect_manager@2@@std@@@std@@@std@@@std@@@std@@YA$$QEAV?$_Tree_iterator@V?$_Tree_val@U?$_Tree_simple_types@U?$pair@$$CBVstring@acl@@Uconn_config@connect_manager@2@@std@@@std@@@std@@@0@AEAV10@@Z 000000018006e6f0 f i connect_manager.obj
 0001:0006d700       ??$forward@V?$tuple@AEBK@std@@@std@@YA$$QEAV?$tuple@AEBK@0@AEAV10@@Z 000000018006e700 f i connect_manager.obj
 0001:0006d710       ??$forward@V?$tuple@AEBVstring@acl@@@std@@@std@@YA$$QEAV?$tuple@AEBVstring@acl@@@0@AEAV10@@Z 000000018006e710 f i connect_manager.obj
 0001:0006d720       ??$forward_as_tuple@AEBK@std@@YA?AV?$tuple@AEBK@0@AEBK@Z 000000018006e720 f i connect_manager.obj
 0001:0006d780       ??$forward_as_tuple@AEBVstring@acl@@@std@@YA?AV?$tuple@AEBVstring@acl@@@0@AEBVstring@acl@@@Z 000000018006e780 f i connect_manager.obj
 0001:0006d7e0       ??$get@$0A@AEBK@std@@YAAEBK$$QEAV?$tuple@AEBK@0@@Z 000000018006e7e0 f i connect_manager.obj
 0001:0006d820       ??$get@$0A@AEBVstring@acl@@@std@@YAAEBVstring@acl@@$$QEAV?$tuple@AEBVstring@acl@@@0@@Z 000000018006e820 f i connect_manager.obj
 0001:0006d860       ??$move@AEAV?$tuple@AEBK@std@@@std@@YA$$QEAV?$tuple@AEBK@0@AEAV10@@Z 000000018006e860 f i connect_manager.obj
 0001:0006d870       ??$move@AEAV?$tuple@AEBVstring@acl@@@std@@@std@@YA$$QEAV?$tuple@AEBVstring@acl@@@0@AEAV10@@Z 000000018006e870 f i connect_manager.obj
 0001:0006d880       ??0?$_Iterator012@Ubidirectional_iterator_tag@std@@U?$pair@$$CBKPEAUconns_pools@acl@@@2@_JPEBU32@AEBU32@U_Iterator_base12@2@@std@@QEAA@AEBU01@@Z 000000018006e880 f i connect_manager.obj
 0001:0006d8d0       ??0?$_Iterator012@Ubidirectional_iterator_tag@std@@U?$pair@$$CBKPEAUconns_pools@acl@@@2@_JPEBU32@AEBU32@U_Iterator_base12@2@@std@@QEAA@XZ 000000018006e8d0 f i connect_manager.obj
 0001:0006d910       ??0?$_Iterator012@Ubidirectional_iterator_tag@std@@U?$pair@$$CBVstring@acl@@Uconn_config@connect_manager@2@@2@_JPEBU32@AEBU32@U_Iterator_base12@2@@std@@QEAA@AEBU01@@Z 000000018006e910 f i connect_manager.obj
 0001:0006d960       ??0?$_Iterator012@Ubidirectional_iterator_tag@std@@U?$pair@$$CBVstring@acl@@Uconn_config@connect_manager@2@@2@_JPEBU32@AEBU32@U_Iterator_base12@2@@std@@QEAA@XZ 000000018006e960 f i connect_manager.obj
 0001:0006d9a0       ??0?$_Iterator012@Urandom_access_iterator_tag@std@@PEAVconnect_pool@acl@@_JPEBQEAV34@AEBQEAV34@U_Iterator_base12@2@@std@@QEAA@AEBU01@@Z 000000018006e9a0 f i connect_manager.obj
 0001:0006d9f0       ??0?$_Tree@V?$_Tmap_traits@KPEAUconns_pools@acl@@U?$less@K@std@@V?$allocator@U?$pair@$$CBKPEAUconns_pools@acl@@@std@@@4@$0A@@std@@@std@@QEAA@AEBU?$less@K@1@AEBV?$allocator@U?$pair@$$CBKPEAUconns_pools@acl@@@std@@@1@@Z 000000018006e9f0 f i connect_manager.obj
 0001:0006da50       ??0?$_Tree@V?$_Tmap_traits@Vstring@acl@@Uconn_config@connect_manager@2@U?$less@Vstring@acl@@@std@@V?$allocator@U?$pair@$$CBVstring@acl@@Uconn_config@connect_manager@2@@std@@@6@$0A@@std@@@std@@QEAA@AEBU?$less@Vstring@acl@@@1@AEBV?$allocator@U?$pair@$$CBVstring@acl@@Uconn_config@connect_manager@2@@std@@@1@@Z 000000018006ea50 f i connect_manager.obj
 0001:0006dab0       ??0?$_Tree_alloc@$0A@U?$_Tree_base_types@U?$pair@$$CBKPEAUconns_pools@acl@@@std@@V?$allocator@U?$pair@$$CBKPEAUconns_pools@acl@@@std@@@2@@std@@@std@@QEAA@AEBV?$allocator@U?$pair@$$CBKPEAUconns_pools@acl@@@std@@@1@@Z 000000018006eab0 f i connect_manager.obj
 0001:0006db30       ??0?$_Tree_alloc@$0A@U?$_Tree_base_types@U?$pair@$$CBVstring@acl@@Uconn_config@connect_manager@2@@std@@V?$allocator@U?$pair@$$CBVstring@acl@@Uconn_config@connect_manager@2@@std@@@2@@std@@@std@@QEAA@AEBV?$allocator@U?$pair@$$CBVstring@acl@@Uconn_config@connect_manager@2@@std@@@1@@Z 000000018006eb30 f i connect_manager.obj
 0001:0006dbb0       ??0?$_Tree_buy@U?$pair@$$CBKPEAUconns_pools@acl@@@std@@V?$allocator@U?$pair@$$CBKPEAUconns_pools@acl@@@std@@@2@@std@@QEAA@AEBV?$allocator@U?$pair@$$CBKPEAUconns_pools@acl@@@std@@@1@@Z 000000018006ebb0 f i connect_manager.obj
 0001:0006dc00       ??0?$_Tree_buy@U?$pair@$$CBVstring@acl@@Uconn_config@connect_manager@2@@std@@V?$allocator@U?$pair@$$CBVstring@acl@@Uconn_config@connect_manager@2@@std@@@2@@std@@QEAA@AEBV?$allocator@U?$pair@$$CBVstring@acl@@Uconn_config@connect_manager@2@@std@@@1@@Z 000000018006ec00 f i connect_manager.obj
 0001:0006dc50       ??0?$_Tree_comp@$0A@V?$_Tmap_traits@KPEAUconns_pools@acl@@U?$less@K@std@@V?$allocator@U?$pair@$$CBKPEAUconns_pools@acl@@@std@@@4@$0A@@std@@@std@@QEAA@AEBU?$less@K@1@AEBV?$allocator@U?$pair@$$CBKPEAUconns_pools@acl@@@std@@@1@@Z 000000018006ec50 f i connect_manager.obj
 0001:0006dcb0       ??0?$_Tree_comp@$0A@V?$_Tmap_traits@Vstring@acl@@Uconn_config@connect_manager@2@U?$less@Vstring@acl@@@std@@V?$allocator@U?$pair@$$CBVstring@acl@@Uconn_config@connect_manager@2@@std@@@6@$0A@@std@@@std@@QEAA@AEBU?$less@Vstring@acl@@@1@AEBV?$allocator@U?$pair@$$CBVstring@acl@@Uconn_config@connect_manager@2@@std@@@1@@Z 000000018006ecb0 f i connect_manager.obj
 0001:0006dd10       ??0?$_Tree_const_iterator@V?$_Tree_val@U?$_Tree_simple_types@U?$pair@$$CBKPEAUconns_pools@acl@@@std@@@std@@@std@@@std@@QEAA@AEBV01@@Z 000000018006ed10 f i connect_manager.obj
 0001:0006dd60       ??0?$_Tree_const_iterator@V?$_Tree_val@U?$_Tree_simple_types@U?$pair@$$CBKPEAUconns_pools@acl@@@std@@@std@@@std@@@std@@QEAA@PEAU?$_Tree_node@U?$pair@$$CBKPEAUconns_pools@acl@@@std@@PEAX@1@PEBV?$_Tree_val@U?$_Tree_simple_types@U?$pair@$$CBKPEAUconns_pools@acl@@@std@@@std@@@1@@Z 000000018006ed60 f i connect_manager.obj
 0001:0006ddc0       ??0?$_Tree_const_iterator@V?$_Tree_val@U?$_Tree_simple_types@U?$pair@$$CBKPEAUconns_pools@acl@@@std@@@std@@@std@@@std@@QEAA@XZ 000000018006edc0 f i connect_manager.obj
 0001:0006de00       ??0?$_Tree_const_iterator@V?$_Tree_val@U?$_Tree_simple_types@U?$pair@$$CBVstring@acl@@Uconn_config@connect_manager@2@@std@@@std@@@std@@@std@@QEAA@AEBV01@@Z 000000018006ee00 f i connect_manager.obj
 0001:0006de50       ??0?$_Tree_const_iterator@V?$_Tree_val@U?$_Tree_simple_types@U?$pair@$$CBVstring@acl@@Uconn_config@connect_manager@2@@std@@@std@@@std@@@std@@QEAA@PEAU?$_Tree_node@U?$pair@$$CBVstring@acl@@Uconn_config@connect_manager@2@@std@@PEAX@1@PEBV?$_Tree_val@U?$_Tree_simple_types@U?$pair@$$CBVstring@acl@@Uconn_config@connect_manager@2@@std@@@std@@@1@@Z 000000018006ee50 f i connect_manager.obj
 0001:0006deb0       ??0?$_Tree_const_iterator@V?$_Tree_val@U?$_Tree_simple_types@U?$pair@$$CBVstring@acl@@Uconn_config@connect_manager@2@@std@@@std@@@std@@@std@@QEAA@XZ 000000018006eeb0 f i connect_manager.obj
 0001:0006def0       ??0?$_Tree_iterator@V?$_Tree_val@U?$_Tree_simple_types@U?$pair@$$CBKPEAUconns_pools@acl@@@std@@@std@@@std@@@std@@QEAA@AEBV01@@Z 000000018006eef0 f i connect_manager.obj
 0001:0006df40       ??0?$_Tree_iterator@V?$_Tree_val@U?$_Tree_simple_types@U?$pair@$$CBKPEAUconns_pools@acl@@@std@@@std@@@std@@@std@@QEAA@PEAU?$_Tree_node@U?$pair@$$CBKPEAUconns_pools@acl@@@std@@PEAX@1@PEBV?$_Tree_val@U?$_Tree_simple_types@U?$pair@$$CBKPEAUconns_pools@acl@@@std@@@std@@@1@@Z 000000018006ef40 f i connect_manager.obj
 0001:0006dfa0       ??0?$_Tree_iterator@V?$_Tree_val@U?$_Tree_simple_types@U?$pair@$$CBVstring@acl@@Uconn_config@connect_manager@2@@std@@@std@@@std@@@std@@QEAA@AEBV01@@Z 000000018006efa0 f i connect_manager.obj
 0001:0006dff0       ??0?$_Tree_iterator@V?$_Tree_val@U?$_Tree_simple_types@U?$pair@$$CBVstring@acl@@Uconn_config@connect_manager@2@@std@@@std@@@std@@@std@@QEAA@PEAU?$_Tree_node@U?$pair@$$CBVstring@acl@@Uconn_config@connect_manager@2@@std@@PEAX@1@PEBV?$_Tree_val@U?$_Tree_simple_types@U?$pair@$$CBVstring@acl@@Uconn_config@connect_manager@2@@std@@@std@@@1@@Z 000000018006eff0 f i connect_manager.obj
 0001:0006e050       ??0?$_Tree_unchecked_const_iterator@V?$_Tree_val@U?$_Tree_simple_types@U?$pair@$$CBKPEAUconns_pools@acl@@@std@@@std@@@std@@U_Iterator_base12@2@@std@@QEAA@AEBV01@@Z 000000018006f050 f i connect_manager.obj
 0001:0006e0c0       ??0?$_Tree_unchecked_const_iterator@V?$_Tree_val@U?$_Tree_simple_types@U?$pair@$$CBKPEAUconns_pools@acl@@@std@@@std@@@std@@U_Iterator_base12@2@@std@@QEAA@PEAU?$_Tree_node@U?$pair@$$CBKPEAUconns_pools@acl@@@std@@PEAX@1@PEBV?$_Tree_val@U?$_Tree_simple_types@U?$pair@$$CBKPEAUconns_pools@acl@@@std@@@std@@@1@@Z 000000018006f0c0 f i connect_manager.obj
 0001:0006e140       ??0?$_Tree_unchecked_const_iterator@V?$_Tree_val@U?$_Tree_simple_types@U?$pair@$$CBKPEAUconns_pools@acl@@@std@@@std@@@std@@U_Iterator_base12@2@@std@@QEAA@XZ 000000018006f140 f i connect_manager.obj
 0001:0006e190       ??0?$_Tree_unchecked_const_iterator@V?$_Tree_val@U?$_Tree_simple_types@U?$pair@$$CBVstring@acl@@Uconn_config@connect_manager@2@@std@@@std@@@std@@U_Iterator_base12@2@@std@@QEAA@AEBV01@@Z 000000018006f190 f i connect_manager.obj
 0001:0006e200       ??0?$_Tree_unchecked_const_iterator@V?$_Tree_val@U?$_Tree_simple_types@U?$pair@$$CBVstring@acl@@Uconn_config@connect_manager@2@@std@@@std@@@std@@U_Iterator_base12@2@@std@@QEAA@PEAU?$_Tree_node@U?$pair@$$CBVstring@acl@@Uconn_config@connect_manager@2@@std@@PEAX@1@PEBV?$_Tree_val@U?$_Tree_simple_types@U?$pair@$$CBVstring@acl@@Uconn_config@connect_manager@2@@std@@@std@@@1@@Z 000000018006f200 f i connect_manager.obj
 0001:0006e280       ??0?$_Tree_unchecked_const_iterator@V?$_Tree_val@U?$_Tree_simple_types@U?$pair@$$CBVstring@acl@@Uconn_config@connect_manager@2@@std@@@std@@@std@@U_Iterator_base12@2@@std@@QEAA@XZ 000000018006f280 f i connect_manager.obj
 0001:0006e2d0       ??0?$_Tree_val@U?$_Tree_simple_types@U?$pair@$$CBKPEAUconns_pools@acl@@@std@@@std@@@std@@QEAA@XZ 000000018006f2d0 f i connect_manager.obj
 0001:0006e340       ??0?$_Tree_val@U?$_Tree_simple_types@U?$pair@$$CBVstring@acl@@Uconn_config@connect_manager@2@@std@@@std@@@std@@QEAA@XZ 000000018006f340 f i connect_manager.obj
 0001:0006e3b0       ??0?$_Vector_alloc@$0A@U?$_Vec_base_types@PEAVconnect_pool@acl@@V?$allocator@PEAVconnect_pool@acl@@@std@@@std@@@std@@QEAA@AEBV?$allocator@PEAVconnect_pool@acl@@@1@@Z 000000018006f3b0 f i connect_manager.obj
 0001:0006e410       ??0?$_Vector_const_iterator@V?$_Vector_val@U?$_Simple_types@PEAVconnect_pool@acl@@@std@@@std@@@std@@QEAA@AEBV01@@Z 000000018006f410 f i connect_manager.obj
 0001:0006e480       ??0?$_Vector_iterator@V?$_Vector_val@U?$_Simple_types@PEAVconnect_pool@acl@@@std@@@std@@@std@@QEAA@PEAPEAVconnect_pool@acl@@PEBU_Container_base12@1@@Z 000000018006f480 f i connect_manager.obj
 0001:0006e4e0       ??0?$_Vector_val@U?$_Simple_types@PEAVconnect_pool@acl@@@std@@@std@@QEAA@XZ 000000018006f4e0 f i connect_manager.obj
 0001:0006e560       ??0?$_Wrap_alloc@V?$allocator@PEAVconnect_pool@acl@@@std@@@std@@QEAA@XZ 000000018006f560 f i connect_manager.obj
 0001:0006e5a0       ??0?$_Wrap_alloc@V?$allocator@U?$_Tree_node@U?$pair@$$CBKPEAUconns_pools@acl@@@std@@PEAX@std@@@std@@@std@@QEAA@XZ 000000018006f5a0 f i connect_manager.obj
 0001:0006e5e0       ??0?$_Wrap_alloc@V?$allocator@U?$_Tree_node@U?$pair@$$CBVstring@acl@@Uconn_config@connect_manager@2@@std@@PEAX@std@@@std@@@std@@QEAA@XZ 000000018006f5e0 f i connect_manager.obj
 0001:0006e620       ??0?$allocator@PEAVconnect_pool@acl@@@std@@QEAA@XZ 000000018006f620 f i connect_manager.obj
 0001:0006e630       ??0?$allocator@U?$_Tree_node@U?$pair@$$CBKPEAUconns_pools@acl@@@std@@PEAX@std@@@std@@QEAA@XZ 000000018006f630 f i connect_manager.obj
 0001:0006e640       ??0?$allocator@U?$_Tree_node@U?$pair@$$CBVstring@acl@@Uconn_config@connect_manager@2@@std@@PEAX@std@@@std@@QEAA@XZ 000000018006f640 f i connect_manager.obj
 0001:0006e650       ??0?$allocator@U?$pair@$$CBKPEAUconns_pools@acl@@@std@@@std@@QEAA@XZ 000000018006f650 f i connect_manager.obj
 0001:0006e660       ??0?$allocator@U?$pair@$$CBVstring@acl@@Uconn_config@connect_manager@2@@std@@@std@@QEAA@XZ 000000018006f660 f i connect_manager.obj
 0001:0006e670       ??0?$map@KPEAUconns_pools@acl@@U?$less@K@std@@V?$allocator@U?$pair@$$CBKPEAUconns_pools@acl@@@std@@@4@@std@@QEAA@XZ 000000018006f670 f i connect_manager.obj
 0001:0006e6d0       ??0?$map@Vstring@acl@@Uconn_config@connect_manager@2@U?$less@Vstring@acl@@@std@@V?$allocator@U?$pair@$$CBVstring@acl@@Uconn_config@connect_manager@2@@std@@@6@@std@@QEAA@XZ 000000018006f6d0 f i connect_manager.obj
 0001:0006e730       ??0?$tuple@AEBK@std@@QEAA@AEBK@Z 000000018006f730 f i connect_manager.obj
 0001:0006e790       ??0?$tuple@AEBVstring@acl@@@std@@QEAA@AEBVstring@acl@@@Z 000000018006f790 f i connect_manager.obj
 0001:0006e7f0       ??0?$vector@PEAVconnect_pool@acl@@V?$allocator@PEAVconnect_pool@acl@@@std@@@std@@QEAA@XZ 000000018006f7f0 f i connect_manager.obj
 0001:0006e840       ??0conn_config@connect_manager@acl@@QEAA@XZ 000000018006f840 f i connect_manager.obj
 0001:0006e890       ??0conns_pools@acl@@QEAA@XZ 000000018006f890 f i connect_manager.obj
 0001:0006e900       ??1?$_Iterator012@Ubidirectional_iterator_tag@std@@U?$pair@$$CBKPEAUconns_pools@acl@@@2@_JPEBU32@AEBU32@U_Iterator_base12@2@@std@@QEAA@XZ 000000018006f900 f i connect_manager.obj
 0001:0006e940       ??1?$_Iterator012@Ubidirectional_iterator_tag@std@@U?$pair@$$CBVstring@acl@@Uconn_config@connect_manager@2@@2@_JPEBU32@AEBU32@U_Iterator_base12@2@@std@@QEAA@XZ 000000018006f940 f i connect_manager.obj
 0001:0006e980       ??1?$_Tree@V?$_Tmap_traits@KPEAUconns_pools@acl@@U?$less@K@std@@V?$allocator@U?$pair@$$CBKPEAUconns_pools@acl@@@std@@@4@$0A@@std@@@std@@QEAA@XZ 000000018006f980 f i connect_manager.obj
 0001:0006e9d0       ??1?$_Tree@V?$_Tmap_traits@Vstring@acl@@Uconn_config@connect_manager@2@U?$less@Vstring@acl@@@std@@V?$allocator@U?$pair@$$CBVstring@acl@@Uconn_config@connect_manager@2@@std@@@6@$0A@@std@@@std@@QEAA@XZ 000000018006f9d0 f i connect_manager.obj
 0001:0006ea20       ??1?$_Tree_alloc@$0A@U?$_Tree_base_types@U?$pair@$$CBKPEAUconns_pools@acl@@@std@@V?$allocator@U?$pair@$$CBKPEAUconns_pools@acl@@@std@@@2@@std@@@std@@QEAA@XZ 000000018006fa20 f i connect_manager.obj
 0001:0006ea80       ??1?$_Tree_alloc@$0A@U?$_Tree_base_types@U?$pair@$$CBVstring@acl@@Uconn_config@connect_manager@2@@std@@V?$allocator@U?$pair@$$CBVstring@acl@@Uconn_config@connect_manager@2@@std@@@2@@std@@@std@@QEAA@XZ 000000018006fa80 f i connect_manager.obj
 0001:0006eae0       ??1?$_Tree_buy@U?$pair@$$CBKPEAUconns_pools@acl@@@std@@V?$allocator@U?$pair@$$CBKPEAUconns_pools@acl@@@std@@@2@@std@@QEAA@XZ 000000018006fae0 f i connect_manager.obj
 0001:0006eb20       ??1?$_Tree_buy@U?$pair@$$CBVstring@acl@@Uconn_config@connect_manager@2@@std@@V?$allocator@U?$pair@$$CBVstring@acl@@Uconn_config@connect_manager@2@@std@@@2@@std@@QEAA@XZ 000000018006fb20 f i connect_manager.obj
 0001:0006eb60       ??1?$_Tree_comp@$0A@V?$_Tmap_traits@KPEAUconns_pools@acl@@U?$less@K@std@@V?$allocator@U?$pair@$$CBKPEAUconns_pools@acl@@@std@@@4@$0A@@std@@@std@@QEAA@XZ 000000018006fb60 f i connect_manager.obj
 0001:0006eba0       ??1?$_Tree_comp@$0A@V?$_Tmap_traits@Vstring@acl@@Uconn_config@connect_manager@2@U?$less@Vstring@acl@@@std@@V?$allocator@U?$pair@$$CBVstring@acl@@Uconn_config@connect_manager@2@@std@@@6@$0A@@std@@@std@@QEAA@XZ 000000018006fba0 f i connect_manager.obj
 0001:0006ebe0       ??1?$_Tree_const_iterator@V?$_Tree_val@U?$_Tree_simple_types@U?$pair@$$CBKPEAUconns_pools@acl@@@std@@@std@@@std@@@std@@QEAA@XZ 000000018006fbe0 f i connect_manager.obj
 0001:0006ec20       ??1?$_Tree_const_iterator@V?$_Tree_val@U?$_Tree_simple_types@U?$pair@$$CBVstring@acl@@Uconn_config@connect_manager@2@@std@@@std@@@std@@@std@@QEAA@XZ 000000018006fc20 f i connect_manager.obj
 0001:0006ec60       ??1?$_Tree_iterator@V?$_Tree_val@U?$_Tree_simple_types@U?$pair@$$CBKPEAUconns_pools@acl@@@std@@@std@@@std@@@std@@QEAA@XZ 000000018006fc60 f i connect_manager.obj
 0001:0006eca0       ??1?$_Tree_iterator@V?$_Tree_val@U?$_Tree_simple_types@U?$pair@$$CBVstring@acl@@Uconn_config@connect_manager@2@@std@@@std@@@std@@@std@@QEAA@XZ 000000018006fca0 f i connect_manager.obj
 0001:0006ece0       ??1?$_Tree_unchecked_const_iterator@V?$_Tree_val@U?$_Tree_simple_types@U?$pair@$$CBKPEAUconns_pools@acl@@@std@@@std@@@std@@U_Iterator_base12@2@@std@@QEAA@XZ 000000018006fce0 f i connect_manager.obj
 0001:0006ed20       ??1?$_Tree_unchecked_const_iterator@V?$_Tree_val@U?$_Tree_simple_types@U?$pair@$$CBVstring@acl@@Uconn_config@connect_manager@2@@std@@@std@@@std@@U_Iterator_base12@2@@std@@QEAA@XZ 000000018006fd20 f i connect_manager.obj
 0001:0006ed60       ??1?$_Tree_val@U?$_Tree_simple_types@U?$pair@$$CBKPEAUconns_pools@acl@@@std@@@std@@@std@@QEAA@XZ 000000018006fd60 f i connect_manager.obj
 0001:0006eda0       ??1?$_Tree_val@U?$_Tree_simple_types@U?$pair@$$CBVstring@acl@@Uconn_config@connect_manager@2@@std@@@std@@@std@@QEAA@XZ 000000018006fda0 f i connect_manager.obj
 0001:0006ede0       ??1?$_Vector_alloc@$0A@U?$_Vec_base_types@PEAVconnect_pool@acl@@V?$allocator@PEAVconnect_pool@acl@@@std@@@std@@@std@@QEAA@XZ 000000018006fde0 f i connect_manager.obj
 0001:0006ee30       ??1?$_Vector_iterator@V?$_Vector_val@U?$_Simple_types@PEAVconnect_pool@acl@@@std@@@std@@@std@@QEAA@XZ 000000018006fe30 f i connect_manager.obj
 0001:0006ee70       ??1?$_Vector_val@U?$_Simple_types@PEAVconnect_pool@acl@@@std@@@std@@QEAA@XZ 000000018006fe70 f i connect_manager.obj
 0001:0006eeb0       ??1?$map@KPEAUconns_pools@acl@@U?$less@K@std@@V?$allocator@U?$pair@$$CBKPEAUconns_pools@acl@@@std@@@4@@std@@QEAA@XZ 000000018006feb0 f i connect_manager.obj
 0001:0006eef0       ??1?$map@Vstring@acl@@Uconn_config@connect_manager@2@U?$less@Vstring@acl@@@std@@V?$allocator@U?$pair@$$CBVstring@acl@@Uconn_config@connect_manager@2@@std@@@6@@std@@QEAA@XZ 000000018006fef0 f i connect_manager.obj
 0001:0006ef30       ??1?$pair@$$CBVstring@acl@@Uconn_config@connect_manager@2@@std@@QEAA@XZ 000000018006ff30 f i connect_manager.obj
 0001:0006ef90       ??1?$pair@V?$_Tree_iterator@V?$_Tree_val@U?$_Tree_simple_types@U?$pair@$$CBKPEAUconns_pools@acl@@@std@@@std@@@std@@@std@@_N@std@@QEAA@XZ 000000018006ff90 f i connect_manager.obj
 0001:0006efd0       ??1?$pair@V?$_Tree_iterator@V?$_Tree_val@U?$_Tree_simple_types@U?$pair@$$CBVstring@acl@@Uconn_config@connect_manager@2@@std@@@std@@@std@@@std@@_N@std@@QEAA@XZ 000000018006ffd0 f i connect_manager.obj
 0001:0006f010       ??1?$vector@PEAVconnect_pool@acl@@V?$allocator@PEAVconnect_pool@acl@@@std@@@std@@QEAA@XZ 0000000180070010 f i connect_manager.obj
 0001:0006f060       ??1conn_config@connect_manager@acl@@QEAA@XZ 0000000180070060 f i connect_manager.obj
 0001:0006f0a0       ??1conns_pools@acl@@QEAA@XZ 00000001800700a0 f i connect_manager.obj
 0001:0006f0e0       ??4?$_Iterator012@Ubidirectional_iterator_tag@std@@U?$pair@$$CBKPEAUconns_pools@acl@@@2@_JPEBU32@AEBU32@U_Iterator_base12@2@@std@@QEAAAEAU01@AEBU01@@Z 00000001800700e0 f i connect_manager.obj
 0001:0006f130       ??4?$_Iterator012@Ubidirectional_iterator_tag@std@@U?$pair@$$CBVstring@acl@@Uconn_config@connect_manager@2@@2@_JPEBU32@AEBU32@U_Iterator_base12@2@@std@@QEAAAEAU01@AEBU01@@Z 0000000180070130 f i connect_manager.obj
 0001:0006f180       ??4?$_Tree_const_iterator@V?$_Tree_val@U?$_Tree_simple_types@U?$pair@$$CBKPEAUconns_pools@acl@@@std@@@std@@@std@@@std@@QEAAAEAV01@AEBV01@@Z 0000000180070180 f i connect_manager.obj
 0001:0006f1d0       ??4?$_Tree_const_iterator@V?$_Tree_val@U?$_Tree_simple_types@U?$pair@$$CBVstring@acl@@Uconn_config@connect_manager@2@@std@@@std@@@std@@@std@@QEAAAEAV01@AEBV01@@Z 00000001800701d0 f i connect_manager.obj
 0001:0006f220       ??4?$_Tree_iterator@V?$_Tree_val@U?$_Tree_simple_types@U?$pair@$$CBKPEAUconns_pools@acl@@@std@@@std@@@std@@@std@@QEAAAEAV01@AEBV01@@Z 0000000180070220 f i connect_manager.obj
 0001:0006f270       ??4?$_Tree_iterator@V?$_Tree_val@U?$_Tree_simple_types@U?$pair@$$CBVstring@acl@@Uconn_config@connect_manager@2@@std@@@std@@@std@@@std@@QEAAAEAV01@AEBV01@@Z 0000000180070270 f i connect_manager.obj
 0001:0006f2c0       ??4?$_Tree_unchecked_const_iterator@V?$_Tree_val@U?$_Tree_simple_types@U?$pair@$$CBKPEAUconns_pools@acl@@@std@@@std@@@std@@U_Iterator_base12@2@@std@@QEAAAEAV01@AEBV01@@Z 00000001800702c0 f i connect_manager.obj
 0001:0006f330       ??4?$_Tree_unchecked_const_iterator@V?$_Tree_val@U?$_Tree_simple_types@U?$pair@$$CBVstring@acl@@Uconn_config@connect_manager@2@@std@@@std@@@std@@U_Iterator_base12@2@@std@@QEAAAEAV01@AEBV01@@Z 0000000180070330 f i connect_manager.obj
 0001:0006f3a0       ??4conn_config@connect_manager@acl@@QEAAAEAU012@AEBU012@@Z 00000001800703a0 f i connect_manager.obj
 0001:0006f430       ??8?$_Tree_const_iterator@V?$_Tree_val@U?$_Tree_simple_types@U?$pair@$$CBKPEAUconns_pools@acl@@@std@@@std@@@std@@@std@@QEBA_NAEBV01@@Z 0000000180070430 f i connect_manager.obj
 0001:0006f5a0       ??8?$_Tree_const_iterator@V?$_Tree_val@U?$_Tree_simple_types@U?$pair@$$CBVstring@acl@@Uconn_config@connect_manager@2@@std@@@std@@@std@@@std@@QEBA_NAEBV01@@Z 00000001800705a0 f i connect_manager.obj
 0001:0006f710       ??9?$_Tree_const_iterator@V?$_Tree_val@U?$_Tree_simple_types@U?$pair@$$CBKPEAUconns_pools@acl@@@std@@@std@@@std@@@std@@QEBA_NAEBV01@@Z 0000000180070710 f i connect_manager.obj
 0001:0006f780       ??9?$_Tree_const_iterator@V?$_Tree_val@U?$_Tree_simple_types@U?$pair@$$CBVstring@acl@@Uconn_config@connect_manager@2@@std@@@std@@@std@@@std@@QEBA_NAEBV01@@Z 0000000180070780 f i connect_manager.obj
 0001:0006f7f0       ??A?$map@KPEAUconns_pools@acl@@U?$less@K@std@@V?$allocator@U?$pair@$$CBKPEAUconns_pools@acl@@@std@@@4@@std@@QEAAAEAPEAUconns_pools@acl@@AEBK@Z 00000001800707f0 f i connect_manager.obj
 0001:0006fb00       ??A?$map@Vstring@acl@@Uconn_config@connect_manager@2@U?$less@Vstring@acl@@@std@@V?$allocator@U?$pair@$$CBVstring@acl@@Uconn_config@connect_manager@2@@std@@@6@@std@@QEAAAEAUconn_config@connect_manager@acl@@AEBVstring@4@@Z 0000000180070b00 f i connect_manager.obj
 0001:0006fe10       ??A?$vector@PEAVconnect_pool@acl@@V?$allocator@PEAVconnect_pool@acl@@@std@@@std@@QEAAAEAPEAVconnect_pool@acl@@_K@Z 0000000180070e10 f i connect_manager.obj
 0001:0006ff30       ??C?$_Tree_const_iterator@V?$_Tree_val@U?$_Tree_simple_types@U?$pair@$$CBKPEAUconns_pools@acl@@@std@@@std@@@std@@@std@@QEBAPEBU?$pair@$$CBKPEAUconns_pools@acl@@@1@XZ 0000000180070f30 f i connect_manager.obj
 0001:0006ff80       ??C?$_Tree_const_iterator@V?$_Tree_val@U?$_Tree_simple_types@U?$pair@$$CBVstring@acl@@Uconn_config@connect_manager@2@@std@@@std@@@std@@@std@@QEBAPEBU?$pair@$$CBVstring@acl@@Uconn_config@connect_manager@2@@1@XZ 0000000180070f80 f i connect_manager.obj
 0001:0006ffd0       ??C?$_Tree_iterator@V?$_Tree_val@U?$_Tree_simple_types@U?$pair@$$CBKPEAUconns_pools@acl@@@std@@@std@@@std@@@std@@QEBAPEAU?$pair@$$CBKPEAUconns_pools@acl@@@1@XZ 0000000180070fd0 f i connect_manager.obj
 0001:00070020       ??C?$_Tree_iterator@V?$_Tree_val@U?$_Tree_simple_types@U?$pair@$$CBVstring@acl@@Uconn_config@connect_manager@2@@std@@@std@@@std@@@std@@QEBAPEAU?$pair@$$CBVstring@acl@@Uconn_config@connect_manager@2@@1@XZ 0000000180071020 f i connect_manager.obj
 0001:00070070       ??D?$_Tree_const_iterator@V?$_Tree_val@U?$_Tree_simple_types@U?$pair@$$CBKPEAUconns_pools@acl@@@std@@@std@@@std@@@std@@QEBAAEBU?$pair@$$CBKPEAUconns_pools@acl@@@1@XZ 0000000180071070 f i connect_manager.obj
 0001:000701b0       ??D?$_Tree_const_iterator@V?$_Tree_val@U?$_Tree_simple_types@U?$pair@$$CBVstring@acl@@Uconn_config@connect_manager@2@@std@@@std@@@std@@@std@@QEBAAEBU?$pair@$$CBVstring@acl@@Uconn_config@connect_manager@2@@1@XZ 00000001800711b0 f i connect_manager.obj
 0001:000702f0       ??D?$_Tree_iterator@V?$_Tree_val@U?$_Tree_simple_types@U?$pair@$$CBKPEAUconns_pools@acl@@@std@@@std@@@std@@@std@@QEBAAEAU?$pair@$$CBKPEAUconns_pools@acl@@@1@XZ 00000001800712f0 f i connect_manager.obj
 0001:00070330       ??D?$_Tree_iterator@V?$_Tree_val@U?$_Tree_simple_types@U?$pair@$$CBVstring@acl@@Uconn_config@connect_manager@2@@std@@@std@@@std@@@std@@QEBAAEAU?$pair@$$CBVstring@acl@@Uconn_config@connect_manager@2@@1@XZ 0000000180071330 f i connect_manager.obj
 0001:00070370       ??D?$_Vector_iterator@V?$_Vector_val@U?$_Simple_types@PEAVconnect_pool@acl@@@std@@@std@@@std@@QEBAAEAPEAVconnect_pool@acl@@XZ 0000000180071370 f i connect_manager.obj
 0001:000703b0       ??E?$_Tree_const_iterator@V?$_Tree_val@U?$_Tree_simple_types@U?$pair@$$CBKPEAUconns_pools@acl@@@std@@@std@@@std@@@std@@QEAA?AV01@H@Z 00000001800713b0 f i connect_manager.obj
 0001:00070470       ??E?$_Tree_const_iterator@V?$_Tree_val@U?$_Tree_simple_types@U?$pair@$$CBKPEAUconns_pools@acl@@@std@@@std@@@std@@@std@@QEAAAEAV01@XZ 0000000180071470 f i connect_manager.obj
 0001:000705b0       ??E?$_Tree_const_iterator@V?$_Tree_val@U?$_Tree_simple_types@U?$pair@$$CBVstring@acl@@Uconn_config@connect_manager@2@@std@@@std@@@std@@@std@@QEAA?AV01@H@Z 00000001800715b0 f i connect_manager.obj
 0001:00070670       ??E?$_Tree_const_iterator@V?$_Tree_val@U?$_Tree_simple_types@U?$pair@$$CBVstring@acl@@Uconn_config@connect_manager@2@@std@@@std@@@std@@@std@@QEAAAEAV01@XZ 0000000180071670 f i connect_manager.obj
 0001:000707b0       ??E?$_Tree_iterator@V?$_Tree_val@U?$_Tree_simple_types@U?$pair@$$CBKPEAUconns_pools@acl@@@std@@@std@@@std@@@std@@QEAAAEAV01@XZ 00000001800717b0 f i connect_manager.obj
 0001:000707f0       ??E?$_Tree_unchecked_const_iterator@V?$_Tree_val@U?$_Tree_simple_types@U?$pair@$$CBKPEAUconns_pools@acl@@@std@@@std@@@std@@U_Iterator_base12@2@@std@@QEAAAEAV01@XZ 00000001800717f0 f i connect_manager.obj
 0001:00070910       ??E?$_Tree_unchecked_const_iterator@V?$_Tree_val@U?$_Tree_simple_types@U?$pair@$$CBVstring@acl@@Uconn_config@connect_manager@2@@std@@@std@@@std@@U_Iterator_base12@2@@std@@QEAAAEAV01@XZ 0000000180071910 f i connect_manager.obj
 0001:00070a30       ??E?$_Vector_iterator@V?$_Vector_val@U?$_Simple_types@PEAVconnect_pool@acl@@@std@@@std@@@std@@QEAAAEAV01@XZ 0000000180071a30 f i connect_manager.obj
 0001:00070a70       ??F?$_Tree_const_iterator@V?$_Tree_val@U?$_Tree_simple_types@U?$pair@$$CBKPEAUconns_pools@acl@@@std@@@std@@@std@@@std@@QEAAAEAV01@XZ 0000000180071a70 f i connect_manager.obj
 0001:00070c70       ??F?$_Tree_const_iterator@V?$_Tree_val@U?$_Tree_simple_types@U?$pair@$$CBVstring@acl@@Uconn_config@connect_manager@2@@std@@@std@@@std@@@std@@QEAAAEAV01@XZ 0000000180071c70 f i connect_manager.obj
 0001:00070e70       ??F?$_Tree_iterator@V?$_Tree_val@U?$_Tree_simple_types@U?$pair@$$CBKPEAUconns_pools@acl@@@std@@@std@@@std@@@std@@QEAAAEAV01@XZ 0000000180071e70 f i connect_manager.obj
 0001:00070eb0       ??F?$_Tree_iterator@V?$_Tree_val@U?$_Tree_simple_types@U?$pair@$$CBVstring@acl@@Uconn_config@connect_manager@2@@std@@@std@@@std@@@std@@QEAAAEAV01@XZ 0000000180071eb0 f i connect_manager.obj
 0001:00070ef0       ??F?$_Tree_unchecked_const_iterator@V?$_Tree_val@U?$_Tree_simple_types@U?$pair@$$CBKPEAUconns_pools@acl@@@std@@@std@@@std@@U_Iterator_base12@2@@std@@QEAAAEAV01@XZ 0000000180071ef0 f i connect_manager.obj
 0001:00071050       ??F?$_Tree_unchecked_const_iterator@V?$_Tree_val@U?$_Tree_simple_types@U?$pair@$$CBVstring@acl@@Uconn_config@connect_manager@2@@std@@@std@@@std@@U_Iterator_base12@2@@std@@QEAAAEAV01@XZ 0000000180072050 f i connect_manager.obj
 0001:000711b0       ??R?$less@K@std@@QEBA_NAEBK0@Z 00000001800721b0 f i connect_manager.obj
 0001:00071220       ??_Econnect_manager@acl@@UEAAPEAXI@Z 0000000180072220 f i connect_manager.obj
 0001:000712f0       ??_G?$pair@$$CBVstring@acl@@Uconn_config@connect_manager@2@@std@@QEAAPEAXI@Z 00000001800722f0 f i connect_manager.obj
 0001:00071350       ??_Gconnect_manager@acl@@UEAAPEAXI@Z 0000000180072350 f i connect_manager.obj
 0001:000713b0       ??_Gconns_pools@acl@@QEAAPEAXI@Z 00000001800723b0 f i connect_manager.obj
 0001:00071410       ?_Alloc_proxy@?$_Tree_alloc@$0A@U?$_Tree_base_types@U?$pair@$$CBKPEAUconns_pools@acl@@@std@@V?$allocator@U?$pair@$$CBKPEAUconns_pools@acl@@@std@@@2@@std@@@std@@QEAAXXZ 0000000180072410 f i connect_manager.obj
 0001:000714d0       ?_Alloc_proxy@?$_Tree_alloc@$0A@U?$_Tree_base_types@U?$pair@$$CBVstring@acl@@Uconn_config@connect_manager@2@@std@@V?$allocator@U?$pair@$$CBVstring@acl@@Uconn_config@connect_manager@2@@std@@@2@@std@@@std@@QEAAXXZ 00000001800724d0 f i connect_manager.obj
 0001:00071590       ?_Alloc_proxy@?$_Vector_alloc@$0A@U?$_Vec_base_types@PEAVconnect_pool@acl@@V?$allocator@PEAVconnect_pool@acl@@@std@@@std@@@std@@QEAAXXZ 0000000180072590 f i connect_manager.obj
 0001:00071640       ?_Buyheadnode@?$_Tree_alloc@$0A@U?$_Tree_base_types@U?$pair@$$CBKPEAUconns_pools@acl@@@std@@V?$allocator@U?$pair@$$CBKPEAUconns_pools@acl@@@std@@@2@@std@@@std@@QEAAPEAU?$_Tree_node@U?$pair@$$CBKPEAUconns_pools@acl@@@std@@PEAX@2@XZ 0000000180072640 f i connect_manager.obj
 0001:000717f0       ?_Buyheadnode@?$_Tree_alloc@$0A@U?$_Tree_base_types@U?$pair@$$CBVstring@acl@@Uconn_config@connect_manager@2@@std@@V?$allocator@U?$pair@$$CBVstring@acl@@Uconn_config@connect_manager@2@@std@@@2@@std@@@std@@QEAAPEAU?$_Tree_node@U?$pair@$$CBVstring@acl@@Uconn_config@connect_manager@2@@std@@PEAX@2@XZ 00000001800727f0 f i connect_manager.obj
 0001:000719a0       ?_Buynode0@?$_Tree_buy@U?$pair@$$CBKPEAUconns_pools@acl@@@std@@V?$allocator@U?$pair@$$CBKPEAUconns_pools@acl@@@std@@@2@@std@@QEAAPEAU?$_Tree_node@U?$pair@$$CBKPEAUconns_pools@acl@@@std@@PEAX@2@XZ 00000001800729a0 f i connect_manager.obj
 0001:00071b60       ?_Buynode0@?$_Tree_buy@U?$pair@$$CBVstring@acl@@Uconn_config@connect_manager@2@@std@@V?$allocator@U?$pair@$$CBVstring@acl@@Uconn_config@connect_manager@2@@std@@@2@@std@@QEAAPEAU?$_Tree_node@U?$pair@$$CBVstring@acl@@Uconn_config@connect_manager@2@@std@@PEAX@2@XZ 0000000180072b60 f i connect_manager.obj
 0001:00071d20       ?_Color@?$_Tree_val@U?$_Tree_simple_types@U?$pair@$$CBKPEAUconns_pools@acl@@@std@@@std@@@std@@SAAEADPEAU?$_Tree_node@U?$pair@$$CBKPEAUconns_pools@acl@@@std@@PEAX@2@@Z 0000000180072d20 f i connect_manager.obj
 0001:00071d40       ?_Color@?$_Tree_val@U?$_Tree_simple_types@U?$pair@$$CBVstring@acl@@Uconn_config@connect_manager@2@@std@@@std@@@std@@SAAEADPEAU?$_Tree_node@U?$pair@$$CBVstring@acl@@Uconn_config@connect_manager@2@@std@@PEAX@2@@Z 0000000180072d40 f i connect_manager.obj
 0001:00071d60       ?_Destroy@?$vector@PEAVconnect_pool@acl@@V?$allocator@PEAVconnect_pool@acl@@@std@@@std@@IEAAXPEAPEAVconnect_pool@acl@@0@Z 0000000180072d60 f i connect_manager.obj
 0001:00071de0       ?_Destroy_if_not_nil@?$_Tree@V?$_Tmap_traits@KPEAUconns_pools@acl@@U?$less@K@std@@V?$allocator@U?$pair@$$CBKPEAUconns_pools@acl@@@std@@@4@$0A@@std@@@std@@IEAAXPEAU?$_Tree_node@U?$pair@$$CBKPEAUconns_pools@acl@@@std@@PEAX@2@@Z 0000000180072de0 f i connect_manager.obj
 0001:00071e90       ?_Destroy_if_not_nil@?$_Tree@V?$_Tmap_traits@Vstring@acl@@Uconn_config@connect_manager@2@U?$less@Vstring@acl@@@std@@V?$allocator@U?$pair@$$CBVstring@acl@@Uconn_config@connect_manager@2@@std@@@6@$0A@@std@@@std@@IEAAXPEAU?$_Tree_node@U?$pair@$$CBVstring@acl@@Uconn_config@connect_manager@2@@std@@PEAX@2@@Z 0000000180072e90 f i connect_manager.obj
 0001:00071f40       ?_Erase@?$_Tree@V?$_Tmap_traits@KPEAUconns_pools@acl@@U?$less@K@std@@V?$allocator@U?$pair@$$CBKPEAUconns_pools@acl@@@std@@@4@$0A@@std@@@std@@IEAAXPEAU?$_Tree_node@U?$pair@$$CBKPEAUconns_pools@acl@@@std@@PEAX@2@@Z 0000000180072f40 f i connect_manager.obj
 0001:00072050       ?_Erase@?$_Tree@V?$_Tmap_traits@Vstring@acl@@Uconn_config@connect_manager@2@U?$less@Vstring@acl@@@std@@V?$allocator@U?$pair@$$CBVstring@acl@@Uconn_config@connect_manager@2@@std@@@6@$0A@@std@@@std@@IEAAXPEAU?$_Tree_node@U?$pair@$$CBVstring@acl@@Uconn_config@connect_manager@2@@std@@PEAX@2@@Z 0000000180073050 f i connect_manager.obj
 0001:00072160       ?_Free_proxy@?$_Tree_alloc@$0A@U?$_Tree_base_types@U?$pair@$$CBKPEAUconns_pools@acl@@@std@@V?$allocator@U?$pair@$$CBKPEAUconns_pools@acl@@@std@@@2@@std@@@std@@QEAAXXZ 0000000180073160 f i connect_manager.obj
 0001:00072220       ?_Free_proxy@?$_Tree_alloc@$0A@U?$_Tree_base_types@U?$pair@$$CBVstring@acl@@Uconn_config@connect_manager@2@@std@@V?$allocator@U?$pair@$$CBVstring@acl@@Uconn_config@connect_manager@2@@std@@@2@@std@@@std@@QEAAXXZ 0000000180073220 f i connect_manager.obj
 0001:000722e0       ?_Free_proxy@?$_Vector_alloc@$0A@U?$_Vec_base_types@PEAVconnect_pool@acl@@V?$allocator@PEAVconnect_pool@acl@@@std@@@std@@@std@@QEAAXXZ 00000001800732e0 f i connect_manager.obj
 0001:00072380       ?_Freeheadnode@?$_Tree_alloc@$0A@U?$_Tree_base_types@U?$pair@$$CBKPEAUconns_pools@acl@@@std@@V?$allocator@U?$pair@$$CBKPEAUconns_pools@acl@@@std@@@2@@std@@@std@@QEAAXPEAU?$_Tree_node@U?$pair@$$CBKPEAUconns_pools@acl@@@std@@PEAX@2@@Z 0000000180073380 f i connect_manager.obj
 0001:000724b0       ?_Freeheadnode@?$_Tree_alloc@$0A@U?$_Tree_base_types@U?$pair@$$CBVstring@acl@@Uconn_config@connect_manager@2@@std@@V?$allocator@U?$pair@$$CBVstring@acl@@Uconn_config@connect_manager@2@@std@@@2@@std@@@std@@QEAAXPEAU?$_Tree_node@U?$pair@$$CBVstring@acl@@Uconn_config@connect_manager@2@@std@@PEAX@2@@Z 00000001800734b0 f i connect_manager.obj
 0001:000725e0       ?_Freenode0@?$_Tree_buy@U?$pair@$$CBKPEAUconns_pools@acl@@@std@@V?$allocator@U?$pair@$$CBKPEAUconns_pools@acl@@@std@@@2@@std@@QEAAXPEAU?$_Tree_node@U?$pair@$$CBKPEAUconns_pools@acl@@@std@@PEAX@2@@Z 00000001800735e0 f i connect_manager.obj
 0001:00072710       ?_Freenode0@?$_Tree_buy@U?$pair@$$CBVstring@acl@@Uconn_config@connect_manager@2@@std@@V?$allocator@U?$pair@$$CBVstring@acl@@Uconn_config@connect_manager@2@@std@@@2@@std@@QEAAXPEAU?$_Tree_node@U?$pair@$$CBVstring@acl@@Uconn_config@connect_manager@2@@std@@PEAX@2@@Z 0000000180073710 f i connect_manager.obj
 0001:00072840       ?_Get_rest@?$tuple@AEBK@std@@QEAAAEAV?$tuple@$$$V@2@XZ 0000000180073840 f i connect_manager.obj
 0001:00072850       ?_Get_rest@?$tuple@AEBVstring@acl@@@std@@QEAAAEAV?$tuple@$$$V@2@XZ 0000000180073850 f i connect_manager.obj
 0001:00072860       ?_Getal@?$_Tree_alloc@$0A@U?$_Tree_base_types@U?$pair@$$CBKPEAUconns_pools@acl@@@std@@V?$allocator@U?$pair@$$CBKPEAUconns_pools@acl@@@std@@@2@@std@@@std@@QEBA?AU?$_Wrap_alloc@V?$allocator@U?$_Tree_node@U?$pair@$$CBKPEAUconns_pools@acl@@@std@@PEAX@std@@@std@@@2@XZ 0000000180073860 f i connect_manager.obj
 0001:000728b0       ?_Getal@?$_Tree_alloc@$0A@U?$_Tree_base_types@U?$pair@$$CBVstring@acl@@Uconn_config@connect_manager@2@@std@@V?$allocator@U?$pair@$$CBVstring@acl@@Uconn_config@connect_manager@2@@std@@@2@@std@@@std@@QEBA?AU?$_Wrap_alloc@V?$allocator@U?$_Tree_node@U?$pair@$$CBVstring@acl@@Uconn_config@connect_manager@2@@std@@PEAX@std@@@std@@@2@XZ 00000001800738b0 f i connect_manager.obj
 0001:00072900       ?_Getal@?$_Vector_alloc@$0A@U?$_Vec_base_types@PEAVconnect_pool@acl@@V?$allocator@PEAVconnect_pool@acl@@@std@@@std@@@std@@QEBA?AU?$_Wrap_alloc@V?$allocator@PEAVconnect_pool@acl@@@std@@@2@XZ 0000000180073900 f i connect_manager.obj
 0001:00072950       ?_Getcomp@?$_Tree_comp@$0A@V?$_Tmap_traits@KPEAUconns_pools@acl@@U?$less@K@std@@V?$allocator@U?$pair@$$CBKPEAUconns_pools@acl@@@std@@@4@$0A@@std@@@std@@QEBA?AU?$less@K@2@XZ 0000000180073950 f i connect_manager.obj
 0001:00072990       ?_Getcomp@?$_Tree_comp@$0A@V?$_Tmap_traits@Vstring@acl@@Uconn_config@connect_manager@2@U?$less@Vstring@acl@@@std@@V?$allocator@U?$pair@$$CBVstring@acl@@Uconn_config@connect_manager@2@@std@@@6@$0A@@std@@@std@@QEBA?AU?$less@Vstring@acl@@@2@XZ 0000000180073990 f i connect_manager.obj
 0001:000729d0       ?_Grow_to@?$vector@PEAVconnect_pool@acl@@V?$allocator@PEAVconnect_pool@acl@@@std@@@std@@IEBA_K_K@Z 00000001800739d0 f i connect_manager.obj
 0001:00072ac0       ?_Inside@?$vector@PEAVconnect_pool@acl@@V?$allocator@PEAVconnect_pool@acl@@@std@@@std@@IEBA_NPEBQEAVconnect_pool@acl@@@Z 0000000180073ac0 f i connect_manager.obj
 0001:00072b40       ?_Isnil@?$_Tree_val@U?$_Tree_simple_types@U?$pair@$$CBKPEAUconns_pools@acl@@@std@@@std@@@std@@SAAEADPEAU?$_Tree_node@U?$pair@$$CBKPEAUconns_pools@acl@@@std@@PEAX@2@@Z 0000000180073b40 f i connect_manager.obj
 0001:00072b60       ?_Isnil@?$_Tree_val@U?$_Tree_simple_types@U?$pair@$$CBVstring@acl@@Uconn_config@connect_manager@2@@std@@@std@@@std@@SAAEADPEAU?$_Tree_node@U?$pair@$$CBVstring@acl@@Uconn_config@connect_manager@2@@std@@PEAX@2@@Z 0000000180073b60 f i connect_manager.obj
 0001:00072b80       ?_Key@?$_Tree@V?$_Tmap_traits@KPEAUconns_pools@acl@@U?$less@K@std@@V?$allocator@U?$pair@$$CBKPEAUconns_pools@acl@@@std@@@4@$0A@@std@@@std@@IEBAAEBKPEAU?$_Tree_node@U?$pair@$$CBKPEAUconns_pools@acl@@@std@@PEAX@2@@Z 0000000180073b80 f i connect_manager.obj
 0001:00072bd0       ?_Key@?$_Tree@V?$_Tmap_traits@Vstring@acl@@Uconn_config@connect_manager@2@U?$less@Vstring@acl@@@std@@V?$allocator@U?$pair@$$CBVstring@acl@@Uconn_config@connect_manager@2@@std@@@6@$0A@@std@@@std@@IEBAAEBVstring@acl@@PEAU?$_Tree_node@U?$pair@$$CBVstring@acl@@Uconn_config@connect_manager@2@@std@@PEAX@2@@Z 0000000180073bd0 f i connect_manager.obj
 0001:00072c20       ?_Kfn@?$_Tree@V?$_Tmap_traits@KPEAUconns_pools@acl@@U?$less@K@std@@V?$allocator@U?$pair@$$CBKPEAUconns_pools@acl@@@std@@@4@$0A@@std@@@std@@IEBAAEBKAEBU?$pair@$$CBKPEAUconns_pools@acl@@@2@@Z 0000000180073c20 f i connect_manager.obj
 0001:00072c60       ?_Kfn@?$_Tree@V?$_Tmap_traits@Vstring@acl@@Uconn_config@connect_manager@2@U?$less@Vstring@acl@@@std@@V?$allocator@U?$pair@$$CBVstring@acl@@Uconn_config@connect_manager@2@@std@@@6@$0A@@std@@@std@@IEBAAEBVstring@acl@@AEBU?$pair@$$CBVstring@acl@@Uconn_config@connect_manager@2@@2@@Z 0000000180073c60 f i connect_manager.obj
 0001:00072ca0       ?_Lbound@?$_Tree@V?$_Tmap_traits@KPEAUconns_pools@acl@@U?$less@K@std@@V?$allocator@U?$pair@$$CBKPEAUconns_pools@acl@@@std@@@4@$0A@@std@@@std@@IEAAPEAU?$_Tree_node@U?$pair@$$CBKPEAUconns_pools@acl@@@std@@PEAX@2@AEBK@Z 0000000180073ca0 f i connect_manager.obj
 0001:00072dc0       ?_Lbound@?$_Tree@V?$_Tmap_traits@Vstring@acl@@Uconn_config@connect_manager@2@U?$less@Vstring@acl@@@std@@V?$allocator@U?$pair@$$CBVstring@acl@@Uconn_config@connect_manager@2@@std@@@6@$0A@@std@@@std@@IEAAPEAU?$_Tree_node@U?$pair@$$CBVstring@acl@@Uconn_config@connect_manager@2@@std@@PEAX@2@AEBVstring@acl@@@Z 0000000180073dc0 f i connect_manager.obj
 0001:00072ee0       ?_Left@?$_Tree_val@U?$_Tree_simple_types@U?$pair@$$CBKPEAUconns_pools@acl@@@std@@@std@@@std@@SAAEAPEAU?$_Tree_node@U?$pair@$$CBKPEAUconns_pools@acl@@@std@@PEAX@2@PEAU32@@Z 0000000180073ee0 f i connect_manager.obj
 0001:00072ef0       ?_Left@?$_Tree_val@U?$_Tree_simple_types@U?$pair@$$CBVstring@acl@@Uconn_config@connect_manager@2@@std@@@std@@@std@@SAAEAPEAU?$_Tree_node@U?$pair@$$CBVstring@acl@@Uconn_config@connect_manager@2@@std@@PEAX@2@PEAU32@@Z 0000000180073ef0 f i connect_manager.obj
 0001:00072f00       ?_Lmost@?$_Tree@V?$_Tmap_traits@KPEAUconns_pools@acl@@U?$less@K@std@@V?$allocator@U?$pair@$$CBKPEAUconns_pools@acl@@@std@@@4@$0A@@std@@@std@@IEBAAEAPEAU?$_Tree_node@U?$pair@$$CBKPEAUconns_pools@acl@@@std@@PEAX@2@XZ 0000000180073f00 f i connect_manager.obj
 0001:00072f40       ?_Lmost@?$_Tree@V?$_Tmap_traits@Vstring@acl@@Uconn_config@connect_manager@2@U?$less@Vstring@acl@@@std@@V?$allocator@U?$pair@$$CBVstring@acl@@Uconn_config@connect_manager@2@@std@@@6@$0A@@std@@@std@@IEBAAEAPEAU?$_Tree_node@U?$pair@$$CBVstring@acl@@Uconn_config@connect_manager@2@@std@@PEAX@2@XZ 0000000180073f40 f i connect_manager.obj
 0001:00072f80       ?_Lrotate@?$_Tree@V?$_Tmap_traits@KPEAUconns_pools@acl@@U?$less@K@std@@V?$allocator@U?$pair@$$CBKPEAUconns_pools@acl@@@std@@@4@$0A@@std@@@std@@IEAAXPEAU?$_Tree_node@U?$pair@$$CBKPEAUconns_pools@acl@@@std@@PEAX@2@@Z 0000000180073f80 f i connect_manager.obj
 0001:00073130       ?_Lrotate@?$_Tree@V?$_Tmap_traits@Vstring@acl@@Uconn_config@connect_manager@2@U?$less@Vstring@acl@@@std@@V?$allocator@U?$pair@$$CBVstring@acl@@Uconn_config@connect_manager@2@@std@@@6@$0A@@std@@@std@@IEAAXPEAU?$_Tree_node@U?$pair@$$CBVstring@acl@@Uconn_config@connect_manager@2@@std@@PEAX@2@@Z 0000000180074130 f i connect_manager.obj
 0001:000732e0       ?_Make_iter@?$vector@PEAVconnect_pool@acl@@V?$allocator@PEAVconnect_pool@acl@@@std@@@std@@QEBA?AV?$_Vector_iterator@V?$_Vector_val@U?$_Simple_types@PEAVconnect_pool@acl@@@std@@@std@@@2@V?$_Vector_const_iterator@V?$_Vector_val@U?$_Simple_types@PEAVconnect_pool@acl@@@std@@@std@@@2@@Z 00000001800742e0 f i connect_manager.obj
 0001:00073370       ?_Max@?$_Tree_val@U?$_Tree_simple_types@U?$pair@$$CBKPEAUconns_pools@acl@@@std@@@std@@@std@@SAPEAU?$_Tree_node@U?$pair@$$CBKPEAUconns_pools@acl@@@std@@PEAX@2@PEAU32@@Z 0000000180074370 f i connect_manager.obj
 0001:000733e0       ?_Max@?$_Tree_val@U?$_Tree_simple_types@U?$pair@$$CBVstring@acl@@Uconn_config@connect_manager@2@@std@@@std@@@std@@SAPEAU?$_Tree_node@U?$pair@$$CBVstring@acl@@Uconn_config@connect_manager@2@@std@@PEAX@2@PEAU32@@Z 00000001800743e0 f i connect_manager.obj
 0001:00073450       ?_Min@?$_Tree_val@U?$_Tree_simple_types@U?$pair@$$CBKPEAUconns_pools@acl@@@std@@@std@@@std@@SAPEAU?$_Tree_node@U?$pair@$$CBKPEAUconns_pools@acl@@@std@@PEAX@2@PEAU32@@Z 0000000180074450 f i connect_manager.obj
 0001:000734c0       ?_Min@?$_Tree_val@U?$_Tree_simple_types@U?$pair@$$CBVstring@acl@@Uconn_config@connect_manager@2@@std@@@std@@@std@@SAPEAU?$_Tree_node@U?$pair@$$CBVstring@acl@@Uconn_config@connect_manager@2@@std@@PEAX@2@PEAU32@@Z 00000001800744c0 f i connect_manager.obj
 0001:00073530       ?_Mynode@?$_Tree_unchecked_const_iterator@V?$_Tree_val@U?$_Tree_simple_types@U?$pair@$$CBKPEAUconns_pools@acl@@@std@@@std@@@std@@U_Iterator_base12@2@@std@@QEBAPEAU?$_Tree_node@U?$pair@$$CBKPEAUconns_pools@acl@@@std@@PEAX@2@XZ 0000000180074530 f i connect_manager.obj
 0001:00073550       ?_Mynode@?$_Tree_unchecked_const_iterator@V?$_Tree_val@U?$_Tree_simple_types@U?$pair@$$CBVstring@acl@@Uconn_config@connect_manager@2@@std@@@std@@@std@@U_Iterator_base12@2@@std@@QEBAPEAU?$_Tree_node@U?$pair@$$CBVstring@acl@@Uconn_config@connect_manager@2@@std@@PEAX@2@XZ 0000000180074550 f i connect_manager.obj
 0001:00073570       ?_Myval@?$_Tree_val@U?$_Tree_simple_types@U?$pair@$$CBKPEAUconns_pools@acl@@@std@@@std@@@std@@SAAEAU?$pair@$$CBKPEAUconns_pools@acl@@@2@PEAU?$_Tree_node@U?$pair@$$CBKPEAUconns_pools@acl@@@std@@PEAX@2@@Z 0000000180074570 f i connect_manager.obj
 0001:00073590       ?_Myval@?$_Tree_val@U?$_Tree_simple_types@U?$pair@$$CBVstring@acl@@Uconn_config@connect_manager@2@@std@@@std@@@std@@SAAEAU?$pair@$$CBVstring@acl@@Uconn_config@connect_manager@2@@2@PEAU?$_Tree_node@U?$pair@$$CBVstring@acl@@Uconn_config@connect_manager@2@@std@@PEAX@2@@Z 0000000180074590 f i connect_manager.obj
 0001:000735b0       ?_Orphan_ptr@?$_Tree@V?$_Tmap_traits@KPEAUconns_pools@acl@@U?$less@K@std@@V?$allocator@U?$pair@$$CBKPEAUconns_pools@acl@@@std@@@4@$0A@@std@@@std@@IEBAXAEAV12@PEAU?$_Tree_node@U?$pair@$$CBKPEAUconns_pools@acl@@@std@@PEAX@2@@Z 00000001800745b0 f i connect_manager.obj
 0001:000736e0       ?_Orphan_ptr@?$_Tree@V?$_Tmap_traits@Vstring@acl@@Uconn_config@connect_manager@2@U?$less@Vstring@acl@@@std@@V?$allocator@U?$pair@$$CBVstring@acl@@Uconn_config@connect_manager@2@@std@@@6@$0A@@std@@@std@@IEBAXAEAV12@PEAU?$_Tree_node@U?$pair@$$CBVstring@acl@@Uconn_config@connect_manager@2@@std@@PEAX@2@@Z 00000001800746e0 f i connect_manager.obj
 0001:00073810       ?_Orphan_range@?$vector@PEAVconnect_pool@acl@@V?$allocator@PEAVconnect_pool@acl@@@std@@@std@@IEBAXPEAPEAVconnect_pool@acl@@0@Z 0000000180074810 f i connect_manager.obj
 0001:00073930       ?_Parent@?$_Tree_val@U?$_Tree_simple_types@U?$pair@$$CBKPEAUconns_pools@acl@@@std@@@std@@@std@@SAAEAPEAU?$_Tree_node@U?$pair@$$CBKPEAUconns_pools@acl@@@std@@PEAX@2@PEAU32@@Z 0000000180074930 f i connect_manager.obj
 0001:00073950       ?_Parent@?$_Tree_val@U?$_Tree_simple_types@U?$pair@$$CBVstring@acl@@Uconn_config@connect_manager@2@@std@@@std@@@std@@SAAEAPEAU?$_Tree_node@U?$pair@$$CBVstring@acl@@Uconn_config@connect_manager@2@@std@@PEAX@2@PEAU32@@Z 0000000180074950 f i connect_manager.obj
 0001:00073970       ?_Reallocate@?$vector@PEAVconnect_pool@acl@@V?$allocator@PEAVconnect_pool@acl@@@std@@@std@@IEAAX_K@Z 0000000180074970 f i connect_manager.obj
 0001:00073b00       ?_Reserve@?$vector@PEAVconnect_pool@acl@@V?$allocator@PEAVconnect_pool@acl@@@std@@@std@@IEAAX_K@Z 0000000180074b00 f i connect_manager.obj
 0001:00073bc0       ?_Right@?$_Tree_val@U?$_Tree_simple_types@U?$pair@$$CBKPEAUconns_pools@acl@@@std@@@std@@@std@@SAAEAPEAU?$_Tree_node@U?$pair@$$CBKPEAUconns_pools@acl@@@std@@PEAX@2@PEAU32@@Z 0000000180074bc0 f i connect_manager.obj
 0001:00073be0       ?_Right@?$_Tree_val@U?$_Tree_simple_types@U?$pair@$$CBVstring@acl@@Uconn_config@connect_manager@2@@std@@@std@@@std@@SAAEAPEAU?$_Tree_node@U?$pair@$$CBVstring@acl@@Uconn_config@connect_manager@2@@std@@PEAX@2@PEAU32@@Z 0000000180074be0 f i connect_manager.obj
 0001:00073c00       ?_Rmost@?$_Tree@V?$_Tmap_traits@KPEAUconns_pools@acl@@U?$less@K@std@@V?$allocator@U?$pair@$$CBKPEAUconns_pools@acl@@@std@@@4@$0A@@std@@@std@@IEBAAEAPEAU?$_Tree_node@U?$pair@$$CBKPEAUconns_pools@acl@@@std@@PEAX@2@XZ 0000000180074c00 f i connect_manager.obj
 0001:00073c40       ?_Rmost@?$_Tree@V?$_Tmap_traits@Vstring@acl@@Uconn_config@connect_manager@2@U?$less@Vstring@acl@@@std@@V?$allocator@U?$pair@$$CBVstring@acl@@Uconn_config@connect_manager@2@@std@@@6@$0A@@std@@@std@@IEBAAEAPEAU?$_Tree_node@U?$pair@$$CBVstring@acl@@Uconn_config@connect_manager@2@@std@@PEAX@2@XZ 0000000180074c40 f i connect_manager.obj
 0001:00073c80       ?_Root@?$_Tree@V?$_Tmap_traits@KPEAUconns_pools@acl@@U?$less@K@std@@V?$allocator@U?$pair@$$CBKPEAUconns_pools@acl@@@std@@@4@$0A@@std@@@std@@IEBAAEAPEAU?$_Tree_node@U?$pair@$$CBKPEAUconns_pools@acl@@@std@@PEAX@2@XZ 0000000180074c80 f i connect_manager.obj
 0001:00073cc0       ?_Root@?$_Tree@V?$_Tmap_traits@Vstring@acl@@Uconn_config@connect_manager@2@U?$less@Vstring@acl@@@std@@V?$allocator@U?$pair@$$CBVstring@acl@@Uconn_config@connect_manager@2@@std@@@6@$0A@@std@@@std@@IEBAAEAPEAU?$_Tree_node@U?$pair@$$CBVstring@acl@@Uconn_config@connect_manager@2@@std@@PEAX@2@XZ 0000000180074cc0 f i connect_manager.obj
 0001:00073d00       ?_Rrotate@?$_Tree@V?$_Tmap_traits@KPEAUconns_pools@acl@@U?$less@K@std@@V?$allocator@U?$pair@$$CBKPEAUconns_pools@acl@@@std@@@4@$0A@@std@@@std@@IEAAXPEAU?$_Tree_node@U?$pair@$$CBKPEAUconns_pools@acl@@@std@@PEAX@2@@Z 0000000180074d00 f i connect_manager.obj
 0001:00073eb0       ?_Rrotate@?$_Tree@V?$_Tmap_traits@Vstring@acl@@Uconn_config@connect_manager@2@U?$less@Vstring@acl@@@std@@V?$allocator@U?$pair@$$CBVstring@acl@@Uconn_config@connect_manager@2@@std@@@6@$0A@@std@@@std@@IEAAXPEAU?$_Tree_node@U?$pair@$$CBVstring@acl@@Uconn_config@connect_manager@2@@std@@PEAX@2@@Z 0000000180074eb0 f i connect_manager.obj
 0001:00074060       ?_Tidy@?$_Tree@V?$_Tmap_traits@KPEAUconns_pools@acl@@U?$less@K@std@@V?$allocator@U?$pair@$$CBKPEAUconns_pools@acl@@@std@@@4@$0A@@std@@@std@@IEAAXXZ 0000000180075060 f i connect_manager.obj
 0001:000741e0       ?_Tidy@?$_Tree@V?$_Tmap_traits@Vstring@acl@@Uconn_config@connect_manager@2@U?$less@Vstring@acl@@@std@@V?$allocator@U?$pair@$$CBVstring@acl@@Uconn_config@connect_manager@2@@std@@@6@$0A@@std@@@std@@IEAAXXZ 00000001800751e0 f i connect_manager.obj
 0001:00074360       ?_Tidy@?$vector@PEAVconnect_pool@acl@@V?$allocator@PEAVconnect_pool@acl@@@std@@@std@@IEAAXXZ 0000000180075360 f i connect_manager.obj
 0001:00074460       ?_Unused_capacity@?$vector@PEAVconnect_pool@acl@@V?$allocator@PEAVconnect_pool@acl@@@std@@@std@@QEBA_KXZ 0000000180075460 f i connect_manager.obj
 0001:00074490       ?_Xlen@?$vector@PEAVconnect_pool@acl@@V?$allocator@PEAVconnect_pool@acl@@@std@@@std@@IEBAXXZ 0000000180075490 f i connect_manager.obj
 0001:000744d0       ?allocate@?$_Wrap_alloc@V?$allocator@PEAVconnect_pool@acl@@@std@@@std@@QEAAPEAPEAVconnect_pool@acl@@_K@Z 00000001800754d0 f i connect_manager.obj
 0001:00074520       ?allocate@?$_Wrap_alloc@V?$allocator@U?$_Tree_node@U?$pair@$$CBKPEAUconns_pools@acl@@@std@@PEAX@std@@@std@@@std@@QEAAPEAU?$_Tree_node@U?$pair@$$CBKPEAUconns_pools@acl@@@std@@PEAX@2@_K@Z 0000000180075520 f i connect_manager.obj
 0001:00074570       ?allocate@?$_Wrap_alloc@V?$allocator@U?$_Tree_node@U?$pair@$$CBVstring@acl@@Uconn_config@connect_manager@2@@std@@PEAX@std@@@std@@@std@@QEAAPEAU?$_Tree_node@U?$pair@$$CBVstring@acl@@Uconn_config@connect_manager@2@@std@@PEAX@2@_K@Z 0000000180075570 f i connect_manager.obj
 0001:000745c0       ?allocate@?$allocator@PEAVconnect_pool@acl@@@std@@QEAAPEAPEAVconnect_pool@acl@@_K@Z 00000001800755c0 f i connect_manager.obj
 0001:00074610       ?allocate@?$allocator@U?$_Tree_node@U?$pair@$$CBKPEAUconns_pools@acl@@@std@@PEAX@std@@@std@@QEAAPEAU?$_Tree_node@U?$pair@$$CBKPEAUconns_pools@acl@@@std@@PEAX@2@_K@Z 0000000180075610 f i connect_manager.obj
 0001:00074660       ?allocate@?$allocator@U?$_Tree_node@U?$pair@$$CBVstring@acl@@Uconn_config@connect_manager@2@@std@@PEAX@std@@@std@@QEAAPEAU?$_Tree_node@U?$pair@$$CBVstring@acl@@Uconn_config@connect_manager@2@@std@@PEAX@2@_K@Z 0000000180075660 f i connect_manager.obj
 0001:000746b0       ?begin@?$_Tree@V?$_Tmap_traits@KPEAUconns_pools@acl@@U?$less@K@std@@V?$allocator@U?$pair@$$CBKPEAUconns_pools@acl@@@std@@@4@$0A@@std@@@std@@QEAA?AV?$_Tree_iterator@V?$_Tree_val@U?$_Tree_simple_types@U?$pair@$$CBKPEAUconns_pools@acl@@@std@@@std@@@std@@@2@XZ 00000001800756b0 f i connect_manager.obj
 0001:00074710       ?begin@?$_Tree@V?$_Tmap_traits@KPEAUconns_pools@acl@@U?$less@K@std@@V?$allocator@U?$pair@$$CBKPEAUconns_pools@acl@@@std@@@4@$0A@@std@@@std@@QEBA?AV?$_Tree_const_iterator@V?$_Tree_val@U?$_Tree_simple_types@U?$pair@$$CBKPEAUconns_pools@acl@@@std@@@std@@@std@@@2@XZ 0000000180075710 f i connect_manager.obj
 0001:00074770       ?begin@?$_Tree@V?$_Tmap_traits@Vstring@acl@@Uconn_config@connect_manager@2@U?$less@Vstring@acl@@@std@@V?$allocator@U?$pair@$$CBVstring@acl@@Uconn_config@connect_manager@2@@std@@@6@$0A@@std@@@std@@QEAA?AV?$_Tree_iterator@V?$_Tree_val@U?$_Tree_simple_types@U?$pair@$$CBVstring@acl@@Uconn_config@connect_manager@2@@std@@@std@@@std@@@2@XZ 0000000180075770 f i connect_manager.obj
 0001:000747d0       ?begin@?$vector@PEAVconnect_pool@acl@@V?$allocator@PEAVconnect_pool@acl@@@std@@@std@@QEAA?AV?$_Vector_iterator@V?$_Vector_val@U?$_Simple_types@PEAVconnect_pool@acl@@@std@@@std@@@2@XZ 00000001800757d0 f i connect_manager.obj
 0001:00074830       ?capacity@?$vector@PEAVconnect_pool@acl@@V?$allocator@PEAVconnect_pool@acl@@@std@@@std@@QEBA_KXZ 0000000180075830 f i connect_manager.obj
 0001:00074860       ?clear@?$_Tree@V?$_Tmap_traits@KPEAUconns_pools@acl@@U?$less@K@std@@V?$allocator@U?$pair@$$CBKPEAUconns_pools@acl@@@std@@@4@$0A@@std@@@std@@QEAAXXZ 0000000180075860 f i connect_manager.obj
 0001:00074930       ?clear@?$_Tree@V?$_Tmap_traits@Vstring@acl@@Uconn_config@connect_manager@2@U?$less@Vstring@acl@@@std@@V?$allocator@U?$pair@$$CBVstring@acl@@Uconn_config@connect_manager@2@@std@@@6@$0A@@std@@@std@@QEAAXXZ 0000000180075930 f i connect_manager.obj
 0001:00074a00       ?construct@?$allocator@PEAVconnect_pool@acl@@@std@@QEAAXPEAPEAVconnect_pool@acl@@AEBQEAV34@@Z 0000000180075a00 f i connect_manager.obj
 0001:00074a90       ?deallocate@?$_Wrap_alloc@V?$allocator@PEAVconnect_pool@acl@@@std@@@std@@QEAAXPEAPEAVconnect_pool@acl@@_K@Z 0000000180075a90 f i connect_manager.obj
 0001:00074af0       ?deallocate@?$_Wrap_alloc@V?$allocator@U?$_Tree_node@U?$pair@$$CBKPEAUconns_pools@acl@@@std@@PEAX@std@@@std@@@std@@QEAAXPEAU?$_Tree_node@U?$pair@$$CBKPEAUconns_pools@acl@@@std@@PEAX@2@_K@Z 0000000180075af0 f i connect_manager.obj
 0001:00074b50       ?deallocate@?$_Wrap_alloc@V?$allocator@U?$_Tree_node@U?$pair@$$CBVstring@acl@@Uconn_config@connect_manager@2@@std@@PEAX@std@@@std@@@std@@QEAAXPEAU?$_Tree_node@U?$pair@$$CBVstring@acl@@Uconn_config@connect_manager@2@@std@@PEAX@2@_K@Z 0000000180075b50 f i connect_manager.obj
 0001:00074bb0       ?deallocate@?$allocator@PEAVconnect_pool@acl@@@std@@QEAAXPEAPEAVconnect_pool@acl@@_K@Z 0000000180075bb0 f i connect_manager.obj
 0001:00074c00       ?deallocate@?$allocator@U?$_Tree_node@U?$pair@$$CBKPEAUconns_pools@acl@@@std@@PEAX@std@@@std@@QEAAXPEAU?$_Tree_node@U?$pair@$$CBKPEAUconns_pools@acl@@@std@@PEAX@2@_K@Z 0000000180075c00 f i connect_manager.obj
 0001:00074c50       ?deallocate@?$allocator@U?$_Tree_node@U?$pair@$$CBVstring@acl@@Uconn_config@connect_manager@2@@std@@PEAX@std@@@std@@QEAAXPEAU?$_Tree_node@U?$pair@$$CBVstring@acl@@Uconn_config@connect_manager@2@@std@@PEAX@2@_K@Z 0000000180075c50 f i connect_manager.obj
 0001:00074ca0       ?empty@?$_Tree@V?$_Tmap_traits@Vstring@acl@@Uconn_config@connect_manager@2@U?$less@Vstring@acl@@@std@@V?$allocator@U?$pair@$$CBVstring@acl@@Uconn_config@connect_manager@2@@std@@@6@$0A@@std@@@std@@QEBA_NXZ 0000000180075ca0 f i connect_manager.obj
 0001:00074d00       ?end@?$_Tree@V?$_Tmap_traits@KPEAUconns_pools@acl@@U?$less@K@std@@V?$allocator@U?$pair@$$CBKPEAUconns_pools@acl@@@std@@@4@$0A@@std@@@std@@QEAA?AV?$_Tree_iterator@V?$_Tree_val@U?$_Tree_simple_types@U?$pair@$$CBKPEAUconns_pools@acl@@@std@@@std@@@std@@@2@XZ 0000000180075d00 f i connect_manager.obj
 0001:00074d60       ?end@?$_Tree@V?$_Tmap_traits@KPEAUconns_pools@acl@@U?$less@K@std@@V?$allocator@U?$pair@$$CBKPEAUconns_pools@acl@@@std@@@4@$0A@@std@@@std@@QEBA?AV?$_Tree_const_iterator@V?$_Tree_val@U?$_Tree_simple_types@U?$pair@$$CBKPEAUconns_pools@acl@@@std@@@std@@@std@@@2@XZ 0000000180075d60 f i connect_manager.obj
 0001:00074dc0       ?end@?$_Tree@V?$_Tmap_traits@Vstring@acl@@Uconn_config@connect_manager@2@U?$less@Vstring@acl@@@std@@V?$allocator@U?$pair@$$CBVstring@acl@@Uconn_config@connect_manager@2@@std@@@6@$0A@@std@@@std@@QEAA?AV?$_Tree_iterator@V?$_Tree_val@U?$_Tree_simple_types@U?$pair@$$CBVstring@acl@@Uconn_config@connect_manager@2@@std@@@std@@@std@@@2@XZ 0000000180075dc0 f i connect_manager.obj
 0001:00074e20       ?end@?$vector@PEAVconnect_pool@acl@@V?$allocator@PEAVconnect_pool@acl@@@std@@@std@@QEAA?AV?$_Vector_iterator@V?$_Vector_val@U?$_Simple_types@PEAVconnect_pool@acl@@@std@@@std@@@2@XZ 0000000180075e20 f i connect_manager.obj
 0001:00074e80       ?erase@?$_Tree@V?$_Tmap_traits@KPEAUconns_pools@acl@@U?$less@K@std@@V?$allocator@U?$pair@$$CBKPEAUconns_pools@acl@@@std@@@4@$0A@@std@@@std@@QEAA?AV?$_Tree_iterator@V?$_Tree_val@U?$_Tree_simple_types@U?$pair@$$CBKPEAUconns_pools@acl@@@std@@@std@@@std@@@2@V?$_Tree_const_iterator@V?$_Tree_val@U?$_Tree_simple_types@U?$pair@$$CBKPEAUconns_pools@acl@@@std@@@std@@@std@@@2@0@Z 0000000180075e80 f i connect_manager.obj
 0001:000751e0       ?erase@?$_Tree@V?$_Tmap_traits@KPEAUconns_pools@acl@@U?$less@K@std@@V?$allocator@U?$pair@$$CBKPEAUconns_pools@acl@@@std@@@4@$0A@@std@@@std@@QEAA?AV?$_Tree_iterator@V?$_Tree_val@U?$_Tree_simple_types@U?$pair@$$CBKPEAUconns_pools@acl@@@std@@@std@@@std@@@2@V?$_Tree_const_iterator@V?$_Tree_val@U?$_Tree_simple_types@U?$pair@$$CBKPEAUconns_pools@acl@@@std@@@std@@@std@@@2@@Z 00000001800761e0 f i connect_manager.obj
 0001:00075d00       ?erase@?$_Tree@V?$_Tmap_traits@Vstring@acl@@Uconn_config@connect_manager@2@U?$less@Vstring@acl@@@std@@V?$allocator@U?$pair@$$CBVstring@acl@@Uconn_config@connect_manager@2@@std@@@6@$0A@@std@@@std@@QEAA?AV?$_Tree_iterator@V?$_Tree_val@U?$_Tree_simple_types@U?$pair@$$CBVstring@acl@@Uconn_config@connect_manager@2@@std@@@std@@@std@@@2@V?$_Tree_const_iterator@V?$_Tree_val@U?$_Tree_simple_types@U?$pair@$$CBVstring@acl@@Uconn_config@connect_manager@2@@std@@@std@@@std@@@2@0@Z 0000000180076d00 f i connect_manager.obj
 0001:00076060       ?erase@?$_Tree@V?$_Tmap_traits@Vstring@acl@@Uconn_config@connect_manager@2@U?$less@Vstring@acl@@@std@@V?$allocator@U?$pair@$$CBVstring@acl@@Uconn_config@connect_manager@2@@std@@@6@$0A@@std@@@std@@QEAA?AV?$_Tree_iterator@V?$_Tree_val@U?$_Tree_simple_types@U?$pair@$$CBVstring@acl@@Uconn_config@connect_manager@2@@std@@@std@@@std@@@2@V?$_Tree_const_iterator@V?$_Tree_val@U?$_Tree_simple_types@U?$pair@$$CBVstring@acl@@Uconn_config@connect_manager@2@@std@@@std@@@std@@@2@@Z 0000000180077060 f i connect_manager.obj
 0001:00076b80       ?erase@?$vector@PEAVconnect_pool@acl@@V?$allocator@PEAVconnect_pool@acl@@@std@@@std@@QEAA?AV?$_Vector_iterator@V?$_Vector_val@U?$_Simple_types@PEAVconnect_pool@acl@@@std@@@std@@@2@V?$_Vector_const_iterator@V?$_Vector_val@U?$_Simple_types@PEAVconnect_pool@acl@@@std@@@std@@@2@@Z 0000000180077b80 f i connect_manager.obj
 0001:00076d50       ?find@?$_Tree@V?$_Tmap_traits@KPEAUconns_pools@acl@@U?$less@K@std@@V?$allocator@U?$pair@$$CBKPEAUconns_pools@acl@@@std@@@4@$0A@@std@@@std@@QEAA?AV?$_Tree_iterator@V?$_Tree_val@U?$_Tree_simple_types@U?$pair@$$CBKPEAUconns_pools@acl@@@std@@@std@@@std@@@2@AEBK@Z 0000000180077d50 f i connect_manager.obj
 0001:00077080       ?find@?$_Tree@V?$_Tmap_traits@Vstring@acl@@Uconn_config@connect_manager@2@U?$less@Vstring@acl@@@std@@V?$allocator@U?$pair@$$CBVstring@acl@@Uconn_config@connect_manager@2@@std@@@6@$0A@@std@@@std@@QEAA?AV?$_Tree_iterator@V?$_Tree_val@U?$_Tree_simple_types@U?$pair@$$CBVstring@acl@@Uconn_config@connect_manager@2@@std@@@std@@@std@@@2@AEBVstring@acl@@@Z 0000000180078080 f i connect_manager.obj
 0001:000773b0       ?lower_bound@?$_Tree@V?$_Tmap_traits@KPEAUconns_pools@acl@@U?$less@K@std@@V?$allocator@U?$pair@$$CBKPEAUconns_pools@acl@@@std@@@4@$0A@@std@@@std@@QEAA?AV?$_Tree_iterator@V?$_Tree_val@U?$_Tree_simple_types@U?$pair@$$CBKPEAUconns_pools@acl@@@std@@@std@@@std@@@2@AEBK@Z 00000001800783b0 f i connect_manager.obj
 0001:00077430       ?lower_bound@?$_Tree@V?$_Tmap_traits@Vstring@acl@@Uconn_config@connect_manager@2@U?$less@Vstring@acl@@@std@@V?$allocator@U?$pair@$$CBVstring@acl@@Uconn_config@connect_manager@2@@std@@@6@$0A@@std@@@std@@QEAA?AV?$_Tree_iterator@V?$_Tree_val@U?$_Tree_simple_types@U?$pair@$$CBVstring@acl@@Uconn_config@connect_manager@2@@std@@@std@@@std@@@2@AEBVstring@acl@@@Z 0000000180078430 f i connect_manager.obj
 0001:000774b0       ?max_size@?$_Tree@V?$_Tmap_traits@KPEAUconns_pools@acl@@U?$less@K@std@@V?$allocator@U?$pair@$$CBKPEAUconns_pools@acl@@@std@@@4@$0A@@std@@@std@@QEBA_KXZ 00000001800784b0 f i connect_manager.obj
 0001:00077500       ?max_size@?$_Tree@V?$_Tmap_traits@Vstring@acl@@Uconn_config@connect_manager@2@U?$less@Vstring@acl@@@std@@V?$allocator@U?$pair@$$CBVstring@acl@@Uconn_config@connect_manager@2@@std@@@6@$0A@@std@@@std@@QEBA_KXZ 0000000180078500 f i connect_manager.obj
 0001:00077550       ?max_size@?$_Wrap_alloc@V?$allocator@PEAVconnect_pool@acl@@@std@@@std@@QEBA_KXZ 0000000180078550 f i connect_manager.obj
 0001:00077590       ?max_size@?$_Wrap_alloc@V?$allocator@U?$_Tree_node@U?$pair@$$CBKPEAUconns_pools@acl@@@std@@PEAX@std@@@std@@@std@@QEBA_KXZ 0000000180078590 f i connect_manager.obj
 0001:000775d0       ?max_size@?$_Wrap_alloc@V?$allocator@U?$_Tree_node@U?$pair@$$CBVstring@acl@@Uconn_config@connect_manager@2@@std@@PEAX@std@@@std@@@std@@QEBA_KXZ 00000001800785d0 f i connect_manager.obj
 0001:00077610       ?max_size@?$allocator@PEAVconnect_pool@acl@@@std@@QEBA_KXZ 0000000180078610 f i connect_manager.obj
 0001:00077630       ?max_size@?$allocator@U?$_Tree_node@U?$pair@$$CBKPEAUconns_pools@acl@@@std@@PEAX@std@@@std@@QEBA_KXZ 0000000180078630 f i connect_manager.obj
 0001:00077650       ?max_size@?$allocator@U?$_Tree_node@U?$pair@$$CBVstring@acl@@Uconn_config@connect_manager@2@@std@@PEAX@std@@@std@@QEBA_KXZ 0000000180078650 f i connect_manager.obj
 0001:00077670       ?max_size@?$allocator_traits@V?$allocator@PEAVconnect_pool@acl@@@std@@@std@@SA_KAEBV?$allocator@PEAVconnect_pool@acl@@@2@@Z 0000000180078670 f i connect_manager.obj
 0001:000776b0       ?max_size@?$allocator_traits@V?$allocator@U?$_Tree_node@U?$pair@$$CBKPEAUconns_pools@acl@@@std@@PEAX@std@@@std@@@std@@SA_KAEBV?$allocator@U?$_Tree_node@U?$pair@$$CBKPEAUconns_pools@acl@@@std@@PEAX@std@@@2@@Z 00000001800786b0 f i connect_manager.obj
 0001:000776f0       ?max_size@?$allocator_traits@V?$allocator@U?$_Tree_node@U?$pair@$$CBVstring@acl@@Uconn_config@connect_manager@2@@std@@PEAX@std@@@std@@@std@@SA_KAEBV?$allocator@U?$_Tree_node@U?$pair@$$CBVstring@acl@@Uconn_config@connect_manager@2@@std@@PEAX@std@@@2@@Z 00000001800786f0 f i connect_manager.obj
 0001:00077730       ?max_size@?$vector@PEAVconnect_pool@acl@@V?$allocator@PEAVconnect_pool@acl@@@std@@@std@@QEBA_KXZ 0000000180078730 f i connect_manager.obj
 0001:00077780       ?pointer_to@?$pointer_traits@PEAU?$pair@$$CBKPEAUconns_pools@acl@@@std@@@std@@SAPEAU?$pair@$$CBKPEAUconns_pools@acl@@@2@AEAU32@@Z 0000000180078780 f i connect_manager.obj
 0001:000777c0       ?pointer_to@?$pointer_traits@PEAU?$pair@$$CBVstring@acl@@Uconn_config@connect_manager@2@@std@@@std@@SAPEAU?$pair@$$CBVstring@acl@@Uconn_config@connect_manager@2@@2@AEAU32@@Z 00000001800787c0 f i connect_manager.obj
 0001:00077800       ?pointer_to@?$pointer_traits@PEBU?$pair@$$CBKPEAUconns_pools@acl@@@std@@@std@@SAPEBU?$pair@$$CBKPEAUconns_pools@acl@@@2@AEBU32@@Z 0000000180078800 f i connect_manager.obj
 0001:00077840       ?pointer_to@?$pointer_traits@PEBU?$pair@$$CBVstring@acl@@Uconn_config@connect_manager@2@@std@@@std@@SAPEBU?$pair@$$CBVstring@acl@@Uconn_config@connect_manager@2@@2@AEBU32@@Z 0000000180078840 f i connect_manager.obj
 0001:00077880       ?push_back@?$vector@PEAVconnect_pool@acl@@V?$allocator@PEAVconnect_pool@acl@@@std@@@std@@QEAAXAEBQEAVconnect_pool@acl@@@Z 0000000180078880 f i connect_manager.obj
 0001:00077a60       ?size@?$_Tree@V?$_Tmap_traits@KPEAUconns_pools@acl@@U?$less@K@std@@V?$allocator@U?$pair@$$CBKPEAUconns_pools@acl@@@std@@@4@$0A@@std@@@std@@QEBA_KXZ 0000000180078a60 f i connect_manager.obj
 0001:00077a80       ?size@?$_Tree@V?$_Tmap_traits@Vstring@acl@@Uconn_config@connect_manager@2@U?$less@Vstring@acl@@@std@@V?$allocator@U?$pair@$$CBVstring@acl@@Uconn_config@connect_manager@2@@std@@@6@$0A@@std@@@std@@QEBA_KXZ 0000000180078a80 f i connect_manager.obj
 0001:00077aa0       ?size@?$vector@PEAVconnect_pool@acl@@V?$allocator@PEAVconnect_pool@acl@@@std@@@std@@QEBA_KXZ 0000000180078aa0 f i connect_manager.obj
 0001:00077ad0       ??0connect_monitor@acl@@QEAA@AEAVconnect_manager@1@@Z 0000000180078ad0 f   connect_monitor.obj
 0001:00077b90       ??1connect_monitor@acl@@UEAA@XZ 0000000180078b90 f   connect_monitor.obj
 0001:00077bf0       ?open_rpc_service@connect_monitor@acl@@QEAAAEAV12@HPEBD@Z 0000000180078bf0 f   connect_monitor.obj
 0001:00077d10       ?set_check_inter@connect_monitor@acl@@QEAAAEAV12@H@Z 0000000180078d10 f   connect_monitor.obj
 0001:00077d40       ?set_conn_timeout@connect_monitor@acl@@QEAAAEAV12@H@Z 0000000180078d40 f   connect_monitor.obj
 0001:00077d70       ?stop@connect_monitor@acl@@QEAAX_N@Z 0000000180078d70 f   connect_monitor.obj
 0001:00077da0       ?nio_check@connect_monitor@acl@@UEAAXAEAVcheck_client@2@AEAVaio_socket_stream@2@@Z 0000000180078da0 f   connect_monitor.obj
 0001:00077df0       ?sio_check@connect_monitor@acl@@UEAAXAEAVcheck_client@2@AEAVsocket_stream@2@@Z 0000000180078df0 f   connect_monitor.obj
 0001:00077e30       ?on_open@connect_monitor@acl@@QEAAXAEAVcheck_client@2@@Z 0000000180078e30 f   connect_monitor.obj
 0001:00077f30       ?run@connect_monitor@acl@@MEAAPEAXXZ 0000000180078f30 f   connect_monitor.obj
 0001:00078260       ??_Econnect_monitor@acl@@UEAAPEAXI@Z 0000000180079260 f i connect_monitor.obj
 0001:00078330       ??_Gconnect_monitor@acl@@UEAAPEAXI@Z 0000000180079330 f i connect_monitor.obj
 0001:000783d0       ??0connect_pool@acl@@QEAA@PEBD_K1@Z 00000001800793d0 f   connect_pool.obj
 0001:00078660       ??1connect_pool@acl@@UEAA@XZ 0000000180079660 f   connect_pool.obj
 0001:000787e0       ?set_timeout@connect_pool@acl@@QEAAAEAV12@HH@Z 00000001800797e0 f   connect_pool.obj
 0001:00078820       ?set_retry_inter@connect_pool@acl@@QEAAAEAV12@H@Z 0000000180079820 f   connect_pool.obj
 0001:00078890       ?set_idle_ttl@connect_pool@acl@@QEAAAEAV12@_J@Z 0000000180079890 f   connect_pool.obj
 0001:000788c0       ?set_check_inter@connect_pool@acl@@QEAAAEAV12@H@Z 00000001800798c0 f   connect_pool.obj
 0001:000788f0       ?peek@connect_pool@acl@@QEAAPEAVconnect_client@2@_N@Z 00000001800798f0 f   connect_pool.obj
 0001:00078ea0       ?bind_one@connect_pool@acl@@QEAAXPEAVconnect_client@2@@Z 0000000180079ea0 f   connect_pool.obj
 0001:00078f30       ?put@connect_pool@acl@@QEAAXPEAVconnect_client@2@_N@Z 0000000180079f30 f   connect_pool.obj
 0001:00079220       ?check_idle@connect_pool@acl@@QEAAH_J_N@Z 000000018007a220 f   connect_pool.obj
 0001:000797f0       ?set_alive@connect_pool@acl@@QEAAX_N@Z 000000018007a7f0 f   connect_pool.obj
 0001:00079870       ?aliving@connect_pool@acl@@QEAA_NXZ 000000018007a870 f   connect_pool.obj
 0001:00079960       ?reset_statistics@connect_pool@acl@@QEAAXH@Z 000000018007a960 f   connect_pool.obj
 0001:00079a10       ?set_key@connect_pool@acl@@QEAAXPEBD@Z 000000018007aa10 f   connect_pool.obj
 0001:00079ad0       ?set_delay_destroy@connect_pool@acl@@IEAAXXZ 000000018007aad0 f   connect_pool.obj
 0001:0007a110       ??$?8V?$_List_iterator@V?$_List_val@U?$_List_simple_types@PEAVconnect_client@acl@@@std@@@std@@@std@@V01@@std@@YA_NAEBV?$reverse_iterator@V?$_List_iterator@V?$_List_val@U?$_List_simple_types@PEAVconnect_client@acl@@@std@@@std@@@std@@@0@0@Z 000000018007b110 f i connect_pool.obj
 0001:0007a160       ??$?9V?$_List_iterator@V?$_List_val@U?$_List_simple_types@PEAVconnect_client@acl@@@std@@@std@@@std@@V01@@std@@YA_NAEBV?$reverse_iterator@V?$_List_iterator@V?$_List_val@U?$_List_simple_types@PEAVconnect_client@acl@@@std@@@std@@@std@@@0@0@Z 000000018007b160 f i connect_pool.obj
 0001:0007a1d0       ??$_Allocate@U?$_List_node@PEAVconnect_client@acl@@PEAX@std@@@std@@YAPEAU?$_List_node@PEAVconnect_client@acl@@PEAX@0@_KPEAU10@@Z 000000018007b1d0 f i connect_pool.obj
 0001:0007a260       ??$_Buynode@AEBQEAVconnect_client@acl@@@?$_List_buy@PEAVconnect_client@acl@@V?$allocator@PEAVconnect_client@acl@@@std@@@std@@QEAAPEAU?$_List_node@PEAVconnect_client@acl@@PEAX@1@PEAU21@0AEBQEAVconnect_client@acl@@@Z 000000018007b260 f i connect_pool.obj
 0001:0007a340       ??$_Equal@V?$_List_iterator@V?$_List_val@U?$_List_simple_types@PEAVconnect_client@acl@@@std@@@std@@@std@@U?$iterator@Ubidirectional_iterator_tag@std@@PEAVconnect_client@acl@@_JPEAPEAV34@AEAPEAV34@@2@@?$_Revranit@V?$_List_iterator@V?$_List_val@U?$_List_simple_types@PEAVconnect_client@acl@@@std@@@std@@@std@@U?$iterator@Ubidirectional_iterator_tag@std@@PEAVconnect_client@acl@@_JPEAPEAV34@AEAPEAV34@@2@@std@@QEBA_NAEBV01@@Z 000000018007b340 f i connect_pool.obj
 0001:0007a3e0       ??$_Insert@AEBQEAVconnect_client@acl@@@?$list@PEAVconnect_client@acl@@V?$allocator@PEAVconnect_client@acl@@@std@@@std@@QEAAXV?$_List_unchecked_const_iterator@V?$_List_val@U?$_List_simple_types@PEAVconnect_client@acl@@@std@@@std@@U_Iterator_base0@2@@1@AEBQEAVconnect_client@acl@@@Z 000000018007b3e0 f i connect_pool.obj
 0001:0007a4c0       ??$addressof@PEAU?$_List_node@PEAVconnect_client@acl@@PEAX@std@@@std@@YAPEAPEAU?$_List_node@PEAVconnect_client@acl@@PEAX@0@AEAPEAU10@@Z 000000018007b4c0 f i connect_pool.obj
 0001:0007a4d0       ??$addressof@PEAVconnect_client@acl@@@std@@YAPEAPEAVconnect_client@acl@@AEAPEAV12@@Z 000000018007b4d0 f i connect_pool.obj
 0001:0007a4e0       ??$construct@PEAU?$_List_node@PEAVconnect_client@acl@@PEAX@std@@AEAPEAU12@@?$_Wrap_alloc@V?$allocator@U?$_List_node@PEAVconnect_client@acl@@PEAX@std@@@std@@@std@@QEAAXPEAPEAU?$_List_node@PEAVconnect_client@acl@@PEAX@1@AEAPEAU21@@Z 000000018007b4e0 f i connect_pool.obj
 0001:0007a540       ??$construct@PEAU?$_List_node@PEAVconnect_client@acl@@PEAX@std@@AEAPEAU12@@?$allocator@U?$_List_node@PEAVconnect_client@acl@@PEAX@std@@@std@@QEAAXPEAPEAU?$_List_node@PEAVconnect_client@acl@@PEAX@1@AEAPEAU21@@Z 000000018007b540 f i connect_pool.obj
 0001:0007a5f0       ??$construct@PEAU?$_List_node@PEAVconnect_client@acl@@PEAX@std@@AEAPEAU12@@?$allocator_traits@V?$allocator@U?$_List_node@PEAVconnect_client@acl@@PEAX@std@@@std@@@std@@SAXAEAV?$allocator@U?$_List_node@PEAVconnect_client@acl@@PEAX@std@@@1@PEAPEAU?$_List_node@PEAVconnect_client@acl@@PEAX@1@AEAPEAU31@@Z 000000018007b5f0 f i connect_pool.obj
 0001:0007a650       ??$construct@PEAVconnect_client@acl@@AEBQEAV12@@?$_Wrap_alloc@V?$allocator@U?$_List_node@PEAVconnect_client@acl@@PEAX@std@@@std@@@std@@QEAAXPEAPEAVconnect_client@acl@@AEBQEAV23@@Z 000000018007b650 f i connect_pool.obj
 0001:0007a6b0       ??$construct@PEAVconnect_client@acl@@AEBQEAV12@@?$allocator@U?$_List_node@PEAVconnect_client@acl@@PEAX@std@@@std@@QEAAXPEAPEAVconnect_client@acl@@AEBQEAV23@@Z 000000018007b6b0 f i connect_pool.obj
 0001:0007a760       ??$construct@PEAVconnect_client@acl@@AEBQEAV12@@?$allocator_traits@V?$allocator@U?$_List_node@PEAVconnect_client@acl@@PEAX@std@@@std@@@std@@SAXAEAV?$allocator@U?$_List_node@PEAVconnect_client@acl@@PEAX@std@@@1@PEAPEAVconnect_client@acl@@AEBQEAV34@@Z 000000018007b760 f i connect_pool.obj
 0001:0007a7c0       ??$destroy@PEAU?$_List_node@PEAVconnect_client@acl@@PEAX@std@@@?$_Wrap_alloc@V?$allocator@U?$_List_node@PEAVconnect_client@acl@@PEAX@std@@@std@@@std@@QEAAXPEAPEAU?$_List_node@PEAVconnect_client@acl@@PEAX@1@@Z 000000018007b7c0 f i connect_pool.obj
 0001:0007a810       ??$destroy@PEAU?$_List_node@PEAVconnect_client@acl@@PEAX@std@@@?$allocator@U?$_List_node@PEAVconnect_client@acl@@PEAX@std@@@std@@QEAAXPEAPEAU?$_List_node@PEAVconnect_client@acl@@PEAX@1@@Z 000000018007b810 f i connect_pool.obj
 0001:0007a820       ??$destroy@PEAU?$_List_node@PEAVconnect_client@acl@@PEAX@std@@@?$allocator_traits@V?$allocator@U?$_List_node@PEAVconnect_client@acl@@PEAX@std@@@std@@@std@@SAXAEAV?$allocator@U?$_List_node@PEAVconnect_client@acl@@PEAX@std@@@1@PEAPEAU?$_List_node@PEAVconnect_client@acl@@PEAX@1@@Z 000000018007b820 f i connect_pool.obj
 0001:0007a870       ??$destroy@PEAVconnect_client@acl@@@?$_Wrap_alloc@V?$allocator@U?$_List_node@PEAVconnect_client@acl@@PEAX@std@@@std@@@std@@QEAAXPEAPEAVconnect_client@acl@@@Z 000000018007b870 f i connect_pool.obj
 0001:0007a8c0       ??$destroy@PEAVconnect_client@acl@@@?$allocator@U?$_List_node@PEAVconnect_client@acl@@PEAX@std@@@std@@QEAAXPEAPEAVconnect_client@acl@@@Z 000000018007b8c0 f i connect_pool.obj
 0001:0007a8d0       ??$destroy@PEAVconnect_client@acl@@@?$allocator_traits@V?$allocator@U?$_List_node@PEAVconnect_client@acl@@PEAX@std@@@std@@@std@@SAXAEAV?$allocator@U?$_List_node@PEAVconnect_client@acl@@PEAX@std@@@1@PEAPEAVconnect_client@acl@@@Z 000000018007b8d0 f i connect_pool.obj
 0001:0007a920       ??$forward@AEAPEAU?$_List_node@PEAVconnect_client@acl@@PEAX@std@@@std@@YAAEAPEAU?$_List_node@PEAVconnect_client@acl@@PEAX@0@AEAPEAU10@@Z 000000018007b920 f i connect_pool.obj
 0001:0007a930       ??$forward@AEBQEAVconnect_client@acl@@@std@@YAAEBQEAVconnect_client@acl@@AEBQEAV12@@Z 000000018007b930 f i connect_pool.obj
 0001:0007a940       ??0?$_Iterator012@Ubidirectional_iterator_tag@std@@PEAVconnect_client@acl@@_JPEBQEAV34@AEBQEAV34@U_Iterator_base12@2@@std@@QEAA@AEBU01@@Z 000000018007b940 f i connect_pool.obj
 0001:0007a990       ??0?$_Iterator012@Ubidirectional_iterator_tag@std@@PEAVconnect_client@acl@@_JPEBQEAV34@AEBQEAV34@U_Iterator_base12@2@@std@@QEAA@XZ 000000018007b990 f i connect_pool.obj
 0001:0007a9d0       ??0?$_List_alloc@$0A@U?$_List_base_types@PEAVconnect_client@acl@@V?$allocator@PEAVconnect_client@acl@@@std@@@std@@@std@@QEAA@AEBV?$allocator@PEAVconnect_client@acl@@@1@@Z 000000018007b9d0 f i connect_pool.obj
 0001:0007aa50       ??0?$_List_buy@PEAVconnect_client@acl@@V?$allocator@PEAVconnect_client@acl@@@std@@@std@@QEAA@AEBV?$allocator@PEAVconnect_client@acl@@@1@@Z 000000018007ba50 f i connect_pool.obj
 0001:0007aaa0       ??0?$_List_const_iterator@V?$_List_val@U?$_List_simple_types@PEAVconnect_client@acl@@@std@@@std@@@std@@QEAA@AEBV01@@Z 000000018007baa0 f i connect_pool.obj
 0001:0007aaf0       ??0?$_List_const_iterator@V?$_List_val@U?$_List_simple_types@PEAVconnect_client@acl@@@std@@@std@@@std@@QEAA@PEAU?$_List_node@PEAVconnect_client@acl@@PEAX@1@PEBV?$_List_val@U?$_List_simple_types@PEAVconnect_client@acl@@@std@@@1@@Z 000000018007baf0 f i connect_pool.obj
 0001:0007ab50       ??0?$_List_const_iterator@V?$_List_val@U?$_List_simple_types@PEAVconnect_client@acl@@@std@@@std@@@std@@QEAA@XZ 000000018007bb50 f i connect_pool.obj
 0001:0007ab90       ??0?$_List_iterator@V?$_List_val@U?$_List_simple_types@PEAVconnect_client@acl@@@std@@@std@@@std@@QEAA@AEBV01@@Z 000000018007bb90 f i connect_pool.obj
 0001:0007abe0       ??0?$_List_iterator@V?$_List_val@U?$_List_simple_types@PEAVconnect_client@acl@@@std@@@std@@@std@@QEAA@PEAU?$_List_node@PEAVconnect_client@acl@@PEAX@1@PEBV?$_List_val@U?$_List_simple_types@PEAVconnect_client@acl@@@std@@@1@@Z 000000018007bbe0 f i connect_pool.obj
 0001:0007ac40       ??0?$_List_iterator@V?$_List_val@U?$_List_simple_types@PEAVconnect_client@acl@@@std@@@std@@@std@@QEAA@XZ 000000018007bc40 f i connect_pool.obj
 0001:0007ac80       ??0?$_List_unchecked_const_iterator@V?$_List_val@U?$_List_simple_types@PEAVconnect_client@acl@@@std@@@std@@U_Iterator_base0@2@@std@@QEAA@PEAU?$_List_node@PEAVconnect_client@acl@@PEAX@1@PEBV?$_List_val@U?$_List_simple_types@PEAVconnect_client@acl@@@std@@@1@@Z 000000018007bc80 f i connect_pool.obj
 0001:0007acf0       ??0?$_List_unchecked_const_iterator@V?$_List_val@U?$_List_simple_types@PEAVconnect_client@acl@@@std@@@std@@U_Iterator_base12@2@@std@@QEAA@AEBV01@@Z 000000018007bcf0 f i connect_pool.obj
 0001:0007ad60       ??0?$_List_unchecked_const_iterator@V?$_List_val@U?$_List_simple_types@PEAVconnect_client@acl@@@std@@@std@@U_Iterator_base12@2@@std@@QEAA@PEAU?$_List_node@PEAVconnect_client@acl@@PEAX@1@PEBV?$_List_val@U?$_List_simple_types@PEAVconnect_client@acl@@@std@@@1@@Z 000000018007bd60 f i connect_pool.obj
 0001:0007ade0       ??0?$_List_unchecked_const_iterator@V?$_List_val@U?$_List_simple_types@PEAVconnect_client@acl@@@std@@@std@@U_Iterator_base12@2@@std@@QEAA@XZ 000000018007bde0 f i connect_pool.obj
 0001:0007ae30       ??0?$_List_unchecked_iterator@V?$_List_val@U?$_List_simple_types@PEAVconnect_client@acl@@@std@@@std@@@std@@QEAA@PEAU?$_List_node@PEAVconnect_client@acl@@PEAX@1@PEBV?$_List_val@U?$_List_simple_types@PEAVconnect_client@acl@@@std@@@1@@Z 000000018007be30 f i connect_pool.obj
 0001:0007ae90       ??0?$_List_val@U?$_List_simple_types@PEAVconnect_client@acl@@@std@@@std@@QEAA@XZ 000000018007be90 f i connect_pool.obj
 0001:0007af00       ??0?$_Revranit@V?$_List_iterator@V?$_List_val@U?$_List_simple_types@PEAVconnect_client@acl@@@std@@@std@@@std@@U?$iterator@Ubidirectional_iterator_tag@std@@PEAVconnect_client@acl@@_JPEAPEAV34@AEAPEAV34@@2@@std@@QEAA@AEBV01@@Z 000000018007bf00 f i connect_pool.obj
 0001:0007af50       ??0?$_Revranit@V?$_List_iterator@V?$_List_val@U?$_List_simple_types@PEAVconnect_client@acl@@@std@@@std@@@std@@U?$iterator@Ubidirectional_iterator_tag@std@@PEAVconnect_client@acl@@_JPEAPEAV34@AEAPEAV34@@2@@std@@QEAA@V?$_List_iterator@V?$_List_val@U?$_List_simple_types@PEAVconnect_client@acl@@@std@@@std@@@1@@Z 000000018007bf50 f i connect_pool.obj
 0001:0007afc0       ??0?$_Wrap_alloc@V?$allocator@U?$_List_node@PEAVconnect_client@acl@@PEAX@std@@@std@@@std@@QEAA@XZ 000000018007bfc0 f i connect_pool.obj
 0001:0007b000       ??0?$allocator@PEAVconnect_client@acl@@@std@@QEAA@XZ 000000018007c000 f i connect_pool.obj
 0001:0007b010       ??0?$allocator@U?$_List_node@PEAVconnect_client@acl@@PEAX@std@@@std@@QEAA@XZ 000000018007c010 f i connect_pool.obj
 0001:0007b020       ??0?$list@PEAVconnect_client@acl@@V?$allocator@PEAVconnect_client@acl@@@std@@@std@@QEAA@XZ 000000018007c020 f i connect_pool.obj
 0001:0007b070       ??0?$reverse_iterator@V?$_List_iterator@V?$_List_val@U?$_List_simple_types@PEAVconnect_client@acl@@@std@@@std@@@std@@@std@@QEAA@AEBV01@@Z 000000018007c070 f i connect_pool.obj
 0001:0007b0c0       ??0?$reverse_iterator@V?$_List_iterator@V?$_List_val@U?$_List_simple_types@PEAVconnect_client@acl@@@std@@@std@@@std@@@std@@QEAA@V?$_List_iterator@V?$_List_val@U?$_List_simple_types@PEAVconnect_client@acl@@@std@@@std@@@1@@Z 000000018007c0c0 f i connect_pool.obj
 0001:0007b150       ??1?$_Iterator012@Ubidirectional_iterator_tag@std@@PEAVconnect_client@acl@@_JPEBQEAV34@AEBQEAV34@U_Iterator_base12@2@@std@@QEAA@XZ 000000018007c150 f i connect_pool.obj
 0001:0007b190       ??1?$_List_alloc@$0A@U?$_List_base_types@PEAVconnect_client@acl@@V?$allocator@PEAVconnect_client@acl@@@std@@@std@@@std@@QEAA@XZ 000000018007c190 f i connect_pool.obj
 0001:0007b1f0       ??1?$_List_buy@PEAVconnect_client@acl@@V?$allocator@PEAVconnect_client@acl@@@std@@@std@@QEAA@XZ 000000018007c1f0 f i connect_pool.obj
 0001:0007b230       ??1?$_List_const_iterator@V?$_List_val@U?$_List_simple_types@PEAVconnect_client@acl@@@std@@@std@@@std@@QEAA@XZ 000000018007c230 f i connect_pool.obj
 0001:0007b270       ??1?$_List_iterator@V?$_List_val@U?$_List_simple_types@PEAVconnect_client@acl@@@std@@@std@@@std@@QEAA@XZ 000000018007c270 f i connect_pool.obj
 0001:0007b2b0       ??1?$_List_unchecked_const_iterator@V?$_List_val@U?$_List_simple_types@PEAVconnect_client@acl@@@std@@@std@@U_Iterator_base12@2@@std@@QEAA@XZ 000000018007c2b0 f i connect_pool.obj
 0001:0007b2f0       ??1?$_List_val@U?$_List_simple_types@PEAVconnect_client@acl@@@std@@@std@@QEAA@XZ 000000018007c2f0 f i connect_pool.obj
 0001:0007b330       ??1?$_Revranit@V?$_List_iterator@V?$_List_val@U?$_List_simple_types@PEAVconnect_client@acl@@@std@@@std@@@std@@U?$iterator@Ubidirectional_iterator_tag@std@@PEAVconnect_client@acl@@_JPEAPEAV34@AEAPEAV34@@2@@std@@QEAA@XZ 000000018007c330 f i connect_pool.obj
 0001:0007b370       ??1?$list@PEAVconnect_client@acl@@V?$allocator@PEAVconnect_client@acl@@@std@@@std@@QEAA@XZ 000000018007c370 f i connect_pool.obj
 0001:0007b3c0       ??1?$reverse_iterator@V?$_List_iterator@V?$_List_val@U?$_List_simple_types@PEAVconnect_client@acl@@@std@@@std@@@std@@@std@@QEAA@XZ 000000018007c3c0 f i connect_pool.obj
 0001:0007b400       ??4?$_Iterator012@Ubidirectional_iterator_tag@std@@PEAVconnect_client@acl@@_JPEBQEAV34@AEBQEAV34@U_Iterator_base12@2@@std@@QEAAAEAU01@AEBU01@@Z 000000018007c400 f i connect_pool.obj
 0001:0007b450       ??4?$_List_const_iterator@V?$_List_val@U?$_List_simple_types@PEAVconnect_client@acl@@@std@@@std@@@std@@QEAAAEAV01@AEBV01@@Z 000000018007c450 f i connect_pool.obj
 0001:0007b4a0       ??4?$_List_iterator@V?$_List_val@U?$_List_simple_types@PEAVconnect_client@acl@@@std@@@std@@@std@@QEAAAEAV01@AEBV01@@Z 000000018007c4a0 f i connect_pool.obj
 0001:0007b4f0       ??4?$_List_unchecked_const_iterator@V?$_List_val@U?$_List_simple_types@PEAVconnect_client@acl@@@std@@@std@@U_Iterator_base12@2@@std@@QEAAAEAV01@AEBV01@@Z 000000018007c4f0 f i connect_pool.obj
 0001:0007b560       ??4?$_Revranit@V?$_List_iterator@V?$_List_val@U?$_List_simple_types@PEAVconnect_client@acl@@@std@@@std@@@std@@U?$iterator@Ubidirectional_iterator_tag@std@@PEAVconnect_client@acl@@_JPEAPEAV34@AEAPEAV34@@2@@std@@QEAAAEAV01@AEBV01@@Z 000000018007c560 f i connect_pool.obj
 0001:0007b5b0       ??4?$reverse_iterator@V?$_List_iterator@V?$_List_val@U?$_List_simple_types@PEAVconnect_client@acl@@@std@@@std@@@std@@@std@@QEAAAEAV01@AEBV01@@Z 000000018007c5b0 f i connect_pool.obj
 0001:0007b600       ??8?$_List_const_iterator@V?$_List_val@U?$_List_simple_types@PEAVconnect_client@acl@@@std@@@std@@@std@@QEBA_NAEBV01@@Z 000000018007c600 f i connect_pool.obj
 0001:0007b770       ??9?$_List_const_iterator@V?$_List_val@U?$_List_simple_types@PEAVconnect_client@acl@@@std@@@std@@@std@@QEBA_NAEBV01@@Z 000000018007c770 f i connect_pool.obj
 0001:0007b7e0       ??D?$_List_const_iterator@V?$_List_val@U?$_List_simple_types@PEAVconnect_client@acl@@@std@@@std@@@std@@QEBAAEBQEAVconnect_client@acl@@XZ 000000018007c7e0 f i connect_pool.obj
 0001:0007b920       ??D?$_List_iterator@V?$_List_val@U?$_List_simple_types@PEAVconnect_client@acl@@@std@@@std@@@std@@QEBAAEAPEAVconnect_client@acl@@XZ 000000018007c920 f i connect_pool.obj
 0001:0007b960       ??E?$_List_const_iterator@V?$_List_val@U?$_List_simple_types@PEAVconnect_client@acl@@@std@@@std@@@std@@QEAA?AV01@H@Z 000000018007c960 f i connect_pool.obj
 0001:0007ba20       ??E?$_List_const_iterator@V?$_List_val@U?$_List_simple_types@PEAVconnect_client@acl@@@std@@@std@@@std@@QEAAAEAV01@XZ 000000018007ca20 f i connect_pool.obj
 0001:0007bb70       ??E?$_List_iterator@V?$_List_val@U?$_List_simple_types@PEAVconnect_client@acl@@@std@@@std@@@std@@QEAAAEAV01@XZ 000000018007cb70 f i connect_pool.obj
 0001:0007bbb0       ??E?$_Revranit@V?$_List_iterator@V?$_List_val@U?$_List_simple_types@PEAVconnect_client@acl@@@std@@@std@@@std@@U?$iterator@Ubidirectional_iterator_tag@std@@PEAVconnect_client@acl@@_JPEAPEAV34@AEAPEAV34@@2@@std@@QEAAAEAV01@XZ 000000018007cbb0 f i connect_pool.obj
 0001:0007bc00       ??E?$reverse_iterator@V?$_List_iterator@V?$_List_val@U?$_List_simple_types@PEAVconnect_client@acl@@@std@@@std@@@std@@@std@@QEAAAEAV01@XZ 000000018007cc00 f i connect_pool.obj
 0001:0007bc40       ??F?$_List_const_iterator@V?$_List_val@U?$_List_simple_types@PEAVconnect_client@acl@@@std@@@std@@@std@@QEAAAEAV01@XZ 000000018007cc40 f i connect_pool.obj
 0001:0007bd90       ??F?$_List_iterator@V?$_List_val@U?$_List_simple_types@PEAVconnect_client@acl@@@std@@@std@@@std@@QEAAAEAV01@XZ 000000018007cd90 f i connect_pool.obj
 0001:0007bdd0       ??_Econnect_pool@acl@@UEAAPEAXI@Z 000000018007cdd0 f i connect_pool.obj
 0001:0007bea0       ??_Gconnect_pool@acl@@UEAAPEAXI@Z 000000018007cea0 f i connect_pool.obj
 0001:0007bf00       ?_Alloc_proxy@?$_List_alloc@$0A@U?$_List_base_types@PEAVconnect_client@acl@@V?$allocator@PEAVconnect_client@acl@@@std@@@std@@@std@@QEAAXXZ 000000018007cf00 f i connect_pool.obj
 0001:0007bfb0       ?_Buyheadnode@?$_List_alloc@$0A@U?$_List_base_types@PEAVconnect_client@acl@@V?$allocator@PEAVconnect_client@acl@@@std@@@std@@@std@@QEAAPEAU?$_List_node@PEAVconnect_client@acl@@PEAX@2@XZ 000000018007cfb0 f i connect_pool.obj
 0001:0007bff0       ?_Buynode0@?$_List_alloc@$0A@U?$_List_base_types@PEAVconnect_client@acl@@V?$allocator@PEAVconnect_client@acl@@@std@@@std@@@std@@QEAAPEAU?$_List_node@PEAVconnect_client@acl@@PEAX@2@PEAU32@0@Z 000000018007cff0 f i connect_pool.obj
 0001:0007c130       ?_Free_proxy@?$_List_alloc@$0A@U?$_List_base_types@PEAVconnect_client@acl@@V?$allocator@PEAVconnect_client@acl@@@std@@@std@@@std@@QEAAXXZ 000000018007d130 f i connect_pool.obj
 0001:0007c1d0       ?_Freeheadnode@?$_List_alloc@$0A@U?$_List_base_types@PEAVconnect_client@acl@@V?$allocator@PEAVconnect_client@acl@@@std@@@std@@@std@@QEAAXPEAU?$_List_node@PEAVconnect_client@acl@@PEAX@2@@Z 000000018007d1d0 f i connect_pool.obj
 0001:0007c2c0       ?_Freenode@?$_List_buy@PEAVconnect_client@acl@@V?$allocator@PEAVconnect_client@acl@@@std@@@std@@QEAAXPEAU?$_List_node@PEAVconnect_client@acl@@PEAX@2@@Z 000000018007d2c0 f i connect_pool.obj
 0001:0007c3f0       ?_Getal@?$_List_alloc@$0A@U?$_List_base_types@PEAVconnect_client@acl@@V?$allocator@PEAVconnect_client@acl@@@std@@@std@@@std@@QEBA?AU?$_Wrap_alloc@V?$allocator@U?$_List_node@PEAVconnect_client@acl@@PEAX@std@@@std@@@2@XZ 000000018007d3f0 f i connect_pool.obj
 0001:0007c440       ?_Incsize@?$list@PEAVconnect_client@acl@@V?$allocator@PEAVconnect_client@acl@@@std@@@std@@QEAAX_K@Z 000000018007d440 f i connect_pool.obj
 0001:0007c4d0       ?_Make_iter@?$list@PEAVconnect_client@acl@@V?$allocator@PEAVconnect_client@acl@@@std@@@std@@QEBA?AV?$_List_iterator@V?$_List_val@U?$_List_simple_types@PEAVconnect_client@acl@@@std@@@std@@@2@V?$_List_const_iterator@V?$_List_val@U?$_List_simple_types@PEAVconnect_client@acl@@@std@@@std@@@2@@Z 000000018007d4d0 f i connect_pool.obj
 0001:0007c540       ?_Mynode@?$_List_unchecked_const_iterator@V?$_List_val@U?$_List_simple_types@PEAVconnect_client@acl@@@std@@@std@@U_Iterator_base0@2@@std@@QEBAPEAU?$_List_node@PEAVconnect_client@acl@@PEAX@2@XZ 000000018007d540 f i connect_pool.obj
 0001:0007c560       ?_Mynode@?$_List_unchecked_const_iterator@V?$_List_val@U?$_List_simple_types@PEAVconnect_client@acl@@@std@@@std@@U_Iterator_base12@2@@std@@QEBAPEAU?$_List_node@PEAVconnect_client@acl@@PEAX@2@XZ 000000018007d560 f i connect_pool.obj
 0001:0007c580       ?_Myval@?$_List_val@U?$_List_simple_types@PEAVconnect_client@acl@@@std@@@std@@SAAEAPEAVconnect_client@acl@@PEAU?$_List_node@PEAVconnect_client@acl@@PEAX@2@@Z 000000018007d580 f i connect_pool.obj
 0001:0007c5a0       ?_Nextnode@?$_List_val@U?$_List_simple_types@PEAVconnect_client@acl@@@std@@@std@@SAAEAPEAU?$_List_node@PEAVconnect_client@acl@@PEAX@2@PEAU32@@Z 000000018007d5a0 f i connect_pool.obj
 0001:0007c5b0       ?_Orphan_ptr@?$list@PEAVconnect_client@acl@@V?$allocator@PEAVconnect_client@acl@@@std@@@std@@QEBAXAEAV12@PEAU?$_List_node@PEAVconnect_client@acl@@PEAX@2@@Z 000000018007d5b0 f i connect_pool.obj
 0001:0007c6e0       ?_Prevnode@?$_List_val@U?$_List_simple_types@PEAVconnect_client@acl@@@std@@@std@@SAAEAPEAU?$_List_node@PEAVconnect_client@acl@@PEAX@2@PEAU32@@Z 000000018007d6e0 f i connect_pool.obj
 0001:0007c700       ?_Tidy@?$list@PEAVconnect_client@acl@@V?$allocator@PEAVconnect_client@acl@@@std@@@std@@QEAAXXZ 000000018007d700 f i connect_pool.obj
 0001:0007c740       ?_Unchecked_begin@?$list@PEAVconnect_client@acl@@V?$allocator@PEAVconnect_client@acl@@@std@@@std@@QEAA?AV?$_List_unchecked_iterator@V?$_List_val@U?$_List_simple_types@PEAVconnect_client@acl@@@std@@@std@@@2@XZ 000000018007d740 f i connect_pool.obj
 0001:0007c7b0       ?_Unlinknode@?$list@PEAVconnect_client@acl@@V?$allocator@PEAVconnect_client@acl@@@std@@@std@@QEAAPEAU?$_List_node@PEAVconnect_client@acl@@PEAX@2@V?$_List_const_iterator@V?$_List_val@U?$_List_simple_types@PEAVconnect_client@acl@@@std@@@std@@@2@@Z 000000018007d7b0 f i connect_pool.obj
 0001:0007c910       ?allocate@?$_Wrap_alloc@V?$allocator@U?$_List_node@PEAVconnect_client@acl@@PEAX@std@@@std@@@std@@QEAAPEAU?$_List_node@PEAVconnect_client@acl@@PEAX@2@_K@Z 000000018007d910 f i connect_pool.obj
 0001:0007c960       ?allocate@?$allocator@U?$_List_node@PEAVconnect_client@acl@@PEAX@std@@@std@@QEAAPEAU?$_List_node@PEAVconnect_client@acl@@PEAX@2@_K@Z 000000018007d960 f i connect_pool.obj
 0001:0007c9b0       ?base@?$_Revranit@V?$_List_iterator@V?$_List_val@U?$_List_simple_types@PEAVconnect_client@acl@@@std@@@std@@@std@@U?$iterator@Ubidirectional_iterator_tag@std@@PEAVconnect_client@acl@@_JPEAPEAV34@AEAPEAV34@@2@@std@@QEBA?AV?$_List_iterator@V?$_List_val@U?$_List_simple_types@PEAVconnect_client@acl@@@std@@@std@@@2@XZ 000000018007d9b0 f i connect_pool.obj
 0001:0007ca20       ?begin@?$list@PEAVconnect_client@acl@@V?$allocator@PEAVconnect_client@acl@@@std@@@std@@QEAA?AV?$_List_iterator@V?$_List_val@U?$_List_simple_types@PEAVconnect_client@acl@@@std@@@std@@@2@XZ 000000018007da20 f i connect_pool.obj
 0001:0007ca90       ?clear@?$list@PEAVconnect_client@acl@@V?$allocator@PEAVconnect_client@acl@@@std@@@std@@QEAAXXZ 000000018007da90 f i connect_pool.obj
 0001:0007cb90       ?deallocate@?$_Wrap_alloc@V?$allocator@U?$_List_node@PEAVconnect_client@acl@@PEAX@std@@@std@@@std@@QEAAXPEAU?$_List_node@PEAVconnect_client@acl@@PEAX@2@_K@Z 000000018007db90 f i connect_pool.obj
 0001:0007cbf0       ?deallocate@?$allocator@U?$_List_node@PEAVconnect_client@acl@@PEAX@std@@@std@@QEAAXPEAU?$_List_node@PEAVconnect_client@acl@@PEAX@2@_K@Z 000000018007dbf0 f i connect_pool.obj
 0001:0007cc40       ?empty@?$list@PEAVconnect_client@acl@@V?$allocator@PEAVconnect_client@acl@@@std@@@std@@QEBA_NXZ 000000018007dc40 f i connect_pool.obj
 0001:0007cca0       ?end@?$list@PEAVconnect_client@acl@@V?$allocator@PEAVconnect_client@acl@@@std@@@std@@QEAA?AV?$_List_iterator@V?$_List_val@U?$_List_simple_types@PEAVconnect_client@acl@@@std@@@std@@@2@XZ 000000018007dca0 f i connect_pool.obj
 0001:0007cd00       ?erase@?$list@PEAVconnect_client@acl@@V?$allocator@PEAVconnect_client@acl@@@std@@@std@@QEAA?AV?$_List_iterator@V?$_List_val@U?$_List_simple_types@PEAVconnect_client@acl@@@std@@@std@@@2@V?$_List_const_iterator@V?$_List_val@U?$_List_simple_types@PEAVconnect_client@acl@@@std@@@std@@@2@@Z 000000018007dd00 f i connect_pool.obj
 0001:0007ce40       ?max_size@?$_Wrap_alloc@V?$allocator@U?$_List_node@PEAVconnect_client@acl@@PEAX@std@@@std@@@std@@QEBA_KXZ 000000018007de40 f i connect_pool.obj
 0001:0007ce80       ?max_size@?$allocator@U?$_List_node@PEAVconnect_client@acl@@PEAX@std@@@std@@QEBA_KXZ 000000018007de80 f i connect_pool.obj
 0001:0007cea0       ?max_size@?$allocator_traits@V?$allocator@U?$_List_node@PEAVconnect_client@acl@@PEAX@std@@@std@@@std@@SA_KAEBV?$allocator@U?$_List_node@PEAVconnect_client@acl@@PEAX@std@@@2@@Z 000000018007dea0 f i connect_pool.obj
 0001:0007cee0       ?max_size@?$list@PEAVconnect_client@acl@@V?$allocator@PEAVconnect_client@acl@@@std@@@std@@QEBA_KXZ 000000018007dee0 f i connect_pool.obj
 0001:0007cf30       ?push_front@?$list@PEAVconnect_client@acl@@V?$allocator@PEAVconnect_client@acl@@@std@@@std@@QEAAXAEBQEAVconnect_client@acl@@@Z 000000018007df30 f i connect_pool.obj
 0001:0007cfa0       ?rbegin@?$list@PEAVconnect_client@acl@@V?$allocator@PEAVconnect_client@acl@@@std@@@std@@QEAA?AV?$reverse_iterator@V?$_List_iterator@V?$_List_val@U?$_List_simple_types@PEAVconnect_client@acl@@@std@@@std@@@std@@@2@XZ 000000018007dfa0 f i connect_pool.obj
 0001:0007d030       ?rend@?$list@PEAVconnect_client@acl@@V?$allocator@PEAVconnect_client@acl@@@std@@@std@@QEAA?AV?$reverse_iterator@V?$_List_iterator@V?$_List_val@U?$_List_simple_types@PEAVconnect_client@acl@@@std@@@std@@@std@@@2@XZ 000000018007e030 f i connect_pool.obj
 0001:0007d0c0       ??0tcp_reader@acl@@QEAA@AEAVsocket_stream@1@@Z 000000018007e0c0 f   tcp_reader.obj
 0001:0007d110       ?read@tcp_reader@acl@@QEAA_NAEAVstring@2@@Z 000000018007e110 f   tcp_reader.obj
 0001:0007d270       ??0tcp_sender@acl@@QEAA@AEAVsocket_stream@1@@Z 000000018007e270 f   tcp_sender.obj
 0001:0007d2e0       ??1tcp_sender@acl@@QEAA@XZ 000000018007e2e0 f   tcp_sender.obj
 0001:0007d350       ?send@tcp_sender@acl@@QEAA_NPEBXI@Z 000000018007e350 f   tcp_sender.obj
 0001:0007d4c0       ??0tcp_client@acl@@QEAA@PEBDHH@Z 000000018007e4c0 f   tcp_client.obj
 0001:0007d610       ??1tcp_client@acl@@UEAA@XZ 000000018007e610 f   tcp_client.obj
 0001:0007d780       ?send@tcp_client@acl@@QEAA_NPEBXIPEAVstring@2@@Z 000000018007e780 f   tcp_client.obj
 0001:0007d990       ?open@tcp_client@acl@@MEAA_NXZ 000000018007e990 f   tcp_client.obj
 0001:0007da30       ?try_open@tcp_client@acl@@AEAA_NPEA_N@Z 000000018007ea30 f   tcp_client.obj
 0001:0007dcb0       ??_Etcp_client@acl@@UEAAPEAXI@Z 000000018007ecb0 f i tcp_client.obj
 0001:0007dd80       ??_Gtcp_client@acl@@UEAAPEAXI@Z 000000018007ed80 f i tcp_client.obj
 0001:0007dde0       ??_Gtcp_reader@acl@@QEAAPEAXI@Z 000000018007ede0 f i tcp_client.obj
 0001:0007de40       ??_Gtcp_sender@acl@@QEAAPEAXI@Z 000000018007ee40 f i tcp_client.obj
 0001:0007dea0       ??0tcp_pool@acl@@QEAA@PEBD_K1@Z 000000018007eea0 f   tcp_pool.obj
 0001:0007df10       ??1tcp_pool@acl@@UEAA@XZ   000000018007ef10 f   tcp_pool.obj
 0001:0007df60       ?send@tcp_pool@acl@@QEAA_NPEBXIPEAVstring@2@@Z 000000018007ef60 f   tcp_pool.obj
 0001:0007e030       ?create_connect@tcp_pool@acl@@MEAAPEAVconnect_client@2@XZ 000000018007f030 f   tcp_pool.obj
 0001:0007e160       ??_Etcp_pool@acl@@UEAAPEAXI@Z 000000018007f160 f i tcp_pool.obj
 0001:0007e230       ??_Gtcp_pool@acl@@UEAAPEAXI@Z 000000018007f230 f i tcp_pool.obj
 0001:0007e290       ??0tcp_manager@acl@@QEAA@XZ 000000018007f290 f   tcp_manager.obj
 0001:0007e2e0       ??1tcp_manager@acl@@UEAA@XZ 000000018007f2e0 f   tcp_manager.obj
 0001:0007e330       ?create_pool@tcp_manager@acl@@MEAAPEAVconnect_pool@2@PEBD_K1@Z 000000018007f330 f   tcp_manager.obj
 0001:0007e430       ??_Etcp_manager@acl@@UEAAPEAXI@Z 000000018007f430 f i tcp_manager.obj
 0001:0007e500       ??_Gtcp_manager@acl@@UEAAPEAXI@Z 000000018007f500 f i tcp_manager.obj
 0001:0007e560       ??0tcp_ipc@acl@@QEAA@XZ    000000018007f560 f   tcp_ipc.obj
 0001:0007e620       ??1tcp_ipc@acl@@QEAA@XZ    000000018007f620 f   tcp_ipc.obj
 0001:0007e6a0       ?set_limit@tcp_ipc@acl@@QEAAAEAV12@H@Z 000000018007f6a0 f   tcp_ipc.obj
 0001:0007e6d0       ?set_idle@tcp_ipc@acl@@QEAAAEAV12@H@Z 000000018007f6d0 f   tcp_ipc.obj
 0001:0007e700       ?set_conn_timeout@tcp_ipc@acl@@QEAAAEAV12@H@Z 000000018007f700 f   tcp_ipc.obj
 0001:0007e730       ?set_rw_timeout@tcp_ipc@acl@@QEAAAEAV12@H@Z 000000018007f730 f   tcp_ipc.obj
 0001:0007e760       ?get_manager@tcp_ipc@acl@@QEBAAEAVtcp_manager@2@XZ 000000018007f760 f   tcp_ipc.obj
 0001:0007e7b0       ?add_addr@tcp_ipc@acl@@QEAAAEAV12@PEBD@Z 000000018007f7b0 f   tcp_ipc.obj
 0001:0007e820       ?del_addr@tcp_ipc@acl@@QEAAAEAV12@PEBD@Z 000000018007f820 f   tcp_ipc.obj
 0001:0007e870       ?addr_exist@tcp_ipc@acl@@QEAA_NPEBD@Z 000000018007f870 f   tcp_ipc.obj
 0001:0007e8e0       ?get_addrs@tcp_ipc@acl@@QEAAXAEAV?$vector@Vstring@acl@@V?$allocator@Vstring@acl@@@std@@@std@@@Z 000000018007f8e0 f   tcp_ipc.obj
 0001:0007ea60       ?send@tcp_ipc@acl@@QEAA_NPEBDPEBXIPEAVstring@2@@Z 000000018007fa60 f   tcp_ipc.obj
 0001:0007eb40       ?broadcast@tcp_ipc@acl@@QEAA_KPEBXI_N1PEAI@Z 000000018007fb40 f   tcp_ipc.obj
 0001:0007ed80       ?send@tcp_ipc@acl@@AEAA_NAEAVtcp_pool@2@PEBXIPEAVstring@2@@Z 000000018007fd80 f   tcp_ipc.obj
 0001:0007f090       ??$_Allocate@Vstring@acl@@@std@@YAPEAVstring@acl@@_KPEAV12@@Z 0000000180080090 f i tcp_ipc.obj
 0001:0007f120       ??$_Debug_pointer@Vstring@acl@@@std@@YAXPEAVstring@acl@@PEB_WI@Z 0000000180080120 f i tcp_ipc.obj
 0001:0007f180       ??$_Debug_range2@PEAVstring@acl@@@std@@YAXPEAVstring@acl@@0PEB_WIUrandom_access_iterator_tag@0@@Z 0000000180080180 f i tcp_ipc.obj
 0001:0007f230       ??$_Debug_range@PEAVstring@acl@@@std@@YAXPEAVstring@acl@@0PEB_WI@Z 0000000180080230 f i tcp_ipc.obj
 0001:0007f2b0       ??$_Iter_cat@PEAVstring@acl@@@std@@YA?AUrandom_access_iterator_tag@0@AEBQEAVstring@acl@@@Z 00000001800802b0 f i tcp_ipc.obj
 0001:0007f320       ??$_Rechecked@PEAVstring@acl@@PEAV12@@std@@YAAEAPEAVstring@acl@@AEAPEAV12@PEAV12@@Z 0000000180080320 f i tcp_ipc.obj
 0001:0007f350       ??$_Umove@PEAVstring@acl@@@?$vector@Vstring@acl@@V?$allocator@Vstring@acl@@@std@@@std@@IEAAPEAVstring@acl@@PEAV23@00@Z 0000000180080350 f i tcp_ipc.obj
 0001:0007f3e0       ??$_Unchecked@PEAVstring@acl@@@std@@YAPEAVstring@acl@@PEAV12@@Z 00000001800803e0 f i tcp_ipc.obj
 0001:0007f3f0       ??$_Uninit_move@PEAVstring@acl@@PEAV12@U?$_Wrap_alloc@V?$allocator@Vstring@acl@@@std@@@std@@@std@@YAPEAVstring@acl@@PEAV12@00AEAU?$_Wrap_alloc@V?$allocator@Vstring@acl@@@std@@@0@@Z 00000001800803f0 f i tcp_ipc.obj
 0001:0007f490       ??$_Uninit_move@PEAVstring@acl@@PEAV12@V?$allocator@Vstring@acl@@@std@@V12@@std@@YAPEAVstring@acl@@PEAV12@00AEAU?$_Wrap_alloc@V?$allocator@Vstring@acl@@@std@@@0@0U_Nonscalar_ptr_iterator_tag@0@@Z 0000000180080490 f i tcp_ipc.obj
 0001:0007f580       ??$_Uninitialized_move@PEAVstring@acl@@PEAV12@U?$_Wrap_alloc@V?$allocator@Vstring@acl@@@std@@@std@@@std@@YAPEAVstring@acl@@PEAV12@00AEAU?$_Wrap_alloc@V?$allocator@Vstring@acl@@@std@@@0@@Z 0000000180080580 f i tcp_ipc.obj
 0001:0007f630       ??$_Val_type@PEAVstring@acl@@@std@@YAPEAVstring@acl@@PEAV12@@Z 0000000180080630 f i tcp_ipc.obj
 0001:0007f640       ??$construct@Vstring@acl@@V12@@?$_Wrap_alloc@V?$allocator@Vstring@acl@@@std@@@std@@QEAAXPEAVstring@acl@@$$QEAV23@@Z 0000000180080640 f i tcp_ipc.obj
 0001:0007f6a0       ??$construct@Vstring@acl@@V12@@?$allocator@Vstring@acl@@@std@@QEAAXPEAVstring@acl@@$$QEAV23@@Z 00000001800806a0 f i tcp_ipc.obj
 0001:0007f750       ??$construct@Vstring@acl@@V12@@?$allocator_traits@V?$allocator@Vstring@acl@@@std@@@std@@SAXAEAV?$allocator@Vstring@acl@@@1@PEAVstring@acl@@$$QEAV34@@Z 0000000180080750 f i tcp_ipc.obj
 0001:0007f7b0       ?_Grow_to@?$vector@Vstring@acl@@V?$allocator@Vstring@acl@@@std@@@std@@IEBA_K_K@Z 00000001800807b0 f i tcp_ipc.obj
 0001:0007f8a0       ?_Inside@?$vector@Vstring@acl@@V?$allocator@Vstring@acl@@@std@@@std@@IEBA_NPEBVstring@acl@@@Z 00000001800808a0 f i tcp_ipc.obj
 0001:0007f920       ?_Orphan_range@?$vector@Vstring@acl@@V?$allocator@Vstring@acl@@@std@@@std@@IEBAXPEAVstring@acl@@0@Z 0000000180080920 f i tcp_ipc.obj
 0001:0007fa40       ?_Reallocate@?$vector@Vstring@acl@@V?$allocator@Vstring@acl@@@std@@@std@@IEAAX_K@Z 0000000180080a40 f i tcp_ipc.obj
 0001:0007fbe0       ?_Reserve@?$vector@Vstring@acl@@V?$allocator@Vstring@acl@@@std@@@std@@IEAAX_K@Z 0000000180080be0 f i tcp_ipc.obj
 0001:0007fca0       ?_Unused_capacity@?$vector@Vstring@acl@@V?$allocator@Vstring@acl@@@std@@@std@@QEBA_KXZ 0000000180080ca0 f i tcp_ipc.obj
 0001:0007fcd0       ?_Xlen@?$vector@Vstring@acl@@V?$allocator@Vstring@acl@@@std@@@std@@IEBAXXZ 0000000180080cd0 f i tcp_ipc.obj
 0001:0007fd10       ?allocate@?$_Wrap_alloc@V?$allocator@Vstring@acl@@@std@@@std@@QEAAPEAVstring@acl@@_K@Z 0000000180080d10 f i tcp_ipc.obj
 0001:0007fd60       ?allocate@?$allocator@Vstring@acl@@@std@@QEAAPEAVstring@acl@@_K@Z 0000000180080d60 f i tcp_ipc.obj
 0001:0007fdb0       ?capacity@?$vector@Vstring@acl@@V?$allocator@Vstring@acl@@@std@@@std@@QEBA_KXZ 0000000180080db0 f i tcp_ipc.obj
 0001:0007fde0       ?max_size@?$_Wrap_alloc@V?$allocator@Vstring@acl@@@std@@@std@@QEBA_KXZ 0000000180080de0 f i tcp_ipc.obj
 0001:0007fe20       ?max_size@?$allocator@Vstring@acl@@@std@@QEBA_KXZ 0000000180080e20 f i tcp_ipc.obj
 0001:0007fe40       ?max_size@?$allocator_traits@V?$allocator@Vstring@acl@@@std@@@std@@SA_KAEBV?$allocator@Vstring@acl@@@2@@Z 0000000180080e40 f i tcp_ipc.obj
 0001:0007fe80       ?max_size@?$vector@Vstring@acl@@V?$allocator@Vstring@acl@@@std@@@std@@QEBA_KXZ 0000000180080e80 f i tcp_ipc.obj
 0001:0007fed0       ?push_back@?$vector@Vstring@acl@@V?$allocator@Vstring@acl@@@std@@@std@@QEAAX$$QEAVstring@acl@@@Z 0000000180080ed0 f i tcp_ipc.obj
 0001:000800d0       ?size@?$vector@Vstring@acl@@V?$allocator@Vstring@acl@@@std@@@std@@QEBA_KXZ 00000001800810d0 f i tcp_ipc.obj
 0001:00080140       ??0db_row@acl@@QEAA@AEBV?$vector@PEBDV?$allocator@PEBD@std@@@std@@@Z 0000000180081140 f   db_handle.obj
 0001:000801c0       ??1db_row@acl@@QEAA@XZ     00000001800811c0 f   db_handle.obj
 0001:00080220       ?field_name@db_row@acl@@QEBAPEBD_K@Z 0000000180081220 f   db_handle.obj
 0001:000802c0       ?field_value@db_row@acl@@QEBAPEBDPEBD@Z 00000001800812c0 f   db_handle.obj
 0001:00080400       ??Adb_row@acl@@QEBAPEBDPEBD@Z 0000000180081400 f   db_handle.obj
 0001:00080440       ?field_value@db_row@acl@@QEBAPEBD_K@Z 0000000180081440 f   db_handle.obj
 0001:000804e0       ??Adb_row@acl@@QEBAPEBD_K@Z 00000001800814e0 f   db_handle.obj
 0001:00080520       ?field_int@db_row@acl@@QEBAH_KH@Z 0000000180081520 f   db_handle.obj
 0001:00080590       ?field_int@db_row@acl@@QEBAHPEBDH@Z 0000000180081590 f   db_handle.obj
 0001:00080600       ?field_int64@db_row@acl@@QEBA_J_K_J@Z 0000000180081600 f   db_handle.obj
 0001:00080670       ?field_int64@db_row@acl@@QEBA_JPEBD_J@Z 0000000180081670 f   db_handle.obj
 0001:000806e0       ?field_double@db_row@acl@@QEBAN_KN@Z 00000001800816e0 f   db_handle.obj
 0001:00080750       ?field_double@db_row@acl@@QEBANPEBDN@Z 0000000180081750 f   db_handle.obj
 0001:000807c0       ?field_string@db_row@acl@@QEBAPEBD_K@Z 00000001800817c0 f   db_handle.obj
 0001:00080820       ?field_string@db_row@acl@@QEBAPEBDPEBD@Z 0000000180081820 f   db_handle.obj
 0001:00080880       ?field_length@db_row@acl@@QEBA_K_K@Z 0000000180081880 f   db_handle.obj
 0001:00080920       ?field_length@db_row@acl@@QEBA_KPEBD@Z 0000000180081920 f   db_handle.obj
 0001:00080a60       ?push_back@db_row@acl@@QEAAXPEBD_K@Z 0000000180081a60 f   db_handle.obj
 0001:00080ac0       ?length@db_row@acl@@QEBA_KXZ 0000000180081ac0 f   db_handle.obj
 0001:00080b00       ?clear@db_row@acl@@QEAAXXZ 0000000180081b00 f   db_handle.obj
 0001:00080b40       ??0db_rows@acl@@QEAA@XZ    0000000180081b40 f   db_handle.obj
 0001:00080bf0       ??1db_rows@acl@@UEAA@XZ    0000000180081bf0 f   db_handle.obj
 0001:00080db0       ?get_rows@db_rows@acl@@QEAAAEBV?$vector@PEBVdb_row@acl@@V?$allocator@PEBVdb_row@acl@@@std@@@std@@PEBD0@Z 0000000180081db0 f   db_handle.obj
 0001:00080f70       ?get_rows@db_rows@acl@@QEBAAEBV?$vector@PEAVdb_row@acl@@V?$allocator@PEAVdb_row@acl@@@std@@@std@@XZ 0000000180081f70 f   db_handle.obj
 0001:00080f90       ??Adb_rows@acl@@QEBAPEBVdb_row@1@_K@Z 0000000180081f90 f   db_handle.obj
 0001:00081040       ?empty@db_rows@acl@@QEBA_NXZ 0000000180082040 f   db_handle.obj
 0001:00081080       ?length@db_rows@acl@@QEBA_KXZ 0000000180082080 f   db_handle.obj
 0001:000810c0       ??0db_handle@acl@@QEAA@XZ  00000001800820c0 f   db_handle.obj
 0001:00081140       ??1db_handle@acl@@UEAA@XZ  0000000180082140 f   db_handle.obj
 0001:000811e0       ?open@db_handle@acl@@UEAA_NXZ 00000001800821e0 f   db_handle.obj
 0001:00081220       ?exec_select@db_handle@acl@@QEAA_NAEAVquery@2@PEAVdb_rows@2@@Z 0000000180082220 f   db_handle.obj
 0001:00081290       ?exec_update@db_handle@acl@@QEAA_NAEAVquery@2@@Z 0000000180082290 f   db_handle.obj
 0001:000812f0       ?escape_string@db_handle@acl@@UEAAAEAVstring@2@PEBD_KAEAV32@@Z 00000001800822f0 f   db_handle.obj
 0001:000814f0       ?get_result@db_handle@acl@@QEBAPEBVdb_rows@2@XZ 00000001800824f0 f   db_handle.obj
 0001:00081510       ?get_rows@db_handle@acl@@QEAAPEBV?$vector@PEBVdb_row@acl@@V?$allocator@PEBVdb_row@acl@@@std@@@std@@PEBD0@Z 0000000180082510 f   db_handle.obj
 0001:00081580       ?get_rows@db_handle@acl@@QEBAPEBV?$vector@PEAVdb_row@acl@@V?$allocator@PEAVdb_row@acl@@@std@@@std@@XZ 0000000180082580 f   db_handle.obj
 0001:000815e0       ?get_first_row@db_handle@acl@@QEBAPEBVdb_row@2@XZ 00000001800825e0 f   db_handle.obj
 0001:00081660       ?free_result@db_handle@acl@@QEAAXXZ 0000000180082660 f   db_handle.obj
 0001:000816f0       ??Adb_handle@acl@@QEBAPEBVdb_row@1@_K@Z 00000001800826f0 f   db_handle.obj
 0001:00081760       ?length@db_handle@acl@@QEBA_KXZ 0000000180082760 f   db_handle.obj
 0001:000817b0       ?empty@db_handle@acl@@QEBA_NXZ 00000001800827b0 f   db_handle.obj
 0001:00081800       ?print_out@db_handle@acl@@QEBAX_K@Z 0000000180082800 f   db_handle.obj
 0001:00081900       ?set_id@db_handle@acl@@QEAAAEAV12@PEBD@Z 0000000180082900 f   db_handle.obj
 0001:000819c0       ?set_when@db_handle@acl@@QEAAAEAV12@_J@Z 00000001800829c0 f   db_handle.obj
 0001:000819f0       ?set_loadpath@db_handle@acl@@SAXPEBD@Z 00000001800829f0 f   db_handle.obj
 0001:00081a40       ?get_loadpath@db_handle@acl@@SAPEBDXZ 0000000180082a40 f   db_handle.obj
 0001:00082100       ??$_Allocate@PEBD@std@@YAPEAPEBD_KPEAPEBD@Z 0000000180083100 f i db_handle.obj
 0001:000821a0       ??$_Allocate@PEBVdb_row@acl@@@std@@YAPEAPEBVdb_row@acl@@_KPEAPEBV12@@Z 00000001800831a0 f i db_handle.obj
 0001:00082240       ??$_Allocate@_K@std@@YAPEA_K_KPEA_K@Z 0000000180083240 f i db_handle.obj
 0001:000822e0       ??$_Debug_pointer@PEBD@std@@YAXPEAPEBDPEB_WI@Z 00000001800832e0 f i db_handle.obj
 0001:00082340       ??$_Debug_pointer@PEBVdb_row@acl@@@std@@YAXPEAPEBVdb_row@acl@@PEB_WI@Z 0000000180083340 f i db_handle.obj
 0001:000823a0       ??$_Debug_pointer@_K@std@@YAXPEA_KPEB_WI@Z 00000001800833a0 f i db_handle.obj
 0001:00082400       ??$_Debug_range2@PEAPEBD@std@@YAXPEAPEBD0PEB_WIUrandom_access_iterator_tag@0@@Z 0000000180083400 f i db_handle.obj
 0001:000824b0       ??$_Debug_range2@PEAPEBVdb_row@acl@@@std@@YAXPEAPEBVdb_row@acl@@0PEB_WIUrandom_access_iterator_tag@0@@Z 00000001800834b0 f i db_handle.obj
 0001:00082560       ??$_Debug_range2@PEA_K@std@@YAXPEA_K0PEB_WIUrandom_access_iterator_tag@0@@Z 0000000180083560 f i db_handle.obj
 0001:00082610       ??$_Debug_range@PEAPEBD@std@@YAXPEAPEBD0PEB_WI@Z 0000000180083610 f i db_handle.obj
 0001:00082690       ??$_Debug_range@PEAPEBVdb_row@acl@@@std@@YAXPEAPEBVdb_row@acl@@0PEB_WI@Z 0000000180083690 f i db_handle.obj
 0001:00082710       ??$_Debug_range@PEA_K@std@@YAXPEA_K0PEB_WI@Z 0000000180083710 f i db_handle.obj
 0001:00082790       ??$_Destroy_range@U?$_Wrap_alloc@V?$allocator@PEAVdb_row@acl@@@std@@@std@@@std@@YAXPEAPEAVdb_row@acl@@0AEAU?$_Wrap_alloc@V?$allocator@PEAVdb_row@acl@@@std@@@0@@Z 0000000180083790 f i db_handle.obj
 0001:00082810       ??$_Destroy_range@U?$_Wrap_alloc@V?$allocator@PEAVdb_row@acl@@@std@@@std@@@std@@YAXPEAPEAVdb_row@acl@@0AEAU?$_Wrap_alloc@V?$allocator@PEAVdb_row@acl@@@std@@@0@U_Scalar_ptr_iterator_tag@0@@Z 0000000180083810 f i db_handle.obj
 0001:00082830       ??$_Destroy_range@U?$_Wrap_alloc@V?$allocator@PEBD@std@@@std@@@std@@YAXPEAPEBD0AEAU?$_Wrap_alloc@V?$allocator@PEBD@std@@@0@@Z 0000000180083830 f i db_handle.obj
 0001:000828b0       ??$_Destroy_range@U?$_Wrap_alloc@V?$allocator@PEBD@std@@@std@@@std@@YAXPEAPEBD0AEAU?$_Wrap_alloc@V?$allocator@PEBD@std@@@0@U_Scalar_ptr_iterator_tag@0@@Z 00000001800838b0 f i db_handle.obj
 0001:000828d0       ??$_Destroy_range@U?$_Wrap_alloc@V?$allocator@PEBVdb_row@acl@@@std@@@std@@@std@@YAXPEAPEBVdb_row@acl@@0AEAU?$_Wrap_alloc@V?$allocator@PEBVdb_row@acl@@@std@@@0@@Z 00000001800838d0 f i db_handle.obj
 0001:00082950       ??$_Destroy_range@U?$_Wrap_alloc@V?$allocator@PEBVdb_row@acl@@@std@@@std@@@std@@YAXPEAPEBVdb_row@acl@@0AEAU?$_Wrap_alloc@V?$allocator@PEBVdb_row@acl@@@std@@@0@U_Scalar_ptr_iterator_tag@0@@Z 0000000180083950 f i db_handle.obj
 0001:00082970       ??$_Destroy_range@U?$_Wrap_alloc@V?$allocator@_K@std@@@std@@@std@@YAXPEA_K0AEAU?$_Wrap_alloc@V?$allocator@_K@std@@@0@@Z 0000000180083970 f i db_handle.obj
 0001:000829f0       ??$_Destroy_range@U?$_Wrap_alloc@V?$allocator@_K@std@@@std@@@std@@YAXPEA_K0AEAU?$_Wrap_alloc@V?$allocator@_K@std@@@0@U_Scalar_ptr_iterator_tag@0@@Z 00000001800839f0 f i db_handle.obj
 0001:00082a10       ??$_Iter_cat@PEAPEBD@std@@YA?AUrandom_access_iterator_tag@0@AEBQEAPEBD@Z 0000000180083a10 f i db_handle.obj
 0001:00082a80       ??$_Iter_cat@PEAPEBVdb_row@acl@@@std@@YA?AUrandom_access_iterator_tag@0@AEBQEAPEBVdb_row@acl@@@Z 0000000180083a80 f i db_handle.obj
 0001:00082af0       ??$_Iter_cat@PEA_K@std@@YA?AUrandom_access_iterator_tag@0@AEBQEA_K@Z 0000000180083af0 f i db_handle.obj
 0001:00082b60       ??$_Ptr_cat@PEAVdb_row@acl@@PEAV12@@std@@YA?AU_Scalar_ptr_iterator_tag@0@PEAPEAVdb_row@acl@@0@Z 0000000180083b60 f i db_handle.obj
 0001:00082bc0       ??$_Ptr_cat@PEBDPEBD@std@@YA?AU_Scalar_ptr_iterator_tag@0@PEAPEBD0@Z 0000000180083bc0 f i db_handle.obj
 0001:00082c20       ??$_Ptr_cat@PEBVdb_row@acl@@PEBV12@@std@@YA?AU_Scalar_ptr_iterator_tag@0@PEAPEBVdb_row@acl@@0@Z 0000000180083c20 f i db_handle.obj
 0001:00082c80       ??$_Ptr_cat@_K_K@std@@YA?AU_Scalar_ptr_iterator_tag@0@PEA_K0@Z 0000000180083c80 f i db_handle.obj
 0001:00082ce0       ??$_Rechecked@PEAPEBDPEAPEBD@std@@YAAEAPEAPEBDAEAPEAPEBDPEAPEBD@Z 0000000180083ce0 f i db_handle.obj
 0001:00082d10       ??$_Rechecked@PEAPEBVdb_row@acl@@PEAPEBV12@@std@@YAAEAPEAPEBVdb_row@acl@@AEAPEAPEBV12@PEAPEBV12@@Z 0000000180083d10 f i db_handle.obj
 0001:00082d40       ??$_Rechecked@PEA_KPEA_K@std@@YAAEAPEA_KAEAPEA_KPEA_K@Z 0000000180083d40 f i db_handle.obj
 0001:00082d70       ??$_Umove@PEAPEBD@?$vector@PEBDV?$allocator@PEBD@std@@@std@@IEAAPEAPEBDPEAPEBD00@Z 0000000180083d70 f i db_handle.obj
 0001:00082e00       ??$_Umove@PEAPEBVdb_row@acl@@@?$vector@PEBVdb_row@acl@@V?$allocator@PEBVdb_row@acl@@@std@@@std@@IEAAPEAPEBVdb_row@acl@@PEAPEBV23@00@Z 0000000180083e00 f i db_handle.obj
 0001:00082e90       ??$_Umove@PEA_K@?$vector@_KV?$allocator@_K@std@@@std@@IEAAPEA_KPEA_K00@Z 0000000180083e90 f i db_handle.obj
 0001:00082f20       ??$_Unchecked@PEAPEBD@std@@YAPEAPEBDPEAPEBD@Z 0000000180083f20 f i db_handle.obj
 0001:00082f30       ??$_Unchecked@PEAPEBVdb_row@acl@@@std@@YAPEAPEBVdb_row@acl@@PEAPEBV12@@Z 0000000180083f30 f i db_handle.obj
 0001:00082f40       ??$_Unchecked@PEA_K@std@@YAPEA_KPEA_K@Z 0000000180083f40 f i db_handle.obj
 0001:00082f50       ??$_Uninit_move@PEAPEBDPEAPEBDU?$_Wrap_alloc@V?$allocator@PEBD@std@@@std@@@std@@YAPEAPEBDPEAPEBD00AEAU?$_Wrap_alloc@V?$allocator@PEBD@std@@@0@@Z 0000000180083f50 f i db_handle.obj
 0001:00082ff0       ??$_Uninit_move@PEAPEBVdb_row@acl@@PEAPEBV12@U?$_Wrap_alloc@V?$allocator@PEBVdb_row@acl@@@std@@@std@@@std@@YAPEAPEBVdb_row@acl@@PEAPEBV12@00AEAU?$_Wrap_alloc@V?$allocator@PEBVdb_row@acl@@@std@@@0@@Z 0000000180083ff0 f i db_handle.obj
 0001:00083090       ??$_Uninit_move@PEA_KPEA_KU?$_Wrap_alloc@V?$allocator@_K@std@@@std@@@std@@YAPEA_KPEA_K00AEAU?$_Wrap_alloc@V?$allocator@_K@std@@@0@@Z 0000000180084090 f i db_handle.obj
 0001:00083130       ??$_Uninit_move@PEBDPEBDPEBD@std@@YAPEAPEBDPEAPEBD00AEAU?$_Wrap_alloc@V?$allocator@PEBD@std@@@0@0U_Scalar_ptr_iterator_tag@0@@Z 0000000180084130 f i db_handle.obj
 0001:00083200       ??$_Uninit_move@PEBVdb_row@acl@@PEBV12@PEBV12@@std@@YAPEAPEBVdb_row@acl@@PEAPEBV12@00AEAU?$_Wrap_alloc@V?$allocator@PEBVdb_row@acl@@@std@@@0@0U_Scalar_ptr_iterator_tag@0@@Z 0000000180084200 f i db_handle.obj
 0001:000832d0       ??$_Uninit_move@_K_K_K@std@@YAPEA_KPEA_K00AEAU?$_Wrap_alloc@V?$allocator@_K@std@@@0@0U_Scalar_ptr_iterator_tag@0@@Z 00000001800842d0 f i db_handle.obj
 0001:000833a0       ??$_Uninitialized_move@PEAPEBDPEAPEBDU?$_Wrap_alloc@V?$allocator@PEBD@std@@@std@@@std@@YAPEAPEBDPEAPEBD00AEAU?$_Wrap_alloc@V?$allocator@PEBD@std@@@0@@Z 00000001800843a0 f i db_handle.obj
 0001:00083450       ??$_Uninitialized_move@PEAPEBVdb_row@acl@@PEAPEBV12@U?$_Wrap_alloc@V?$allocator@PEBVdb_row@acl@@@std@@@std@@@std@@YAPEAPEBVdb_row@acl@@PEAPEBV12@00AEAU?$_Wrap_alloc@V?$allocator@PEBVdb_row@acl@@@std@@@0@@Z 0000000180084450 f i db_handle.obj
 0001:00083500       ??$_Uninitialized_move@PEA_KPEA_KU?$_Wrap_alloc@V?$allocator@_K@std@@@std@@@std@@YAPEA_KPEA_K00AEAU?$_Wrap_alloc@V?$allocator@_K@std@@@0@@Z 0000000180084500 f i db_handle.obj
 0001:000835b0       ??$_Val_type@PEAPEBD@std@@YAPEAPEBDPEAPEBD@Z 00000001800845b0 f i db_handle.obj
 0001:000835c0       ??$_Val_type@PEAPEBVdb_row@acl@@@std@@YAPEAPEBVdb_row@acl@@PEAPEBV12@@Z 00000001800845c0 f i db_handle.obj
 0001:000835d0       ??$_Val_type@PEA_K@std@@YAPEA_KPEA_K@Z 00000001800845d0 f i db_handle.obj
 0001:000835e0       ??$addressof@$$CB_K@std@@YAPEB_KAEB_K@Z 00000001800845e0 f i db_handle.obj
 0001:000835f0       ??$addressof@QEBD@std@@YAPEBQEBDAEBQEBD@Z 00000001800845f0 f i db_handle.obj
 0001:00083600       ??$addressof@QEBVdb_row@acl@@@std@@YAPEBQEBVdb_row@acl@@AEBQEBV12@@Z 0000000180084600 f i db_handle.obj
 0001:00083610       ??$construct@PEBDAEAPEBD@?$_Wrap_alloc@V?$allocator@PEBD@std@@@std@@QEAAXPEAPEBDAEAPEBD@Z 0000000180084610 f i db_handle.obj
 0001:00083670       ??$construct@PEBDAEAPEBD@?$allocator@PEBD@std@@QEAAXPEAPEBDAEAPEBD@Z 0000000180084670 f i db_handle.obj
 0001:00083720       ??$construct@PEBDAEAPEBD@?$allocator_traits@V?$allocator@PEBD@std@@@std@@SAXAEAV?$allocator@PEBD@1@PEAPEBDAEAPEBD@Z 0000000180084720 f i db_handle.obj
 0001:00083780       ??$construct@PEBDAEBQEBD@?$_Wrap_alloc@V?$allocator@PEBD@std@@@std@@QEAAXPEAPEBDAEBQEBD@Z 0000000180084780 f i db_handle.obj
 0001:000837e0       ??$construct@PEBDAEBQEBD@?$allocator_traits@V?$allocator@PEBD@std@@@std@@SAXAEAV?$allocator@PEBD@1@PEAPEBDAEBQEBD@Z 00000001800847e0 f i db_handle.obj
 0001:00083840       ??$construct@PEBVdb_row@acl@@AEAPEBV12@@?$_Wrap_alloc@V?$allocator@PEBVdb_row@acl@@@std@@@std@@QEAAXPEAPEBVdb_row@acl@@AEAPEBV23@@Z 0000000180084840 f i db_handle.obj
 0001:000838a0       ??$construct@PEBVdb_row@acl@@AEAPEBV12@@?$allocator@PEBVdb_row@acl@@@std@@QEAAXPEAPEBVdb_row@acl@@AEAPEBV23@@Z 00000001800848a0 f i db_handle.obj
 0001:00083950       ??$construct@PEBVdb_row@acl@@AEAPEBV12@@?$allocator_traits@V?$allocator@PEBVdb_row@acl@@@std@@@std@@SAXAEAV?$allocator@PEBVdb_row@acl@@@1@PEAPEBVdb_row@acl@@AEAPEBV34@@Z 0000000180084950 f i db_handle.obj
 0001:000839b0       ??$construct@PEBVdb_row@acl@@AEBQEBV12@@?$_Wrap_alloc@V?$allocator@PEBVdb_row@acl@@@std@@@std@@QEAAXPEAPEBVdb_row@acl@@AEBQEBV23@@Z 00000001800849b0 f i db_handle.obj
 0001:00083a10       ??$construct@PEBVdb_row@acl@@AEBQEBV12@@?$allocator_traits@V?$allocator@PEBVdb_row@acl@@@std@@@std@@SAXAEAV?$allocator@PEBVdb_row@acl@@@1@PEAPEBVdb_row@acl@@AEBQEBV34@@Z 0000000180084a10 f i db_handle.obj
